
lab2.elf:     file format elf32-littlenios2
lab2.elf
architecture: nios2:r1, flags 0x00000112:
EXEC_P, HAS_SYMS, D_PAGED
start address 0x00800244

Program Header:
    LOAD off    0x00001000 vaddr 0x00800000 paddr 0x00800000 align 2**12
         filesz 0x00000020 memsz 0x00000020 flags r-x
    LOAD off    0x00001020 vaddr 0x00800020 paddr 0x00800020 align 2**12
         filesz 0x000115e0 memsz 0x000115e0 flags r-x
    LOAD off    0x00012600 vaddr 0x00811600 paddr 0x0081228c align 2**12
         filesz 0x00000c8c memsz 0x00000c8c flags rw-
    LOAD off    0x00013f18 vaddr 0x00812f18 paddr 0x00812f18 align 2**12
         filesz 0x00000000 memsz 0x00002940 flags rw-

Sections:
Idx Name          Size      VMA       LMA       File off  Algn
  0 .entry        00000020  00800000  00800000  00001000  2**5
                  CONTENTS, ALLOC, LOAD, READONLY, CODE
  1 .exceptions   00000224  00800020  00800020  00001020  2**2
                  CONTENTS, ALLOC, LOAD, READONLY, CODE
  2 .text         00010938  00800244  00800244  00001244  2**2
                  CONTENTS, ALLOC, LOAD, READONLY, CODE
  3 .rodata       00000a84  00810b7c  00810b7c  00011b7c  2**2
                  CONTENTS, ALLOC, LOAD, READONLY, DATA
  4 .rwdata       00000c8c  00811600  0081228c  00012600  2**2
                  CONTENTS, ALLOC, LOAD, DATA, SMALL_DATA
  5 .bss          00002940  00812f18  00812f18  00013f18  2**2
                  ALLOC, SMALL_DATA
  6 .sdram_0      00000000  00815858  00815858  0001328c  2**0
                  CONTENTS
  7 .comment      00000023  00000000  00000000  0001328c  2**0
                  CONTENTS, READONLY
  8 .debug_aranges 00000c78  00000000  00000000  000132b0  2**3
                  CONTENTS, READONLY, DEBUGGING
  9 .debug_info   0001df2d  00000000  00000000  00013f28  2**0
                  CONTENTS, READONLY, DEBUGGING
 10 .debug_abbrev 00007931  00000000  00000000  00031e55  2**0
                  CONTENTS, READONLY, DEBUGGING
 11 .debug_line   00009979  00000000  00000000  00039786  2**0
                  CONTENTS, READONLY, DEBUGGING
 12 .debug_frame  000028e0  00000000  00000000  00043100  2**2
                  CONTENTS, READONLY, DEBUGGING
 13 .debug_str    0000371d  00000000  00000000  000459e0  2**0
                  CONTENTS, READONLY, DEBUGGING
 14 .debug_loc    00003b77  00000000  00000000  000490fd  2**0
                  CONTENTS, READONLY, DEBUGGING
 15 .debug_alt_sim_info 00000060  00000000  00000000  0004cc74  2**2
                  CONTENTS, READONLY, DEBUGGING
 16 .debug_ranges 000005b8  00000000  00000000  0004ccd8  2**3
                  CONTENTS, READONLY, DEBUGGING
 17 .thread_model 00000003  00000000  00000000  00050c0a  2**0
                  CONTENTS, READONLY
 18 .cpu          0000000c  00000000  00000000  00050c0d  2**0
                  CONTENTS, READONLY
 19 .qsys         00000001  00000000  00000000  00050c19  2**0
                  CONTENTS, READONLY
 20 .simulation_enabled 00000001  00000000  00000000  00050c1a  2**0
                  CONTENTS, READONLY
 21 .sysid_hash   00000004  00000000  00000000  00050c1b  2**0
                  CONTENTS, READONLY
 22 .sysid_base   00000004  00000000  00000000  00050c1f  2**0
                  CONTENTS, READONLY
 23 .sysid_time   00000004  00000000  00000000  00050c23  2**0
                  CONTENTS, READONLY
 24 .stderr_dev   0000000b  00000000  00000000  00050c27  2**0
                  CONTENTS, READONLY
 25 .stdin_dev    0000000b  00000000  00000000  00050c32  2**0
                  CONTENTS, READONLY
 26 .stdout_dev   0000000b  00000000  00000000  00050c3d  2**0
                  CONTENTS, READONLY
 27 .sopc_system_name 0000000b  00000000  00000000  00050c48  2**0
                  CONTENTS, READONLY
 28 .quartus_project_dir 00000018  00000000  00000000  00050c53  2**0
                  CONTENTS, READONLY
 29 .jdi          00004244  00000000  00000000  00050c6b  2**0
                  CONTENTS, READONLY
SYMBOL TABLE:
00800000 l    d  .entry	00000000 .entry
00800020 l    d  .exceptions	00000000 .exceptions
00800244 l    d  .text	00000000 .text
00810b7c l    d  .rodata	00000000 .rodata
00811600 l    d  .rwdata	00000000 .rwdata
00812f18 l    d  .bss	00000000 .bss
00815858 l    d  .sdram_0	00000000 .sdram_0
00000000 l    d  .comment	00000000 .comment
00000000 l    d  .debug_aranges	00000000 .debug_aranges
00000000 l    d  .debug_info	00000000 .debug_info
00000000 l    d  .debug_abbrev	00000000 .debug_abbrev
00000000 l    d  .debug_line	00000000 .debug_line
00000000 l    d  .debug_frame	00000000 .debug_frame
00000000 l    d  .debug_str	00000000 .debug_str
00000000 l    d  .debug_loc	00000000 .debug_loc
00000000 l    d  .debug_alt_sim_info	00000000 .debug_alt_sim_info
00000000 l    d  .debug_ranges	00000000 .debug_ranges
00000000 l    df *ABS*	00000000 ../lab2_bsp//obj/HAL/src/crt0.o
0080028c l       .text	00000000 alt_after_alt_main
00000000 l    df *ABS*	00000000 alt_irq_handler.c
00000000 l    df *ABS*	00000000 alt_instruction_exception_entry.c
00000000 l    df *ABS*	00000000 fatfs.c
00000000 l    df *ABS*	00000000 fatfs_diskio.c
00812244 l     O .rwdata	00000001 Stat
00812f18 l     O .bss	00000001 CardType
00812f1a l     O .bss	00000002 Timer1
00812f1c l     O .bss	00000002 Timer2
00812f1e l     O .bss	00000001 XMITDummy
00812f20 l     O .bss	00000004 Control1
008002b4 l     F .text	0000004c SetLowSpeed
00800300 l     F .text	0000006c SetHighSpeed
0080036c l     F .text	00000044 InitDiskIOHardware
008003b0 l     F .text	0000003c Set8BitTransfer
008003ec l     F .text	00000038 Set32BitTransfer
00800424 l     F .text	00000050 ReceiveU8
00800474 l     F .text	0000012c ReceiveDatablock
008005a0 l     F .text	00000188 TransmitDatablock
0080074c l     F .text	00000054 WaitReady
00800728 l     F .text	00000024 GetCDWP
008007a0 l     F .text	00000044 ReleaseBus
008007e4 l     F .text	00000250 SendCMD
00812f24 l     O .bss	00000004 pvm.1830
00000000 l    df *ABS*	00000000 fatfs_nios2_de0_nano_spi.c
00000000 l    df *ABS*	00000000 fatfs_nios2_de1_pio.c
00000000 l    df *ABS*	00000000 fatfs_nios2_de1_spi.c
00000000 l    df *ABS*	00000000 ff.c
00812f28 l     O .bss	00000004 FatFs
00812f2c l     O .bss	00000002 Fsid
00801548 l     F .text	0000006c mem_cpy
008015b4 l     F .text	00000058 mem_set
0080160c l     F .text	0000008c mem_cmp
00801698 l     F .text	0000007c chk_chr
00801714 l     F .text	0000015c move_window
00801870 l     F .text	0000021c sync
008020ec l     F .text	00000114 remove_chain
00802200 l     F .text	000001e4 create_chain
008023e4 l     F .text	000001ec dir_sdi
008025d0 l     F .text	000002e8 dir_next
008028b8 l     F .text	000000f4 dir_find
008029ac l     F .text	000000fc dir_read
00802aa8 l     F .text	00000120 dir_register
00802bc8 l     F .text	00000098 dir_remove
00802c60 l     F .text	000002ec create_name
00810bc0 l     O .rodata	00000080 excvt.1856
00802f4c l     F .text	00000230 get_fileinfo
0080317c l     F .text	000001d0 follow_path
0080334c l     F .text	00000174 check_fs
008034c0 l     F .text	0000093c chk_mounted
00803dfc l     F .text	00000090 validate
00810c40 l     O .rodata	00000016 vst.2095
00810c56 l     O .rodata	00000016 cst.2096
00000000 l    df *ABS*	00000000 main.c
00812f6c l     O .bss	00000018 alarm
00812f30 l     O .bss	00000004 Systick
00812f34 l     O .bss	00000002 Timer
00807ff4 l     F .text	00000068 TimerFunction
00812f36 l     O .bss	00000002 wTimer10ms.3438
0080805c l     F .text	00000050 IoInit
008080ac l     F .text	00000140 scan_files
008081ec l     F .text	000000a4 put_rc
008082b0 l     F .text	00000030 display_help
00812245 l     O .rwdata	00000004 ft.3496
00000000 l    df *ABS*	00000000 monitor.c
00000000 l    df *ABS*	00000000 uart_nios2.c
00000000 l    df *ABS*	00000000 lib2-divmod.c
0080a134 l     F .text	0000006c udivmodsi4
00000000 l    df *ABS*	00000000 fread.c
00000000 l    df *ABS*	00000000 mallocr.c
00000000 l    df *ABS*	00000000 getc.c
00000000 l    df *ABS*	00000000 impure.c
00811600 l     O .rwdata	00000424 impure_data
00000000 l    df *ABS*	00000000 mallocr.c
00000000 l    df *ABS*	00000000 memcpy.c
00000000 l    df *ABS*	00000000 memset.c
00000000 l    df *ABS*	00000000 putchar.c
00000000 l    df *ABS*	00000000 refill.c
0080b400 l     F .text	0000001c lflush
00000000 l    df *ABS*	00000000 rget.c
00000000 l    df *ABS*	00000000 sbrkr.c
00000000 l    df *ABS*	00000000 strcpy.c
00000000 l    df *ABS*	00000000 strlen.c
00000000 l    df *ABS*	00000000 fflush.c
00000000 l    df *ABS*	00000000 findfp.c
0080ba88 l     F .text	00000008 __fp_lock
0080ba90 l     F .text	00000008 __fp_unlock
0080baa4 l     F .text	0000019c __sinit.part.1
00000000 l    df *ABS*	00000000 fwalk.c
00000000 l    df *ABS*	00000000 int_errno.c
00000000 l    df *ABS*	00000000 makebuf.c
00000000 l    df *ABS*	00000000 putc.c
00000000 l    df *ABS*	00000000 stdio.c
00000000 l    df *ABS*	00000000 wbuf.c
00000000 l    df *ABS*	00000000 writer.c
00000000 l    df *ABS*	00000000 wsetup.c
00000000 l    df *ABS*	00000000 closer.c
00000000 l    df *ABS*	00000000 fclose.c
00000000 l    df *ABS*	00000000 fstatr.c
00000000 l    df *ABS*	00000000 isattyr.c
00000000 l    df *ABS*	00000000 lseekr.c
00000000 l    df *ABS*	00000000 readr.c
00000000 l    df *ABS*	00000000 alt_alarm_start.c
00000000 l    df *ABS*	00000000 alt_close.c
0080cb10 l     F .text	00000050 alt_get_errno
00000000 l    df *ABS*	00000000 alt_dev.c
0080cc30 l     F .text	0000002c alt_dev_null_write
00000000 l    df *ABS*	00000000 alt_errno.c
00000000 l    df *ABS*	00000000 alt_fstat.c
0080cc5c l     F .text	00000050 alt_get_errno
00000000 l    df *ABS*	00000000 alt_isatty.c
0080cd5c l     F .text	00000050 alt_get_errno
00000000 l    df *ABS*	00000000 alt_load.c
0080ce50 l     F .text	00000064 alt_load_section
00000000 l    df *ABS*	00000000 alt_lseek.c
0080cf34 l     F .text	00000050 alt_get_errno
00000000 l    df *ABS*	00000000 alt_main.c
00000000 l    df *ABS*	00000000 alt_malloc_lock.c
00000000 l    df *ABS*	00000000 alt_printf.c
00000000 l    df *ABS*	00000000 alt_putchar.c
00000000 l    df *ABS*	00000000 alt_read.c
0080d37c l     F .text	00000050 alt_get_errno
00000000 l    df *ABS*	00000000 alt_release_fd.c
00000000 l    df *ABS*	00000000 alt_sbrk.c
00812274 l     O .rwdata	00000004 heap_end
00000000 l    df *ABS*	00000000 alt_tick.c
00000000 l    df *ABS*	00000000 alt_write.c
0080d774 l     F .text	00000050 alt_get_errno
00000000 l    df *ABS*	00000000 alt_sys_init.c
0080d8bc l     F .text	00000038 alt_dev_reg
00811fd4 l     O .rwdata	0000002c jtag_uart_0
00812000 l     O .rwdata	00000120 lcd_display
00812120 l     O .rwdata	000000c4 uart
008121e4 l     O .rwdata	00000030 audio_i2c
00812214 l     O .rwdata	00000030 Audio
00000000 l    df *ABS*	00000000 altera_avalon_jtag_uart_fd.c
00000000 l    df *ABS*	00000000 altera_avalon_jtag_uart_read.c
00000000 l    df *ABS*	00000000 altera_avalon_jtag_uart_write.c
00000000 l    df *ABS*	00000000 altera_avalon_lcd_16207.c
00812280 l     O .rwdata	00000004 colstart
0080dbe4 l     F .text	000000b4 lcd_write_command
0080dc98 l     F .text	000000d4 lcd_write_data
0080dd6c l     F .text	000000cc lcd_clear_screen
0080de38 l     F .text	000001e8 lcd_repaint_screen
0080e020 l     F .text	000000c8 lcd_scroll_up
0080e0e8 l     F .text	000002a0 lcd_handle_escape
0080e870 l     F .text	000000ac alt_lcd_16207_timeout
00000000 l    df *ABS*	00000000 altera_avalon_lcd_16207_fd.c
00000000 l    df *ABS*	00000000 altera_avalon_uart_fd.c
00000000 l    df *ABS*	00000000 altera_avalon_uart_init.c
0080ec64 l     F .text	0000009c altera_avalon_uart_irq
0080ed00 l     F .text	000000e0 altera_avalon_uart_rxirq
0080ede0 l     F .text	00000144 altera_avalon_uart_txirq
00000000 l    df *ABS*	00000000 altera_avalon_uart_read.c
0080ef78 l     F .text	00000050 alt_get_errno
00000000 l    df *ABS*	00000000 altera_avalon_uart_write.c
0080f1a4 l     F .text	00000050 alt_get_errno
00000000 l    df *ABS*	00000000 altera_up_avalon_audio.c
00000000 l    df *ABS*	00000000 alt_dcache_flush_all.c
00000000 l    df *ABS*	00000000 alt_dev_llist_insert.c
0080fb78 l     F .text	00000050 alt_get_errno
00000000 l    df *ABS*	00000000 alt_do_ctors.c
00000000 l    df *ABS*	00000000 alt_do_dtors.c
00000000 l    df *ABS*	00000000 alt_find_dev.c
00000000 l    df *ABS*	00000000 alt_icache_flush_all.c
00000000 l    df *ABS*	00000000 alt_io_redirect.c
0080fde4 l     F .text	000000c0 alt_open_fd
00000000 l    df *ABS*	00000000 alt_irq_register.c
00000000 l    df *ABS*	00000000 alt_irq_vars.c
00000000 l    df *ABS*	00000000 alt_open.c
008100cc l     F .text	00000050 alt_get_errno
0081011c l     F .text	000000cc alt_file_locked
00000000 l    df *ABS*	00000000 alt_usleep.c
00000000 l    df *ABS*	00000000 altera_nios2_gen2_irq.c
00000000 l    df *ABS*	00000000 alt_busy_sleep.c
00000000 l    df *ABS*	00000000 alt_find_file.c
00000000 l    df *ABS*	00000000 alt_get_fd.c
00000000 l    df *ABS*	00000000 alt_icache_flush.c
00000000 l    df *ABS*	00000000 atexit.c
00000000 l    df *ABS*	00000000 ctype_.c
0081147d l     O .rodata	00000180 _ctype_b
00000000 l    df *ABS*	00000000 exit.c
00000000 l    df *ABS*	00000000 memcmp.c
00000000 l    df *ABS*	00000000 __atexit.c
00000000 l    df *ABS*	00000000 __call_atexit.c
00000000 l    df *ABS*	00000000 alt_exit.c
00812f68 g     O .bss	00000004 alt_instruction_exception_handler
0080b3e8 g     F .text	00000018 putchar
0080c8c4 g     F .text	00000054 _isatty_r
008077c8 g     F .text	000000d0 f_gets
0080d058 g     F .text	00000078 alt_main
0080b6cc g     F .text	00000090 strcpy
00812fac g     O .bss	00000230 Fatfs
00815758 g     O .bss	00000100 alt_irq
0080c918 g     F .text	0000005c _lseek_r
00801af8 g     F .text	00000284 get_fat
0081228c g       *ABS*	00000000 __flash_rwdata_start
0080f638 g     F .text	00000060 alt_up_audio_read_fifo_avail
00815858 g       *ABS*	00000000 __alt_heap_start
0080a0a4 g     F .text	00000038 uart0_put
008079a4 g     F .text	00000650 f_printf
0080f698 g     F .text	00000068 alt_up_audio_record_r
0080c3ac g     F .text	0000005c __sseek
0080bdd8 g     F .text	00000010 __sinit
0080c410 g     F .text	00000138 __swbuf_r
0080bc40 g     F .text	00000068 __sfmoreglue
0080d0f0 g     F .text	00000020 __malloc_unlock
008131dc g     O .bss	00000224 File1
0080f5a8 g     F .text	00000090 alt_up_audio_reset_audio_core
0080bdc0 g     F .text	00000018 _cleanup
00810370 g     F .text	00000020 altera_nios2_gen2_irq_init
00000000  w      *UND*	00000000 __errno
00800000 g     F .entry	0000001c __reset
00800020 g       *ABS*	00000000 __flash_exceptions_start
0080c86c g     F .text	00000058 _fstat_r
00812f4c g     O .bss	00000004 errno
0080b664 g     F .text	00000014 __srget
0080c328 g     F .text	00000008 __seofread
00800f08 g     F .text	0000016c ffs_DiskIOWrite
0080f568 g     F .text	00000040 alt_up_audio_write_interrupt_pending
00812f54 g     O .bss	00000004 alt_argv
0081a244 g       *ABS*	00000000 _gp
00810340 g     F .text	00000030 usleep
00811e54 g     O .rwdata	00000180 alt_fd_list
00813400 g     O .bss	00000018 Finfo
0080a8e4 g     F .text	00000070 _getc_r
0080a954 g     F .text	00000088 getc
0080b3e0 g     F .text	00000008 _putchar_r
00801074 g     F .text	000004a8 ffs_DiskIOIoctl
0080fd24 g     F .text	00000090 alt_find_dev
0080b184 g     F .text	00000138 memcpy
0080ba98 g     F .text	0000000c _cleanup_r
0080fea4 g     F .text	00000078 alt_io_redirect
00810b7c g       *ABS*	00000000 __DTOR_END__
0081073c g     F .text	0000009c alt_exception_cause_generated_bad_addr
008065f8 g     F .text	00000314 f_rename
0080fa80 g     F .text	00000050 alt_up_audio_read_fifo_head
0080da6c g     F .text	000000e4 altera_avalon_jtag_uart_read
00000000  w      *UND*	00000000 malloc
0080a250 g     F .text	00000008 .hidden __udivsi3
0080cdac g     F .text	000000a4 isatty
00812f38 g     O .bss	00000002 acc_dirs
00809a48 g     F .text	000001b8 xitoa
008106b0 g     F .text	0000008c alt_icache_flush
00812f48 g     O .bss	00000004 __malloc_top_pad
00805ba0 g     F .text	000001e8 f_truncate
0080970c g     F .text	00000284 xatoi
0080b678 g     F .text	00000054 _sbrk_r
00809eac g     F .text	0000011c put_dump
0080c974 g     F .text	0000005c _read_r
0081226c g     O .rwdata	00000004 alt_max_fd
0080fad0 g     F .text	00000064 alt_up_audio_write_fifo_head
0080c768 g     F .text	000000f0 _fclose_r
00812f3a g     O .bss	00000002 acc_files
0080ba58 g     F .text	00000030 fflush
00812f44 g     O .bss	00000004 __malloc_max_sbrked_mem
0080ff1c g     F .text	000001b0 alt_irq_register
0080cf84 g     F .text	000000d4 lseek
0081224c g     O .rwdata	00000004 _global_impure_ptr
00815858 g       *ABS*	00000000 __bss_end
0080d670 g     F .text	00000104 alt_tick
0080ebc4 g     F .text	000000a0 altera_avalon_uart_init
0080f3a0 g     F .text	00000040 alt_up_audio_open_dev
0080bdf8 g     F .text	00000018 __fp_lock_all
00805d88 g     F .text	00000218 f_unlink
0080f7c8 g     F .text	00000068 alt_up_audio_play_r
0080d5d8 g     F .text	00000098 alt_alarm_stop
00809c00 g     F .text	000002ac xprintf
00812f64 g     O .bss	00000004 alt_irq_active
00809fc8 g     F .text	000000bc get_line
008000fc g     F .exceptions	000000d4 alt_irq_handler
00811e2c g     O .rwdata	00000028 alt_dev_null
00807898 g     F .text	00000074 f_putc
0080790c g     F .text	00000098 f_puts
0080fb34 g     F .text	00000044 alt_dcache_flush_all
0081228c g       *ABS*	00000000 __ram_rwdata_end
00812264 g     O .rwdata	00000008 alt_dev_list
0080d7c4 g     F .text	000000f8 write
0080c168 g     F .text	000000a0 _putc_r
00811600 g       *ABS*	00000000 __ram_rodata_end
0080ccac g     F .text	000000b0 fstat
0080a258 g     F .text	00000008 .hidden __umodsi3
00815858 g       *ABS*	00000000 end
0080e388 g     F .text	000004e8 altera_avalon_lcd_16207_write
0080f1f4 g     F .text	000001ac altera_avalon_uart_write
008001d0 g     F .exceptions	00000074 alt_instruction_exception_entry
00810b7c g       *ABS*	00000000 __CTOR_LIST__
01000000 g       *ABS*	00000000 __alt_stack_pointer
0080eb14 g     F .text	00000060 altera_avalon_uart_write_fd
0080eb74 g     F .text	00000050 altera_avalon_uart_close_fd
0080db50 g     F .text	00000094 altera_avalon_jtag_uart_write
0080bde8 g     F .text	00000004 __sfp_lock_acquire
0080a5f4 g     F .text	000002f0 _free_r
0080d110 g     F .text	00000228 alt_printf
008099e0 g     F .text	00000068 xputs
008109b4 g     F .text	00000194 __call_exitprocs
0080b5f0 g     F .text	00000074 __srget_r
0080a084 g     F .text	00000020 uart0_init
00813418 g     O .bss	00002000 Buff
0080508c g     F .text	00000048 f_close
00812254 g     O .rwdata	00000004 __malloc_sbrk_base
00800244 g     F .text	0000004c _start
00812f5c g     O .bss	00000004 _alt_tick_rate
00808290 g     F .text	00000020 play_file
0080f978 g     F .text	00000108 alt_up_audio_write_fifo
00812f60 g     O .bss	00000004 _alt_nticks
0080d3cc g     F .text	000000fc read
0080d928 g     F .text	00000084 alt_sys_init
0080f898 g     F .text	000000e0 alt_up_audio_read_fifo
008108a0 g     F .text	00000114 __register_exitproc
008043a4 g     F .text	000004e4 f_read
0080f4d4 g     F .text	00000054 alt_up_audio_disable_write_interrupt
00805730 g     F .text	000000e4 f_readdir
00811600 g       *ABS*	00000000 __ram_rwdata_start
00800dec g     F .text	0000011c ffs_DiskIORead
00810b7c g       *ABS*	00000000 __ram_rodata_start
00812f84 g     O .bss	00000028 __malloc_current_mallinfo
008063e0 g     F .text	00000104 f_chmod
00815418 g     O .bss	00000224 File2
0080d9ac g     F .text	00000060 altera_avalon_jtag_uart_read_fd
008105fc g     F .text	000000b4 alt_get_fd
00800a60 g     F .text	00000108 ffs_DiskIOTimerproc
00810390 g     F .text	00000158 alt_busy_sleep
0080c714 g     F .text	00000054 _close_r
0080f484 g     F .text	00000050 alt_up_audio_enable_write_interrupt
00800b68 g     F .text	0000025c ffs_DiskIOInitialize
00810824 g     F .text	0000007c memcmp
00815858 g       *ABS*	00000000 __alt_stack_base
0080c5c0 g     F .text	00000154 __swsetup_r
0081563c g     O .bss	0000001c Dir
0080f430 g     F .text	00000054 alt_up_audio_disable_read_interrupt
0080bca8 g     F .text	00000118 __sfp
00811a24 g     O .rwdata	00000408 __malloc_av_
0080bdf4 g     F .text	00000004 __sinit_lock_release
0080c2d4 g     F .text	00000054 __sread
00812f3c g     O .bss	00000004 acc_size
0080151c g     F .text	0000002c get_fattime
0080a490 g     F .text	00000040 fread
008104e8 g     F .text	00000114 alt_find_file
0080fbc8 g     F .text	000000a4 alt_dev_llist_insert
0080d0d0 g     F .text	00000020 __malloc_lock
0080d528 g     F .text	000000b0 sbrk
0080b9fc g     F .text	0000005c _fflush_r
00812f18 g       *ABS*	00000000 __bss_start
0080b2bc g     F .text	00000124 memset
008082e0 g     F .text	0000142c main
0080f768 g     F .text	00000060 alt_up_audio_write_fifo_space
00812f58 g     O .bss	00000004 alt_envp
00812f40 g     O .bss	00000004 __malloc_max_total_mem
0080da0c g     F .text	00000060 altera_avalon_jtag_uart_write_fd
0080c548 g     F .text	0000001c __swbuf
00804e04 g     F .text	00000288 f_sync
0080a260 g     F .text	00000230 _fread_r
0080e91c g     F .text	00000138 altera_avalon_lcd_16207_init
0080c408 g     F .text	00000008 __sclose
01000000 g       *ABS*	00000000 __alt_heap_limit
0080c858 g     F .text	00000014 fclose
0080a9dc g     F .text	000007a8 _malloc_r
00815658 g     O .bss	00000100 Line
0080690c g     F .text	00000ebc f_mkfs
00812270 g     O .rwdata	00000004 alt_errno
00803e8c g     F .text	00000094 f_mount
0080be28 g     F .text	000000c4 _fwalk
008055c0 g     F .text	00000170 f_opendir
0080c208 g     F .text	000000cc putc
0080a1a0 g     F .text	00000054 .hidden __divsi3
0080a4d0 g     F .text	00000124 _malloc_trim_r
00810b7c g       *ABS*	00000000 __CTOR_END__
00810b7c g       *ABS*	00000000 __flash_rodata_start
00810b7c g       *ABS*	00000000 __DTOR_LIST__
00801d7c g     F .text	00000370 put_fat
00809990 g     F .text	00000050 xputc
0080d8f4 g     F .text	00000034 alt_irq_init
0080d4c8 g     F .text	00000060 alt_release_fd
008050d4 g     F .text	000004ec f_lseek
008107d8 g     F .text	00000014 atexit
0080c564 g     F .text	0000005c _write_r
00812250 g     O .rwdata	00000004 _impure_ptr
00812f50 g     O .bss	00000004 alt_argc
0080b7f4 g     F .text	00000208 __sflush_r
0080fcc8 g     F .text	0000005c _do_dtors
0080b41c g     F .text	000001d4 __srefill_r
00800000 g       *ABS*	00000000 __alt_mem_sdram_0
00800020 g       .exceptions	00000000 alt_irq_entry
00800dc4 g     F .text	00000028 ffs_DiskIOStatus
00805814 g     F .text	000000a0 f_stat
0080be10 g     F .text	00000018 __fp_unlock_all
0080ea54 g     F .text	00000060 altera_avalon_lcd_16207_write_fd
0081225c g     O .rwdata	00000008 alt_fs_list
0080f700 g     F .text	00000068 alt_up_audio_record_l
00800020 g       *ABS*	00000000 __ram_exceptions_start
00801a8c g     F .text	0000006c clust2sect
0081228c g       *ABS*	00000000 _edata
008064e4 g     F .text	00000114 f_utime
0080eab4 g     F .text	00000060 altera_avalon_uart_read_fd
00815858 g       *ABS*	00000000 _end
00800244 g       *ABS*	00000000 __ram_exceptions_end
00804888 g     F .text	0000057c f_write
0080f830 g     F .text	00000068 alt_up_audio_play_l
0080c330 g     F .text	0000007c __swrite
00812258 g     O .rwdata	00000004 __malloc_trim_threshold
00803f20 g     F .text	00000484 f_open
008107ec g     F .text	00000038 exit
0080beec g     F .text	000000c4 _fwalk_reent
0080a1f4 g     F .text	0000005c .hidden __modsi3
00812288 g     O .rwdata	00000004 __ctype_ptr__
01000000 g       *ABS*	00000000 __alt_data_end
00800020 g     F .exceptions	00000000 alt_exception
0080bdec g     F .text	00000004 __sfp_lock_release
0081137c g     O .rodata	00000101 _ctype_
0080a0dc g     F .text	00000058 uart0_get
00805fa0 g     F .text	00000440 f_mkdir
0080ef24 g     F .text	00000054 altera_avalon_uart_close
00810b48 g     F .text	00000034 _exit
00800290 g     F .text	00000024 ffs_Init
0080c9d0 g     F .text	00000140 alt_alarm_start
0080bfb0 g     F .text	000001b8 __smakebuf_r
0080b75c g     F .text	00000098 strlen
008101e8 g     F .text	00000158 open
0080d338 g     F .text	00000044 alt_putchar
0080fdb4 g     F .text	00000030 alt_icache_flush_all
008058b4 g     F .text	000002ec f_getfree
00812284 g     O .rwdata	00000004 alt_priority_mask
0080efc8 g     F .text	000001dc altera_avalon_uart_read
00800a34 g     F .text	0000002c ffs_DiskIOInit
00812278 g     O .rwdata	00000008 alt_alarm_list
0080fc6c g     F .text	0000005c _do_ctors
0080cb60 g     F .text	000000d0 close
0080ceb4 g     F .text	00000080 alt_load
0080f3e0 g     F .text	00000050 alt_up_audio_enable_read_interrupt
00000000  w      *UND*	00000000 free
0080bdf0 g     F .text	00000004 __sinit_lock_acquire
0080f528 g     F .text	00000040 alt_up_audio_read_interrupt_pending



Disassembly of section .entry:

00800000 <__reset>:
  800000:	00840014 	movui	r2,4096
  800004:	1001483a 	initi	r2
  800008:	10bff804 	addi	r2,r2,-32
  80000c:	00bffd16 	blt	zero,r2,800004 <__alt_data_end+0xff800004>
  800010:	00402034 	movhi	at,128
  800014:	08409114 	ori	at,at,580
  800018:	0800683a 	jmp	at
  80001c:	00000000 	call	0 <__reset-0x800000>

Disassembly of section .exceptions:

00800020 <alt_exception>:
  800020:	deffed04 	addi	sp,sp,-76
  800024:	dfc00015 	stw	ra,0(sp)
  800028:	d8400215 	stw	at,8(sp)
  80002c:	d8800315 	stw	r2,12(sp)
  800030:	d8c00415 	stw	r3,16(sp)
  800034:	d9000515 	stw	r4,20(sp)
  800038:	d9400615 	stw	r5,24(sp)
  80003c:	d9800715 	stw	r6,28(sp)
  800040:	d9c00815 	stw	r7,32(sp)
  800044:	000b307a 	rdctl	r5,estatus
  800048:	da000915 	stw	r8,36(sp)
  80004c:	da400a15 	stw	r9,40(sp)
  800050:	da800b15 	stw	r10,44(sp)
  800054:	dac00c15 	stw	r11,48(sp)
  800058:	db000d15 	stw	r12,52(sp)
  80005c:	db400e15 	stw	r13,56(sp)
  800060:	db800f15 	stw	r14,60(sp)
  800064:	dbc01015 	stw	r15,64(sp)
  800068:	d9401115 	stw	r5,68(sp)
  80006c:	ebffff04 	addi	r15,ea,-4
  800070:	dbc01215 	stw	r15,72(sp)
  800074:	0009313a 	rdctl	r4,ipending
  800078:	2880004c 	andi	r2,r5,1
  80007c:	10000326 	beq	r2,zero,80008c <alt_exception+0x6c>
  800080:	20000226 	beq	r4,zero,80008c <alt_exception+0x6c>
  800084:	08000fc0 	call	8000fc <alt_irq_handler>
  800088:	00000706 	br	8000a8 <alt_exception+0x88>
  80008c:	df401215 	stw	ea,72(sp)
  800090:	e8bfff17 	ldw	r2,-4(ea)
  800094:	e93fff04 	addi	r4,ea,-4
  800098:	08001d00 	call	8001d0 <alt_instruction_exception_entry>
  80009c:	1000021e 	bne	r2,zero,8000a8 <alt_exception+0x88>
  8000a0:	ebffff04 	addi	r15,ea,-4
  8000a4:	dbc01215 	stw	r15,72(sp)
  8000a8:	d9401117 	ldw	r5,68(sp)
  8000ac:	df401217 	ldw	ea,72(sp)
  8000b0:	dfc00017 	ldw	ra,0(sp)
  8000b4:	2801707a 	wrctl	estatus,r5
  8000b8:	d8400217 	ldw	at,8(sp)
  8000bc:	d8800317 	ldw	r2,12(sp)
  8000c0:	d8c00417 	ldw	r3,16(sp)
  8000c4:	d9000517 	ldw	r4,20(sp)
  8000c8:	d9400617 	ldw	r5,24(sp)
  8000cc:	d9800717 	ldw	r6,28(sp)
  8000d0:	d9c00817 	ldw	r7,32(sp)
  8000d4:	da000917 	ldw	r8,36(sp)
  8000d8:	da400a17 	ldw	r9,40(sp)
  8000dc:	da800b17 	ldw	r10,44(sp)
  8000e0:	dac00c17 	ldw	r11,48(sp)
  8000e4:	db000d17 	ldw	r12,52(sp)
  8000e8:	db400e17 	ldw	r13,56(sp)
  8000ec:	db800f17 	ldw	r14,60(sp)
  8000f0:	dbc01017 	ldw	r15,64(sp)
  8000f4:	dec01304 	addi	sp,sp,76
  8000f8:	ef80083a 	eret

008000fc <alt_irq_handler>:
  8000fc:	defff904 	addi	sp,sp,-28
  800100:	dfc00615 	stw	ra,24(sp)
  800104:	df000515 	stw	fp,20(sp)
  800108:	df000504 	addi	fp,sp,20
  80010c:	0001883a 	nop
  800110:	0005313a 	rdctl	r2,ipending
  800114:	e0bffe15 	stw	r2,-8(fp)
  800118:	e0bffe17 	ldw	r2,-8(fp)
  80011c:	e0bffb15 	stw	r2,-20(fp)
  800120:	e03ffd15 	stw	zero,-12(fp)
  800124:	00800044 	movi	r2,1
  800128:	e0bffc15 	stw	r2,-16(fp)
  80012c:	e0fffb17 	ldw	r3,-20(fp)
  800130:	e0bffc17 	ldw	r2,-16(fp)
  800134:	1884703a 	and	r2,r3,r2
  800138:	10001526 	beq	r2,zero,800190 <alt_irq_handler+0x94>
  80013c:	00802074 	movhi	r2,129
  800140:	1095d604 	addi	r2,r2,22360
  800144:	e0fffd17 	ldw	r3,-12(fp)
  800148:	180690fa 	slli	r3,r3,3
  80014c:	10c5883a 	add	r2,r2,r3
  800150:	10c00017 	ldw	r3,0(r2)
  800154:	00802074 	movhi	r2,129
  800158:	1095d604 	addi	r2,r2,22360
  80015c:	e13ffd17 	ldw	r4,-12(fp)
  800160:	200890fa 	slli	r4,r4,3
  800164:	21000104 	addi	r4,r4,4
  800168:	1105883a 	add	r2,r2,r4
  80016c:	10800017 	ldw	r2,0(r2)
  800170:	1009883a 	mov	r4,r2
  800174:	e17ffd17 	ldw	r5,-12(fp)
  800178:	183ee83a 	callr	r3
  80017c:	0001883a 	nop
  800180:	0005313a 	rdctl	r2,ipending
  800184:	e0bfff15 	stw	r2,-4(fp)
  800188:	e0bfff17 	ldw	r2,-4(fp)
  80018c:	00000706 	br	8001ac <alt_irq_handler+0xb0>
  800190:	e0bffc17 	ldw	r2,-16(fp)
  800194:	1085883a 	add	r2,r2,r2
  800198:	e0bffc15 	stw	r2,-16(fp)
  80019c:	e0bffd17 	ldw	r2,-12(fp)
  8001a0:	10800044 	addi	r2,r2,1
  8001a4:	e0bffd15 	stw	r2,-12(fp)
  8001a8:	003fe006 	br	80012c <__alt_data_end+0xff80012c>
  8001ac:	e0bffb15 	stw	r2,-20(fp)
  8001b0:	e0bffb17 	ldw	r2,-20(fp)
  8001b4:	103fda1e 	bne	r2,zero,800120 <__alt_data_end+0xff800120>
  8001b8:	0001883a 	nop
  8001bc:	e037883a 	mov	sp,fp
  8001c0:	dfc00117 	ldw	ra,4(sp)
  8001c4:	df000017 	ldw	fp,0(sp)
  8001c8:	dec00204 	addi	sp,sp,8
  8001cc:	f800283a 	ret

008001d0 <alt_instruction_exception_entry>:
  8001d0:	defffb04 	addi	sp,sp,-20
  8001d4:	dfc00415 	stw	ra,16(sp)
  8001d8:	df000315 	stw	fp,12(sp)
  8001dc:	df000304 	addi	fp,sp,12
  8001e0:	e13fff15 	stw	r4,-4(fp)
  8001e4:	000531fa 	rdctl	r2,exception
  8001e8:	e0bffd15 	stw	r2,-12(fp)
  8001ec:	e0bffd17 	ldw	r2,-12(fp)
  8001f0:	10801f0c 	andi	r2,r2,124
  8001f4:	1004d0ba 	srli	r2,r2,2
  8001f8:	e0bffd15 	stw	r2,-12(fp)
  8001fc:	0005333a 	rdctl	r2,badaddr
  800200:	e0bffe15 	stw	r2,-8(fp)
  800204:	d0a34917 	ldw	r2,-29404(gp)
  800208:	10000726 	beq	r2,zero,800228 <alt_instruction_exception_entry+0x58>
  80020c:	d0a34917 	ldw	r2,-29404(gp)
  800210:	e0fffd17 	ldw	r3,-12(fp)
  800214:	1809883a 	mov	r4,r3
  800218:	e17fff17 	ldw	r5,-4(fp)
  80021c:	e1bffe17 	ldw	r6,-8(fp)
  800220:	103ee83a 	callr	r2
  800224:	00000206 	br	800230 <alt_instruction_exception_entry+0x60>
  800228:	003da03a 	break	0
  80022c:	0005883a 	mov	r2,zero
  800230:	e037883a 	mov	sp,fp
  800234:	dfc00117 	ldw	ra,4(sp)
  800238:	df000017 	ldw	fp,0(sp)
  80023c:	dec00204 	addi	sp,sp,8
  800240:	f800283a 	ret

Disassembly of section .text:

00800244 <_start>:
  800244:	00820014 	movui	r2,2048
  800248:	10000033 	initd	0(r2)
  80024c:	10bff804 	addi	r2,r2,-32
  800250:	00bffd16 	blt	zero,r2,800248 <__alt_data_end+0xff800248>
  800254:	06c04034 	movhi	sp,256
  800258:	dec00014 	ori	sp,sp,0
  80025c:	06802074 	movhi	gp,129
  800260:	d6a89114 	ori	gp,gp,41540
  800264:	00802074 	movhi	r2,129
  800268:	108bc614 	ori	r2,r2,12056
  80026c:	00c02074 	movhi	r3,129
  800270:	18d61614 	ori	r3,r3,22616
  800274:	10c00326 	beq	r2,r3,800284 <_start+0x40>
  800278:	10000015 	stw	zero,0(r2)
  80027c:	10800104 	addi	r2,r2,4
  800280:	10fffd36 	bltu	r2,r3,800278 <__alt_data_end+0xff800278>
  800284:	080ceb40 	call	80ceb4 <alt_load>
  800288:	080d0580 	call	80d058 <alt_main>

0080028c <alt_after_alt_main>:
  80028c:	003fff06 	br	80028c <__alt_data_end+0xff80028c>

00800290 <ffs_Init>:
  800290:	defffe04 	addi	sp,sp,-8
  800294:	df000115 	stw	fp,4(sp)
  800298:	df000104 	addi	fp,sp,4
  80029c:	e03fff0d 	sth	zero,-4(fp)
  8002a0:	e0bfff0b 	ldhu	r2,-4(fp)
  8002a4:	e037883a 	mov	sp,fp
  8002a8:	df000017 	ldw	fp,0(sp)
  8002ac:	dec00104 	addi	sp,sp,4
  8002b0:	f800283a 	ret

008002b4 <SetLowSpeed>:
  8002b4:	deffff04 	addi	sp,sp,-4
  8002b8:	df000015 	stw	fp,0(sp)
  8002bc:	d839883a 	mov	fp,sp
  8002c0:	d0e33717 	ldw	r3,-29476(gp)
  8002c4:	00bffff4 	movhi	r2,65535
  8002c8:	10803fc4 	addi	r2,r2,255
  8002cc:	1884703a 	and	r2,r3,r2
  8002d0:	d0a33715 	stw	r2,-29476(gp)
  8002d4:	d0a33717 	ldw	r2,-29476(gp)
  8002d8:	10be4014 	ori	r2,r2,63744
  8002dc:	d0a33715 	stw	r2,-29476(gp)
  8002e0:	00a04034 	movhi	r2,33024
  8002e4:	10841204 	addi	r2,r2,4168
  8002e8:	d0e33717 	ldw	r3,-29476(gp)
  8002ec:	10c00015 	stw	r3,0(r2)
  8002f0:	e037883a 	mov	sp,fp
  8002f4:	df000017 	ldw	fp,0(sp)
  8002f8:	dec00104 	addi	sp,sp,4
  8002fc:	f800283a 	ret

00800300 <SetHighSpeed>:
  800300:	deffff04 	addi	sp,sp,-4
  800304:	df000015 	stw	fp,0(sp)
  800308:	d839883a 	mov	fp,sp
  80030c:	d0e33717 	ldw	r3,-29476(gp)
  800310:	00bffff4 	movhi	r2,65535
  800314:	10803fc4 	addi	r2,r2,255
  800318:	1884703a 	and	r2,r3,r2
  80031c:	d0a33715 	stw	r2,-29476(gp)
  800320:	d0a33503 	ldbu	r2,-29484(gp)
  800324:	10803fcc 	andi	r2,r2,255
  800328:	1080004c 	andi	r2,r2,1
  80032c:	1000041e 	bne	r2,zero,800340 <SetHighSpeed+0x40>
  800330:	d0a33717 	ldw	r2,-29476(gp)
  800334:	10804014 	ori	r2,r2,256
  800338:	d0a33715 	stw	r2,-29476(gp)
  80033c:	00000306 	br	80034c <SetHighSpeed+0x4c>
  800340:	d0a33717 	ldw	r2,-29476(gp)
  800344:	10808014 	ori	r2,r2,512
  800348:	d0a33715 	stw	r2,-29476(gp)
  80034c:	00a04034 	movhi	r2,33024
  800350:	10841204 	addi	r2,r2,4168
  800354:	d0e33717 	ldw	r3,-29476(gp)
  800358:	10c00015 	stw	r3,0(r2)
  80035c:	e037883a 	mov	sp,fp
  800360:	df000017 	ldw	fp,0(sp)
  800364:	dec00104 	addi	sp,sp,4
  800368:	f800283a 	ret

0080036c <InitDiskIOHardware>:
  80036c:	defffe04 	addi	sp,sp,-8
  800370:	dfc00115 	stw	ra,4(sp)
  800374:	df000015 	stw	fp,0(sp)
  800378:	d839883a 	mov	fp,sp
  80037c:	d0a33717 	ldw	r2,-29476(gp)
  800380:	10800054 	ori	r2,r2,1
  800384:	d0a33715 	stw	r2,-29476(gp)
  800388:	00a04034 	movhi	r2,33024
  80038c:	10841204 	addi	r2,r2,4168
  800390:	d0e33717 	ldw	r3,-29476(gp)
  800394:	10c00015 	stw	r3,0(r2)
  800398:	08002b40 	call	8002b4 <SetLowSpeed>
  80039c:	e037883a 	mov	sp,fp
  8003a0:	dfc00117 	ldw	ra,4(sp)
  8003a4:	df000017 	ldw	fp,0(sp)
  8003a8:	dec00204 	addi	sp,sp,8
  8003ac:	f800283a 	ret

008003b0 <Set8BitTransfer>:
  8003b0:	deffff04 	addi	sp,sp,-4
  8003b4:	df000015 	stw	fp,0(sp)
  8003b8:	d839883a 	mov	fp,sp
  8003bc:	d0e33717 	ldw	r3,-29476(gp)
  8003c0:	00bfff44 	movi	r2,-3
  8003c4:	1884703a 	and	r2,r3,r2
  8003c8:	d0a33715 	stw	r2,-29476(gp)
  8003cc:	00a04034 	movhi	r2,33024
  8003d0:	10841204 	addi	r2,r2,4168
  8003d4:	d0e33717 	ldw	r3,-29476(gp)
  8003d8:	10c00015 	stw	r3,0(r2)
  8003dc:	e037883a 	mov	sp,fp
  8003e0:	df000017 	ldw	fp,0(sp)
  8003e4:	dec00104 	addi	sp,sp,4
  8003e8:	f800283a 	ret

008003ec <Set32BitTransfer>:
  8003ec:	deffff04 	addi	sp,sp,-4
  8003f0:	df000015 	stw	fp,0(sp)
  8003f4:	d839883a 	mov	fp,sp
  8003f8:	d0a33717 	ldw	r2,-29476(gp)
  8003fc:	10800094 	ori	r2,r2,2
  800400:	d0a33715 	stw	r2,-29476(gp)
  800404:	00a04034 	movhi	r2,33024
  800408:	10841204 	addi	r2,r2,4168
  80040c:	d0e33717 	ldw	r3,-29476(gp)
  800410:	10c00015 	stw	r3,0(r2)
  800414:	e037883a 	mov	sp,fp
  800418:	df000017 	ldw	fp,0(sp)
  80041c:	dec00104 	addi	sp,sp,4
  800420:	f800283a 	ret

00800424 <ReceiveU8>:
  800424:	deffff04 	addi	sp,sp,-4
  800428:	df000015 	stw	fp,0(sp)
  80042c:	d839883a 	mov	fp,sp
  800430:	00a04034 	movhi	r2,33024
  800434:	10841004 	addi	r2,r2,4160
  800438:	00c03fc4 	movi	r3,255
  80043c:	10c00015 	stw	r3,0(r2)
  800440:	0001883a 	nop
  800444:	00a04034 	movhi	r2,33024
  800448:	10841304 	addi	r2,r2,4172
  80044c:	10800017 	ldw	r2,0(r2)
  800450:	1080004c 	andi	r2,r2,1
  800454:	103ffb26 	beq	r2,zero,800444 <__alt_data_end+0xff800444>
  800458:	00a04034 	movhi	r2,33024
  80045c:	10841104 	addi	r2,r2,4164
  800460:	10800017 	ldw	r2,0(r2)
  800464:	e037883a 	mov	sp,fp
  800468:	df000017 	ldw	fp,0(sp)
  80046c:	dec00104 	addi	sp,sp,4
  800470:	f800283a 	ret

00800474 <ReceiveDatablock>:
  800474:	defff904 	addi	sp,sp,-28
  800478:	dfc00615 	stw	ra,24(sp)
  80047c:	df000515 	stw	fp,20(sp)
  800480:	df000504 	addi	fp,sp,20
  800484:	e13ffe15 	stw	r4,-8(fp)
  800488:	e17fff15 	stw	r5,-4(fp)
  80048c:	e0bffe17 	ldw	r2,-8(fp)
  800490:	e0bffc15 	stw	r2,-16(fp)
  800494:	00800284 	movi	r2,10
  800498:	d0a3358d 	sth	r2,-29482(gp)
  80049c:	08004240 	call	800424 <ReceiveU8>
  8004a0:	e0bffd05 	stb	r2,-12(fp)
  8004a4:	e0bffd03 	ldbu	r2,-12(fp)
  8004a8:	10803fd8 	cmpnei	r2,r2,255
  8004ac:	1000031e 	bne	r2,zero,8004bc <ReceiveDatablock+0x48>
  8004b0:	d0a3358b 	ldhu	r2,-29482(gp)
  8004b4:	10bfffcc 	andi	r2,r2,65535
  8004b8:	103ff81e 	bne	r2,zero,80049c <__alt_data_end+0xff80049c>
  8004bc:	e0bffd03 	ldbu	r2,-12(fp)
  8004c0:	10803fa0 	cmpeqi	r2,r2,254
  8004c4:	1000021e 	bne	r2,zero,8004d0 <ReceiveDatablock+0x5c>
  8004c8:	0005883a 	mov	r2,zero
  8004cc:	00002f06 	br	80058c <ReceiveDatablock+0x118>
  8004d0:	08003ec0 	call	8003ec <Set32BitTransfer>
  8004d4:	e0bfff17 	ldw	r2,-4(fp)
  8004d8:	1004d0fa 	srli	r2,r2,3
  8004dc:	e0bffb05 	stb	r2,-20(fp)
  8004e0:	00a04034 	movhi	r2,33024
  8004e4:	10841004 	addi	r2,r2,4160
  8004e8:	00ffffc4 	movi	r3,-1
  8004ec:	10c00015 	stw	r3,0(r2)
  8004f0:	0001883a 	nop
  8004f4:	00a04034 	movhi	r2,33024
  8004f8:	10841304 	addi	r2,r2,4172
  8004fc:	10800017 	ldw	r2,0(r2)
  800500:	1080004c 	andi	r2,r2,1
  800504:	103ffb26 	beq	r2,zero,8004f4 <__alt_data_end+0xff8004f4>
  800508:	e0fffc17 	ldw	r3,-16(fp)
  80050c:	18800104 	addi	r2,r3,4
  800510:	e0bffc15 	stw	r2,-16(fp)
  800514:	00a04034 	movhi	r2,33024
  800518:	10841104 	addi	r2,r2,4164
  80051c:	10800017 	ldw	r2,0(r2)
  800520:	18800015 	stw	r2,0(r3)
  800524:	00a04034 	movhi	r2,33024
  800528:	10841004 	addi	r2,r2,4160
  80052c:	00ffffc4 	movi	r3,-1
  800530:	10c00015 	stw	r3,0(r2)
  800534:	0001883a 	nop
  800538:	00a04034 	movhi	r2,33024
  80053c:	10841304 	addi	r2,r2,4172
  800540:	10800017 	ldw	r2,0(r2)
  800544:	1080004c 	andi	r2,r2,1
  800548:	103ffb26 	beq	r2,zero,800538 <__alt_data_end+0xff800538>
  80054c:	e0fffc17 	ldw	r3,-16(fp)
  800550:	18800104 	addi	r2,r3,4
  800554:	e0bffc15 	stw	r2,-16(fp)
  800558:	00a04034 	movhi	r2,33024
  80055c:	10841104 	addi	r2,r2,4164
  800560:	10800017 	ldw	r2,0(r2)
  800564:	18800015 	stw	r2,0(r3)
  800568:	e0bffb03 	ldbu	r2,-20(fp)
  80056c:	10bfffc4 	addi	r2,r2,-1
  800570:	e0bffb05 	stb	r2,-20(fp)
  800574:	e0bffb03 	ldbu	r2,-20(fp)
  800578:	103fd91e 	bne	r2,zero,8004e0 <__alt_data_end+0xff8004e0>
  80057c:	08003b00 	call	8003b0 <Set8BitTransfer>
  800580:	08004240 	call	800424 <ReceiveU8>
  800584:	08004240 	call	800424 <ReceiveU8>
  800588:	00800044 	movi	r2,1
  80058c:	e037883a 	mov	sp,fp
  800590:	dfc00117 	ldw	ra,4(sp)
  800594:	df000017 	ldw	fp,0(sp)
  800598:	dec00204 	addi	sp,sp,8
  80059c:	f800283a 	ret

008005a0 <TransmitDatablock>:
  8005a0:	defff904 	addi	sp,sp,-28
  8005a4:	dfc00615 	stw	ra,24(sp)
  8005a8:	df000515 	stw	fp,20(sp)
  8005ac:	df000504 	addi	fp,sp,20
  8005b0:	e13ffe15 	stw	r4,-8(fp)
  8005b4:	2805883a 	mov	r2,r5
  8005b8:	e0bfff05 	stb	r2,-4(fp)
  8005bc:	e03ffb05 	stb	zero,-20(fp)
  8005c0:	e0bffe17 	ldw	r2,-8(fp)
  8005c4:	e0bffc15 	stw	r2,-16(fp)
  8005c8:	080074c0 	call	80074c <WaitReady>
  8005cc:	10803fcc 	andi	r2,r2,255
  8005d0:	10803fe0 	cmpeqi	r2,r2,255
  8005d4:	1000021e 	bne	r2,zero,8005e0 <TransmitDatablock+0x40>
  8005d8:	0005883a 	mov	r2,zero
  8005dc:	00004d06 	br	800714 <TransmitDatablock+0x174>
  8005e0:	00a04034 	movhi	r2,33024
  8005e4:	10841004 	addi	r2,r2,4160
  8005e8:	e0ffff03 	ldbu	r3,-4(fp)
  8005ec:	10c00015 	stw	r3,0(r2)
  8005f0:	0001883a 	nop
  8005f4:	00a04034 	movhi	r2,33024
  8005f8:	10841304 	addi	r2,r2,4172
  8005fc:	10800017 	ldw	r2,0(r2)
  800600:	1080004c 	andi	r2,r2,1
  800604:	103ffb26 	beq	r2,zero,8005f4 <__alt_data_end+0xff8005f4>
  800608:	e0bfff03 	ldbu	r2,-4(fp)
  80060c:	10803f60 	cmpeqi	r2,r2,253
  800610:	10003f1e 	bne	r2,zero,800710 <TransmitDatablock+0x170>
  800614:	00801004 	movi	r2,64
  800618:	e0bffb05 	stb	r2,-20(fp)
  80061c:	08003ec0 	call	8003ec <Set32BitTransfer>
  800620:	00a04034 	movhi	r2,33024
  800624:	10841004 	addi	r2,r2,4160
  800628:	e0fffc17 	ldw	r3,-16(fp)
  80062c:	19000104 	addi	r4,r3,4
  800630:	e13ffc15 	stw	r4,-16(fp)
  800634:	18c00017 	ldw	r3,0(r3)
  800638:	10c00015 	stw	r3,0(r2)
  80063c:	0001883a 	nop
  800640:	00a04034 	movhi	r2,33024
  800644:	10841304 	addi	r2,r2,4172
  800648:	10800017 	ldw	r2,0(r2)
  80064c:	1080004c 	andi	r2,r2,1
  800650:	103ffb26 	beq	r2,zero,800640 <__alt_data_end+0xff800640>
  800654:	00a04034 	movhi	r2,33024
  800658:	10841004 	addi	r2,r2,4160
  80065c:	e0fffc17 	ldw	r3,-16(fp)
  800660:	19000104 	addi	r4,r3,4
  800664:	e13ffc15 	stw	r4,-16(fp)
  800668:	18c00017 	ldw	r3,0(r3)
  80066c:	10c00015 	stw	r3,0(r2)
  800670:	0001883a 	nop
  800674:	00a04034 	movhi	r2,33024
  800678:	10841304 	addi	r2,r2,4172
  80067c:	10800017 	ldw	r2,0(r2)
  800680:	1080004c 	andi	r2,r2,1
  800684:	103ffb26 	beq	r2,zero,800674 <__alt_data_end+0xff800674>
  800688:	e0bffb03 	ldbu	r2,-20(fp)
  80068c:	10bfffc4 	addi	r2,r2,-1
  800690:	e0bffb05 	stb	r2,-20(fp)
  800694:	e0bffb03 	ldbu	r2,-20(fp)
  800698:	103fe11e 	bne	r2,zero,800620 <__alt_data_end+0xff800620>
  80069c:	08003b00 	call	8003b0 <Set8BitTransfer>
  8006a0:	00a04034 	movhi	r2,33024
  8006a4:	10841004 	addi	r2,r2,4160
  8006a8:	00c03fc4 	movi	r3,255
  8006ac:	10c00015 	stw	r3,0(r2)
  8006b0:	0001883a 	nop
  8006b4:	00a04034 	movhi	r2,33024
  8006b8:	10841304 	addi	r2,r2,4172
  8006bc:	10800017 	ldw	r2,0(r2)
  8006c0:	1080004c 	andi	r2,r2,1
  8006c4:	103ffb26 	beq	r2,zero,8006b4 <__alt_data_end+0xff8006b4>
  8006c8:	00a04034 	movhi	r2,33024
  8006cc:	10841004 	addi	r2,r2,4160
  8006d0:	00c03fc4 	movi	r3,255
  8006d4:	10c00015 	stw	r3,0(r2)
  8006d8:	0001883a 	nop
  8006dc:	00a04034 	movhi	r2,33024
  8006e0:	10841304 	addi	r2,r2,4172
  8006e4:	10800017 	ldw	r2,0(r2)
  8006e8:	1080004c 	andi	r2,r2,1
  8006ec:	103ffb26 	beq	r2,zero,8006dc <__alt_data_end+0xff8006dc>
  8006f0:	08004240 	call	800424 <ReceiveU8>
  8006f4:	e0bffd05 	stb	r2,-12(fp)
  8006f8:	e0bffd03 	ldbu	r2,-12(fp)
  8006fc:	108007cc 	andi	r2,r2,31
  800700:	10800160 	cmpeqi	r2,r2,5
  800704:	1000021e 	bne	r2,zero,800710 <TransmitDatablock+0x170>
  800708:	0005883a 	mov	r2,zero
  80070c:	00000106 	br	800714 <TransmitDatablock+0x174>
  800710:	00800044 	movi	r2,1
  800714:	e037883a 	mov	sp,fp
  800718:	dfc00117 	ldw	ra,4(sp)
  80071c:	df000017 	ldw	fp,0(sp)
  800720:	dec00204 	addi	sp,sp,8
  800724:	f800283a 	ret

00800728 <GetCDWP>:
  800728:	defffe04 	addi	sp,sp,-8
  80072c:	df000115 	stw	fp,4(sp)
  800730:	df000104 	addi	fp,sp,4
  800734:	e03fff15 	stw	zero,-4(fp)
  800738:	e0bfff17 	ldw	r2,-4(fp)
  80073c:	e037883a 	mov	sp,fp
  800740:	df000017 	ldw	fp,0(sp)
  800744:	dec00104 	addi	sp,sp,4
  800748:	f800283a 	ret

0080074c <WaitReady>:
  80074c:	defffd04 	addi	sp,sp,-12
  800750:	dfc00215 	stw	ra,8(sp)
  800754:	df000115 	stw	fp,4(sp)
  800758:	df000104 	addi	fp,sp,4
  80075c:	00800c84 	movi	r2,50
  800760:	d0a3360d 	sth	r2,-29480(gp)
  800764:	08004240 	call	800424 <ReceiveU8>
  800768:	08004240 	call	800424 <ReceiveU8>
  80076c:	e0bfff05 	stb	r2,-4(fp)
  800770:	e0bfff03 	ldbu	r2,-4(fp)
  800774:	10803fe0 	cmpeqi	r2,r2,255
  800778:	1000031e 	bne	r2,zero,800788 <WaitReady+0x3c>
  80077c:	d0a3360b 	ldhu	r2,-29480(gp)
  800780:	10bfffcc 	andi	r2,r2,65535
  800784:	103ff81e 	bne	r2,zero,800768 <__alt_data_end+0xff800768>
  800788:	e0bfff03 	ldbu	r2,-4(fp)
  80078c:	e037883a 	mov	sp,fp
  800790:	dfc00117 	ldw	ra,4(sp)
  800794:	df000017 	ldw	fp,0(sp)
  800798:	dec00204 	addi	sp,sp,8
  80079c:	f800283a 	ret

008007a0 <ReleaseBus>:
  8007a0:	defffe04 	addi	sp,sp,-8
  8007a4:	dfc00115 	stw	ra,4(sp)
  8007a8:	df000015 	stw	fp,0(sp)
  8007ac:	d839883a 	mov	fp,sp
  8007b0:	d0a33717 	ldw	r2,-29476(gp)
  8007b4:	10800054 	ori	r2,r2,1
  8007b8:	d0a33715 	stw	r2,-29476(gp)
  8007bc:	00a04034 	movhi	r2,33024
  8007c0:	10841204 	addi	r2,r2,4168
  8007c4:	d0e33717 	ldw	r3,-29476(gp)
  8007c8:	10c00015 	stw	r3,0(r2)
  8007cc:	08004240 	call	800424 <ReceiveU8>
  8007d0:	e037883a 	mov	sp,fp
  8007d4:	dfc00117 	ldw	ra,4(sp)
  8007d8:	df000017 	ldw	fp,0(sp)
  8007dc:	dec00204 	addi	sp,sp,8
  8007e0:	f800283a 	ret

008007e4 <SendCMD>:
  8007e4:	defffb04 	addi	sp,sp,-20
  8007e8:	dfc00415 	stw	ra,16(sp)
  8007ec:	df000315 	stw	fp,12(sp)
  8007f0:	df000304 	addi	fp,sp,12
  8007f4:	2005883a 	mov	r2,r4
  8007f8:	e17fff15 	stw	r5,-4(fp)
  8007fc:	e0bffe05 	stb	r2,-8(fp)
  800800:	e0bffe03 	ldbu	r2,-8(fp)
  800804:	10803fcc 	andi	r2,r2,255
  800808:	1080201c 	xori	r2,r2,128
  80080c:	10bfe004 	addi	r2,r2,-128
  800810:	10000c0e 	bge	r2,zero,800844 <SendCMD+0x60>
  800814:	e0bffe03 	ldbu	r2,-8(fp)
  800818:	10801fcc 	andi	r2,r2,127
  80081c:	e0bffe05 	stb	r2,-8(fp)
  800820:	01001dc4 	movi	r4,119
  800824:	000b883a 	mov	r5,zero
  800828:	08007e40 	call	8007e4 <SendCMD>
  80082c:	e0bffd45 	stb	r2,-11(fp)
  800830:	e0bffd43 	ldbu	r2,-11(fp)
  800834:	108000b0 	cmpltui	r2,r2,2
  800838:	1000021e 	bne	r2,zero,800844 <SendCMD+0x60>
  80083c:	e0bffd43 	ldbu	r2,-11(fp)
  800840:	00007706 	br	800a20 <SendCMD+0x23c>
  800844:	d0a33717 	ldw	r2,-29476(gp)
  800848:	10800054 	ori	r2,r2,1
  80084c:	d0a33715 	stw	r2,-29476(gp)
  800850:	00a04034 	movhi	r2,33024
  800854:	10841204 	addi	r2,r2,4168
  800858:	d0e33717 	ldw	r3,-29476(gp)
  80085c:	10c00015 	stw	r3,0(r2)
  800860:	d0e33717 	ldw	r3,-29476(gp)
  800864:	00bfff84 	movi	r2,-2
  800868:	1884703a 	and	r2,r3,r2
  80086c:	d0a33715 	stw	r2,-29476(gp)
  800870:	00a04034 	movhi	r2,33024
  800874:	10841204 	addi	r2,r2,4168
  800878:	d0e33717 	ldw	r3,-29476(gp)
  80087c:	10c00015 	stw	r3,0(r2)
  800880:	080074c0 	call	80074c <WaitReady>
  800884:	10803fcc 	andi	r2,r2,255
  800888:	10803fe0 	cmpeqi	r2,r2,255
  80088c:	1000021e 	bne	r2,zero,800898 <SendCMD+0xb4>
  800890:	00bfffc4 	movi	r2,-1
  800894:	00006206 	br	800a20 <SendCMD+0x23c>
  800898:	00a04034 	movhi	r2,33024
  80089c:	10841004 	addi	r2,r2,4160
  8008a0:	e0fffe03 	ldbu	r3,-8(fp)
  8008a4:	10c00015 	stw	r3,0(r2)
  8008a8:	0001883a 	nop
  8008ac:	00a04034 	movhi	r2,33024
  8008b0:	10841304 	addi	r2,r2,4172
  8008b4:	10800017 	ldw	r2,0(r2)
  8008b8:	1080004c 	andi	r2,r2,1
  8008bc:	103ffb26 	beq	r2,zero,8008ac <__alt_data_end+0xff8008ac>
  8008c0:	00a04034 	movhi	r2,33024
  8008c4:	10841004 	addi	r2,r2,4160
  8008c8:	e0ffff17 	ldw	r3,-4(fp)
  8008cc:	1806d63a 	srli	r3,r3,24
  8008d0:	18c03fcc 	andi	r3,r3,255
  8008d4:	10c00015 	stw	r3,0(r2)
  8008d8:	0001883a 	nop
  8008dc:	00a04034 	movhi	r2,33024
  8008e0:	10841304 	addi	r2,r2,4172
  8008e4:	10800017 	ldw	r2,0(r2)
  8008e8:	1080004c 	andi	r2,r2,1
  8008ec:	103ffb26 	beq	r2,zero,8008dc <__alt_data_end+0xff8008dc>
  8008f0:	00a04034 	movhi	r2,33024
  8008f4:	10841004 	addi	r2,r2,4160
  8008f8:	e0ffff17 	ldw	r3,-4(fp)
  8008fc:	1806d43a 	srli	r3,r3,16
  800900:	18c03fcc 	andi	r3,r3,255
  800904:	10c00015 	stw	r3,0(r2)
  800908:	0001883a 	nop
  80090c:	00a04034 	movhi	r2,33024
  800910:	10841304 	addi	r2,r2,4172
  800914:	10800017 	ldw	r2,0(r2)
  800918:	1080004c 	andi	r2,r2,1
  80091c:	103ffb26 	beq	r2,zero,80090c <__alt_data_end+0xff80090c>
  800920:	00a04034 	movhi	r2,33024
  800924:	10841004 	addi	r2,r2,4160
  800928:	e0ffff17 	ldw	r3,-4(fp)
  80092c:	1806d23a 	srli	r3,r3,8
  800930:	18c03fcc 	andi	r3,r3,255
  800934:	10c00015 	stw	r3,0(r2)
  800938:	0001883a 	nop
  80093c:	00a04034 	movhi	r2,33024
  800940:	10841304 	addi	r2,r2,4172
  800944:	10800017 	ldw	r2,0(r2)
  800948:	1080004c 	andi	r2,r2,1
  80094c:	103ffb26 	beq	r2,zero,80093c <__alt_data_end+0xff80093c>
  800950:	00a04034 	movhi	r2,33024
  800954:	10841004 	addi	r2,r2,4160
  800958:	e0ffff17 	ldw	r3,-4(fp)
  80095c:	18c03fcc 	andi	r3,r3,255
  800960:	10c00015 	stw	r3,0(r2)
  800964:	0001883a 	nop
  800968:	00a04034 	movhi	r2,33024
  80096c:	10841304 	addi	r2,r2,4172
  800970:	10800017 	ldw	r2,0(r2)
  800974:	1080004c 	andi	r2,r2,1
  800978:	103ffb26 	beq	r2,zero,800968 <__alt_data_end+0xff800968>
  80097c:	00800044 	movi	r2,1
  800980:	e0bffd05 	stb	r2,-12(fp)
  800984:	e0bffe03 	ldbu	r2,-8(fp)
  800988:	10801018 	cmpnei	r2,r2,64
  80098c:	1000021e 	bne	r2,zero,800998 <SendCMD+0x1b4>
  800990:	00bfe544 	movi	r2,-107
  800994:	e0bffd05 	stb	r2,-12(fp)
  800998:	e0bffe03 	ldbu	r2,-8(fp)
  80099c:	10801218 	cmpnei	r2,r2,72
  8009a0:	1000021e 	bne	r2,zero,8009ac <SendCMD+0x1c8>
  8009a4:	00bfe1c4 	movi	r2,-121
  8009a8:	e0bffd05 	stb	r2,-12(fp)
  8009ac:	00a04034 	movhi	r2,33024
  8009b0:	10841004 	addi	r2,r2,4160
  8009b4:	e0fffd03 	ldbu	r3,-12(fp)
  8009b8:	10c00015 	stw	r3,0(r2)
  8009bc:	0001883a 	nop
  8009c0:	00a04034 	movhi	r2,33024
  8009c4:	10841304 	addi	r2,r2,4172
  8009c8:	10800017 	ldw	r2,0(r2)
  8009cc:	1080004c 	andi	r2,r2,1
  8009d0:	103ffb26 	beq	r2,zero,8009c0 <__alt_data_end+0xff8009c0>
  8009d4:	e0bffe03 	ldbu	r2,-8(fp)
  8009d8:	10801318 	cmpnei	r2,r2,76
  8009dc:	1000011e 	bne	r2,zero,8009e4 <SendCMD+0x200>
  8009e0:	08004240 	call	800424 <ReceiveU8>
  8009e4:	00800284 	movi	r2,10
  8009e8:	e0bffd05 	stb	r2,-12(fp)
  8009ec:	08004240 	call	800424 <ReceiveU8>
  8009f0:	e0bffd45 	stb	r2,-11(fp)
  8009f4:	e0bffd43 	ldbu	r2,-11(fp)
  8009f8:	10803fcc 	andi	r2,r2,255
  8009fc:	1080201c 	xori	r2,r2,128
  800a00:	10bfe004 	addi	r2,r2,-128
  800a04:	1000050e 	bge	r2,zero,800a1c <SendCMD+0x238>
  800a08:	e0bffd03 	ldbu	r2,-12(fp)
  800a0c:	10bfffc4 	addi	r2,r2,-1
  800a10:	e0bffd05 	stb	r2,-12(fp)
  800a14:	e0bffd03 	ldbu	r2,-12(fp)
  800a18:	103ff41e 	bne	r2,zero,8009ec <__alt_data_end+0xff8009ec>
  800a1c:	e0bffd43 	ldbu	r2,-11(fp)
  800a20:	e037883a 	mov	sp,fp
  800a24:	dfc00117 	ldw	ra,4(sp)
  800a28:	df000017 	ldw	fp,0(sp)
  800a2c:	dec00204 	addi	sp,sp,8
  800a30:	f800283a 	ret

00800a34 <ffs_DiskIOInit>:
  800a34:	defffe04 	addi	sp,sp,-8
  800a38:	dfc00115 	stw	ra,4(sp)
  800a3c:	df000015 	stw	fp,0(sp)
  800a40:	d839883a 	mov	fp,sp
  800a44:	080036c0 	call	80036c <InitDiskIOHardware>
  800a48:	0005883a 	mov	r2,zero
  800a4c:	e037883a 	mov	sp,fp
  800a50:	dfc00117 	ldw	ra,4(sp)
  800a54:	df000017 	ldw	fp,0(sp)
  800a58:	dec00204 	addi	sp,sp,8
  800a5c:	f800283a 	ret

00800a60 <ffs_DiskIOTimerproc>:
  800a60:	defffc04 	addi	sp,sp,-16
  800a64:	dfc00315 	stw	ra,12(sp)
  800a68:	df000215 	stw	fp,8(sp)
  800a6c:	df000204 	addi	fp,sp,8
  800a70:	d0a3358b 	ldhu	r2,-29482(gp)
  800a74:	10bfffcc 	andi	r2,r2,65535
  800a78:	e0bfff15 	stw	r2,-4(fp)
  800a7c:	e0bfff17 	ldw	r2,-4(fp)
  800a80:	10000526 	beq	r2,zero,800a98 <ffs_DiskIOTimerproc+0x38>
  800a84:	e0bfff17 	ldw	r2,-4(fp)
  800a88:	10bfffc4 	addi	r2,r2,-1
  800a8c:	e0bfff15 	stw	r2,-4(fp)
  800a90:	e0bfff17 	ldw	r2,-4(fp)
  800a94:	d0a3358d 	sth	r2,-29482(gp)
  800a98:	d0a3360b 	ldhu	r2,-29480(gp)
  800a9c:	10bfffcc 	andi	r2,r2,65535
  800aa0:	e0bfff15 	stw	r2,-4(fp)
  800aa4:	e0bfff17 	ldw	r2,-4(fp)
  800aa8:	10000526 	beq	r2,zero,800ac0 <ffs_DiskIOTimerproc+0x60>
  800aac:	e0bfff17 	ldw	r2,-4(fp)
  800ab0:	10bfffc4 	addi	r2,r2,-1
  800ab4:	e0bfff15 	stw	r2,-4(fp)
  800ab8:	e0bfff17 	ldw	r2,-4(fp)
  800abc:	d0a3360d 	sth	r2,-29480(gp)
  800ac0:	d0a33817 	ldw	r2,-29472(gp)
  800ac4:	e0bfff15 	stw	r2,-4(fp)
  800ac8:	08007280 	call	800728 <GetCDWP>
  800acc:	d0a33815 	stw	r2,-29472(gp)
  800ad0:	d0a33817 	ldw	r2,-29472(gp)
  800ad4:	e0ffff17 	ldw	r3,-4(fp)
  800ad8:	18801e1e 	bne	r3,r2,800b54 <ffs_DiskIOTimerproc+0xf4>
  800adc:	d0a00003 	ldbu	r2,-32768(gp)
  800ae0:	e0bffe05 	stb	r2,-8(fp)
  800ae4:	d0a33817 	ldw	r2,-29472(gp)
  800ae8:	1080008c 	andi	r2,r2,2
  800aec:	10000426 	beq	r2,zero,800b00 <ffs_DiskIOTimerproc+0xa0>
  800af0:	e0bffe03 	ldbu	r2,-8(fp)
  800af4:	10800114 	ori	r2,r2,4
  800af8:	e0bffe05 	stb	r2,-8(fp)
  800afc:	00000406 	br	800b10 <ffs_DiskIOTimerproc+0xb0>
  800b00:	e0fffe03 	ldbu	r3,-8(fp)
  800b04:	00bffec4 	movi	r2,-5
  800b08:	1884703a 	and	r2,r3,r2
  800b0c:	e0bffe05 	stb	r2,-8(fp)
  800b10:	d0a33817 	ldw	r2,-29472(gp)
  800b14:	1080004c 	andi	r2,r2,1
  800b18:	10000426 	beq	r2,zero,800b2c <ffs_DiskIOTimerproc+0xcc>
  800b1c:	e0bffe03 	ldbu	r2,-8(fp)
  800b20:	108000d4 	ori	r2,r2,3
  800b24:	e0bffe05 	stb	r2,-8(fp)
  800b28:	00000406 	br	800b3c <ffs_DiskIOTimerproc+0xdc>
  800b2c:	e0fffe03 	ldbu	r3,-8(fp)
  800b30:	00bfff44 	movi	r2,-3
  800b34:	1884703a 	and	r2,r3,r2
  800b38:	e0bffe05 	stb	r2,-8(fp)
  800b3c:	e0fffe03 	ldbu	r3,-8(fp)
  800b40:	00bffec4 	movi	r2,-5
  800b44:	1884703a 	and	r2,r3,r2
  800b48:	e0bffe05 	stb	r2,-8(fp)
  800b4c:	e0bffe03 	ldbu	r2,-8(fp)
  800b50:	d0a00005 	stb	r2,-32768(gp)
  800b54:	e037883a 	mov	sp,fp
  800b58:	dfc00117 	ldw	ra,4(sp)
  800b5c:	df000017 	ldw	fp,0(sp)
  800b60:	dec00204 	addi	sp,sp,8
  800b64:	f800283a 	ret

00800b68 <ffs_DiskIOInitialize>:
  800b68:	defffa04 	addi	sp,sp,-24
  800b6c:	dfc00515 	stw	ra,20(sp)
  800b70:	df000415 	stw	fp,16(sp)
  800b74:	dc000315 	stw	r16,12(sp)
  800b78:	df000404 	addi	fp,sp,16
  800b7c:	2005883a 	mov	r2,r4
  800b80:	e0bffe05 	stb	r2,-8(fp)
  800b84:	d0a00003 	ldbu	r2,-32768(gp)
  800b88:	10803fcc 	andi	r2,r2,255
  800b8c:	1080008c 	andi	r2,r2,2
  800b90:	10000226 	beq	r2,zero,800b9c <ffs_DiskIOInitialize+0x34>
  800b94:	d0a00003 	ldbu	r2,-32768(gp)
  800b98:	00008406 	br	800dac <ffs_DiskIOInitialize+0x244>
  800b9c:	08002b40 	call	8002b4 <SetLowSpeed>
  800ba0:	00800284 	movi	r2,10
  800ba4:	e0bffc05 	stb	r2,-16(fp)
  800ba8:	00000406 	br	800bbc <ffs_DiskIOInitialize+0x54>
  800bac:	08004240 	call	800424 <ReceiveU8>
  800bb0:	e0bffc03 	ldbu	r2,-16(fp)
  800bb4:	10bfffc4 	addi	r2,r2,-1
  800bb8:	e0bffc05 	stb	r2,-16(fp)
  800bbc:	e0bffc03 	ldbu	r2,-16(fp)
  800bc0:	103ffa1e 	bne	r2,zero,800bac <__alt_data_end+0xff800bac>
  800bc4:	e03ffc45 	stb	zero,-15(fp)
  800bc8:	01001004 	movi	r4,64
  800bcc:	000b883a 	mov	r5,zero
  800bd0:	08007e40 	call	8007e4 <SendCMD>
  800bd4:	10803fcc 	andi	r2,r2,255
  800bd8:	10800058 	cmpnei	r2,r2,1
  800bdc:	1000681e 	bne	r2,zero,800d80 <ffs_DiskIOInitialize+0x218>
  800be0:	00801904 	movi	r2,100
  800be4:	d0a3358d 	sth	r2,-29482(gp)
  800be8:	01001204 	movi	r4,72
  800bec:	01406a84 	movi	r5,426
  800bf0:	08007e40 	call	8007e4 <SendCMD>
  800bf4:	10803fcc 	andi	r2,r2,255
  800bf8:	10800058 	cmpnei	r2,r2,1
  800bfc:	10003e1e 	bne	r2,zero,800cf8 <ffs_DiskIOInitialize+0x190>
  800c00:	e03ffc05 	stb	zero,-16(fp)
  800c04:	00000906 	br	800c2c <ffs_DiskIOInitialize+0xc4>
  800c08:	e43ffc03 	ldbu	r16,-16(fp)
  800c0c:	08004240 	call	800424 <ReceiveU8>
  800c10:	1007883a 	mov	r3,r2
  800c14:	e0bffcc4 	addi	r2,fp,-13
  800c18:	1405883a 	add	r2,r2,r16
  800c1c:	10c00005 	stb	r3,0(r2)
  800c20:	e0bffc03 	ldbu	r2,-16(fp)
  800c24:	10800044 	addi	r2,r2,1
  800c28:	e0bffc05 	stb	r2,-16(fp)
  800c2c:	e0bffc03 	ldbu	r2,-16(fp)
  800c30:	10800130 	cmpltui	r2,r2,4
  800c34:	103ff41e 	bne	r2,zero,800c08 <__alt_data_end+0xff800c08>
  800c38:	e0bffd43 	ldbu	r2,-11(fp)
  800c3c:	10803fcc 	andi	r2,r2,255
  800c40:	10800058 	cmpnei	r2,r2,1
  800c44:	10004e1e 	bne	r2,zero,800d80 <ffs_DiskIOInitialize+0x218>
  800c48:	e0bffd83 	ldbu	r2,-10(fp)
  800c4c:	10803fcc 	andi	r2,r2,255
  800c50:	10802a98 	cmpnei	r2,r2,170
  800c54:	10004a1e 	bne	r2,zero,800d80 <ffs_DiskIOInitialize+0x218>
  800c58:	0001883a 	nop
  800c5c:	d0a3358b 	ldhu	r2,-29482(gp)
  800c60:	10bfffcc 	andi	r2,r2,65535
  800c64:	10000526 	beq	r2,zero,800c7c <ffs_DiskIOInitialize+0x114>
  800c68:	01003a44 	movi	r4,233
  800c6c:	01500034 	movhi	r5,16384
  800c70:	08007e40 	call	8007e4 <SendCMD>
  800c74:	10803fcc 	andi	r2,r2,255
  800c78:	103ff81e 	bne	r2,zero,800c5c <__alt_data_end+0xff800c5c>
  800c7c:	d0a3358b 	ldhu	r2,-29482(gp)
  800c80:	10bfffcc 	andi	r2,r2,65535
  800c84:	10003e26 	beq	r2,zero,800d80 <ffs_DiskIOInitialize+0x218>
  800c88:	01001e84 	movi	r4,122
  800c8c:	000b883a 	mov	r5,zero
  800c90:	08007e40 	call	8007e4 <SendCMD>
  800c94:	10803fcc 	andi	r2,r2,255
  800c98:	1000391e 	bne	r2,zero,800d80 <ffs_DiskIOInitialize+0x218>
  800c9c:	e03ffc05 	stb	zero,-16(fp)
  800ca0:	00000906 	br	800cc8 <ffs_DiskIOInitialize+0x160>
  800ca4:	e43ffc03 	ldbu	r16,-16(fp)
  800ca8:	08004240 	call	800424 <ReceiveU8>
  800cac:	1007883a 	mov	r3,r2
  800cb0:	e0bffcc4 	addi	r2,fp,-13
  800cb4:	1405883a 	add	r2,r2,r16
  800cb8:	10c00005 	stb	r3,0(r2)
  800cbc:	e0bffc03 	ldbu	r2,-16(fp)
  800cc0:	10800044 	addi	r2,r2,1
  800cc4:	e0bffc05 	stb	r2,-16(fp)
  800cc8:	e0bffc03 	ldbu	r2,-16(fp)
  800ccc:	10800130 	cmpltui	r2,r2,4
  800cd0:	103ff41e 	bne	r2,zero,800ca4 <__alt_data_end+0xff800ca4>
  800cd4:	e0bffcc3 	ldbu	r2,-13(fp)
  800cd8:	10803fcc 	andi	r2,r2,255
  800cdc:	1080100c 	andi	r2,r2,64
  800ce0:	10000226 	beq	r2,zero,800cec <ffs_DiskIOInitialize+0x184>
  800ce4:	00800304 	movi	r2,12
  800ce8:	00000106 	br	800cf0 <ffs_DiskIOInitialize+0x188>
  800cec:	00800104 	movi	r2,4
  800cf0:	e0bffc45 	stb	r2,-15(fp)
  800cf4:	00002206 	br	800d80 <ffs_DiskIOInitialize+0x218>
  800cf8:	01003a44 	movi	r4,233
  800cfc:	000b883a 	mov	r5,zero
  800d00:	08007e40 	call	8007e4 <SendCMD>
  800d04:	10803fcc 	andi	r2,r2,255
  800d08:	108000a8 	cmpgeui	r2,r2,2
  800d0c:	1000051e 	bne	r2,zero,800d24 <ffs_DiskIOInitialize+0x1bc>
  800d10:	00800084 	movi	r2,2
  800d14:	e0bffc45 	stb	r2,-15(fp)
  800d18:	00bffa44 	movi	r2,-23
  800d1c:	e0bffc85 	stb	r2,-14(fp)
  800d20:	00000406 	br	800d34 <ffs_DiskIOInitialize+0x1cc>
  800d24:	00800044 	movi	r2,1
  800d28:	e0bffc45 	stb	r2,-15(fp)
  800d2c:	00801044 	movi	r2,65
  800d30:	e0bffc85 	stb	r2,-14(fp)
  800d34:	0001883a 	nop
  800d38:	d0a3358b 	ldhu	r2,-29482(gp)
  800d3c:	10bfffcc 	andi	r2,r2,65535
  800d40:	10000626 	beq	r2,zero,800d5c <ffs_DiskIOInitialize+0x1f4>
  800d44:	e0bffc83 	ldbu	r2,-14(fp)
  800d48:	1009883a 	mov	r4,r2
  800d4c:	000b883a 	mov	r5,zero
  800d50:	08007e40 	call	8007e4 <SendCMD>
  800d54:	10803fcc 	andi	r2,r2,255
  800d58:	103ff71e 	bne	r2,zero,800d38 <__alt_data_end+0xff800d38>
  800d5c:	d0a3358b 	ldhu	r2,-29482(gp)
  800d60:	10bfffcc 	andi	r2,r2,65535
  800d64:	10000526 	beq	r2,zero,800d7c <ffs_DiskIOInitialize+0x214>
  800d68:	01001404 	movi	r4,80
  800d6c:	01408004 	movi	r5,512
  800d70:	08007e40 	call	8007e4 <SendCMD>
  800d74:	10803fcc 	andi	r2,r2,255
  800d78:	10000126 	beq	r2,zero,800d80 <ffs_DiskIOInitialize+0x218>
  800d7c:	e03ffc45 	stb	zero,-15(fp)
  800d80:	e0bffc43 	ldbu	r2,-15(fp)
  800d84:	d0a33505 	stb	r2,-29484(gp)
  800d88:	08007a00 	call	8007a0 <ReleaseBus>
  800d8c:	e0bffc43 	ldbu	r2,-15(fp)
  800d90:	10000526 	beq	r2,zero,800da8 <ffs_DiskIOInitialize+0x240>
  800d94:	d0e00003 	ldbu	r3,-32768(gp)
  800d98:	00bfff84 	movi	r2,-2
  800d9c:	1884703a 	and	r2,r3,r2
  800da0:	d0a00005 	stb	r2,-32768(gp)
  800da4:	08003000 	call	800300 <SetHighSpeed>
  800da8:	d0a00003 	ldbu	r2,-32768(gp)
  800dac:	e6ffff04 	addi	sp,fp,-4
  800db0:	dfc00217 	ldw	ra,8(sp)
  800db4:	df000117 	ldw	fp,4(sp)
  800db8:	dc000017 	ldw	r16,0(sp)
  800dbc:	dec00304 	addi	sp,sp,12
  800dc0:	f800283a 	ret

00800dc4 <ffs_DiskIOStatus>:
  800dc4:	defffe04 	addi	sp,sp,-8
  800dc8:	df000115 	stw	fp,4(sp)
  800dcc:	df000104 	addi	fp,sp,4
  800dd0:	2005883a 	mov	r2,r4
  800dd4:	e0bfff05 	stb	r2,-4(fp)
  800dd8:	d0a00003 	ldbu	r2,-32768(gp)
  800ddc:	e037883a 	mov	sp,fp
  800de0:	df000017 	ldw	fp,0(sp)
  800de4:	dec00104 	addi	sp,sp,4
  800de8:	f800283a 	ret

00800dec <ffs_DiskIORead>:
  800dec:	defffa04 	addi	sp,sp,-24
  800df0:	dfc00515 	stw	ra,20(sp)
  800df4:	df000415 	stw	fp,16(sp)
  800df8:	df000404 	addi	fp,sp,16
  800dfc:	2007883a 	mov	r3,r4
  800e00:	e17ffd15 	stw	r5,-12(fp)
  800e04:	e1bffe15 	stw	r6,-8(fp)
  800e08:	3805883a 	mov	r2,r7
  800e0c:	e0fffc05 	stb	r3,-16(fp)
  800e10:	e0bfff05 	stb	r2,-4(fp)
  800e14:	e0bfff03 	ldbu	r2,-4(fp)
  800e18:	1000021e 	bne	r2,zero,800e24 <ffs_DiskIORead+0x38>
  800e1c:	00800104 	movi	r2,4
  800e20:	00003406 	br	800ef4 <ffs_DiskIORead+0x108>
  800e24:	d0a00003 	ldbu	r2,-32768(gp)
  800e28:	10803fcc 	andi	r2,r2,255
  800e2c:	1080004c 	andi	r2,r2,1
  800e30:	10000226 	beq	r2,zero,800e3c <ffs_DiskIORead+0x50>
  800e34:	008000c4 	movi	r2,3
  800e38:	00002e06 	br	800ef4 <ffs_DiskIORead+0x108>
  800e3c:	d0a33503 	ldbu	r2,-29484(gp)
  800e40:	10803fcc 	andi	r2,r2,255
  800e44:	1080020c 	andi	r2,r2,8
  800e48:	1000031e 	bne	r2,zero,800e58 <ffs_DiskIORead+0x6c>
  800e4c:	e0bffe17 	ldw	r2,-8(fp)
  800e50:	1004927a 	slli	r2,r2,9
  800e54:	e0bffe15 	stw	r2,-8(fp)
  800e58:	e0bfff03 	ldbu	r2,-4(fp)
  800e5c:	10800058 	cmpnei	r2,r2,1
  800e60:	10000b1e 	bne	r2,zero,800e90 <ffs_DiskIORead+0xa4>
  800e64:	01001444 	movi	r4,81
  800e68:	e17ffe17 	ldw	r5,-8(fp)
  800e6c:	08007e40 	call	8007e4 <SendCMD>
  800e70:	10803fcc 	andi	r2,r2,255
  800e74:	10001b1e 	bne	r2,zero,800ee4 <ffs_DiskIORead+0xf8>
  800e78:	e13ffd17 	ldw	r4,-12(fp)
  800e7c:	01408004 	movi	r5,512
  800e80:	08004740 	call	800474 <ReceiveDatablock>
  800e84:	10001726 	beq	r2,zero,800ee4 <ffs_DiskIORead+0xf8>
  800e88:	e03fff05 	stb	zero,-4(fp)
  800e8c:	00001506 	br	800ee4 <ffs_DiskIORead+0xf8>
  800e90:	01001484 	movi	r4,82
  800e94:	e17ffe17 	ldw	r5,-8(fp)
  800e98:	08007e40 	call	8007e4 <SendCMD>
  800e9c:	10803fcc 	andi	r2,r2,255
  800ea0:	1000101e 	bne	r2,zero,800ee4 <ffs_DiskIORead+0xf8>
  800ea4:	e13ffd17 	ldw	r4,-12(fp)
  800ea8:	01408004 	movi	r5,512
  800eac:	08004740 	call	800474 <ReceiveDatablock>
  800eb0:	1000011e 	bne	r2,zero,800eb8 <ffs_DiskIORead+0xcc>
  800eb4:	00000806 	br	800ed8 <ffs_DiskIORead+0xec>
  800eb8:	e0bffd17 	ldw	r2,-12(fp)
  800ebc:	10808004 	addi	r2,r2,512
  800ec0:	e0bffd15 	stw	r2,-12(fp)
  800ec4:	e0bfff03 	ldbu	r2,-4(fp)
  800ec8:	10bfffc4 	addi	r2,r2,-1
  800ecc:	e0bfff05 	stb	r2,-4(fp)
  800ed0:	e0bfff03 	ldbu	r2,-4(fp)
  800ed4:	103ff31e 	bne	r2,zero,800ea4 <__alt_data_end+0xff800ea4>
  800ed8:	01001304 	movi	r4,76
  800edc:	000b883a 	mov	r5,zero
  800ee0:	08007e40 	call	8007e4 <SendCMD>
  800ee4:	08007a00 	call	8007a0 <ReleaseBus>
  800ee8:	e0bfff03 	ldbu	r2,-4(fp)
  800eec:	1004c03a 	cmpne	r2,r2,zero
  800ef0:	10803fcc 	andi	r2,r2,255
  800ef4:	e037883a 	mov	sp,fp
  800ef8:	dfc00117 	ldw	ra,4(sp)
  800efc:	df000017 	ldw	fp,0(sp)
  800f00:	dec00204 	addi	sp,sp,8
  800f04:	f800283a 	ret

00800f08 <ffs_DiskIOWrite>:
  800f08:	defffa04 	addi	sp,sp,-24
  800f0c:	dfc00515 	stw	ra,20(sp)
  800f10:	df000415 	stw	fp,16(sp)
  800f14:	df000404 	addi	fp,sp,16
  800f18:	2007883a 	mov	r3,r4
  800f1c:	e17ffd15 	stw	r5,-12(fp)
  800f20:	e1bffe15 	stw	r6,-8(fp)
  800f24:	3805883a 	mov	r2,r7
  800f28:	e0fffc05 	stb	r3,-16(fp)
  800f2c:	e0bfff05 	stb	r2,-4(fp)
  800f30:	e0bfff03 	ldbu	r2,-4(fp)
  800f34:	1000021e 	bne	r2,zero,800f40 <ffs_DiskIOWrite+0x38>
  800f38:	00800104 	movi	r2,4
  800f3c:	00004806 	br	801060 <ffs_DiskIOWrite+0x158>
  800f40:	d0a00003 	ldbu	r2,-32768(gp)
  800f44:	10803fcc 	andi	r2,r2,255
  800f48:	1080004c 	andi	r2,r2,1
  800f4c:	10000226 	beq	r2,zero,800f58 <ffs_DiskIOWrite+0x50>
  800f50:	008000c4 	movi	r2,3
  800f54:	00004206 	br	801060 <ffs_DiskIOWrite+0x158>
  800f58:	d0a00003 	ldbu	r2,-32768(gp)
  800f5c:	10803fcc 	andi	r2,r2,255
  800f60:	1080010c 	andi	r2,r2,4
  800f64:	10000226 	beq	r2,zero,800f70 <ffs_DiskIOWrite+0x68>
  800f68:	00800084 	movi	r2,2
  800f6c:	00003c06 	br	801060 <ffs_DiskIOWrite+0x158>
  800f70:	d0a33503 	ldbu	r2,-29484(gp)
  800f74:	10803fcc 	andi	r2,r2,255
  800f78:	1080020c 	andi	r2,r2,8
  800f7c:	1000031e 	bne	r2,zero,800f8c <ffs_DiskIOWrite+0x84>
  800f80:	e0bffe17 	ldw	r2,-8(fp)
  800f84:	1004927a 	slli	r2,r2,9
  800f88:	e0bffe15 	stw	r2,-8(fp)
  800f8c:	e0bfff03 	ldbu	r2,-4(fp)
  800f90:	10800058 	cmpnei	r2,r2,1
  800f94:	10000b1e 	bne	r2,zero,800fc4 <ffs_DiskIOWrite+0xbc>
  800f98:	01001604 	movi	r4,88
  800f9c:	e17ffe17 	ldw	r5,-8(fp)
  800fa0:	08007e40 	call	8007e4 <SendCMD>
  800fa4:	10803fcc 	andi	r2,r2,255
  800fa8:	1000291e 	bne	r2,zero,801050 <ffs_DiskIOWrite+0x148>
  800fac:	e13ffd17 	ldw	r4,-12(fp)
  800fb0:	01403f84 	movi	r5,254
  800fb4:	08005a00 	call	8005a0 <TransmitDatablock>
  800fb8:	10002526 	beq	r2,zero,801050 <ffs_DiskIOWrite+0x148>
  800fbc:	e03fff05 	stb	zero,-4(fp)
  800fc0:	00002306 	br	801050 <ffs_DiskIOWrite+0x148>
  800fc4:	d0a33503 	ldbu	r2,-29484(gp)
  800fc8:	10803fcc 	andi	r2,r2,255
  800fcc:	1080018c 	andi	r2,r2,6
  800fd0:	10000726 	beq	r2,zero,800ff0 <ffs_DiskIOWrite+0xe8>
  800fd4:	01001dc4 	movi	r4,119
  800fd8:	000b883a 	mov	r5,zero
  800fdc:	08007e40 	call	8007e4 <SendCMD>
  800fe0:	e0bfff03 	ldbu	r2,-4(fp)
  800fe4:	010015c4 	movi	r4,87
  800fe8:	100b883a 	mov	r5,r2
  800fec:	08007e40 	call	8007e4 <SendCMD>
  800ff0:	01001644 	movi	r4,89
  800ff4:	e17ffe17 	ldw	r5,-8(fp)
  800ff8:	08007e40 	call	8007e4 <SendCMD>
  800ffc:	10803fcc 	andi	r2,r2,255
  801000:	1000131e 	bne	r2,zero,801050 <ffs_DiskIOWrite+0x148>
  801004:	e13ffd17 	ldw	r4,-12(fp)
  801008:	01403f04 	movi	r5,252
  80100c:	08005a00 	call	8005a0 <TransmitDatablock>
  801010:	1000011e 	bne	r2,zero,801018 <ffs_DiskIOWrite+0x110>
  801014:	00000806 	br	801038 <ffs_DiskIOWrite+0x130>
  801018:	e0bffd17 	ldw	r2,-12(fp)
  80101c:	10808004 	addi	r2,r2,512
  801020:	e0bffd15 	stw	r2,-12(fp)
  801024:	e0bfff03 	ldbu	r2,-4(fp)
  801028:	10bfffc4 	addi	r2,r2,-1
  80102c:	e0bfff05 	stb	r2,-4(fp)
  801030:	e0bfff03 	ldbu	r2,-4(fp)
  801034:	103ff31e 	bne	r2,zero,801004 <__alt_data_end+0xff801004>
  801038:	0009883a 	mov	r4,zero
  80103c:	01403f44 	movi	r5,253
  801040:	08005a00 	call	8005a0 <TransmitDatablock>
  801044:	1000021e 	bne	r2,zero,801050 <ffs_DiskIOWrite+0x148>
  801048:	00800044 	movi	r2,1
  80104c:	e0bfff05 	stb	r2,-4(fp)
  801050:	08007a00 	call	8007a0 <ReleaseBus>
  801054:	e0bfff03 	ldbu	r2,-4(fp)
  801058:	1004c03a 	cmpne	r2,r2,zero
  80105c:	10803fcc 	andi	r2,r2,255
  801060:	e037883a 	mov	sp,fp
  801064:	dfc00117 	ldw	ra,4(sp)
  801068:	df000017 	ldw	fp,0(sp)
  80106c:	dec00204 	addi	sp,sp,8
  801070:	f800283a 	ret

00801074 <ffs_DiskIOIoctl>:
  801074:	defff204 	addi	sp,sp,-56
  801078:	dfc00d15 	stw	ra,52(sp)
  80107c:	df000c15 	stw	fp,48(sp)
  801080:	dc000b15 	stw	r16,44(sp)
  801084:	df000c04 	addi	fp,sp,48
  801088:	2007883a 	mov	r3,r4
  80108c:	2805883a 	mov	r2,r5
  801090:	e1bffe15 	stw	r6,-8(fp)
  801094:	e0fffc05 	stb	r3,-16(fp)
  801098:	e0bffd05 	stb	r2,-12(fp)
  80109c:	e0bffe17 	ldw	r2,-8(fp)
  8010a0:	e0bff615 	stw	r2,-40(fp)
  8010a4:	d0a00003 	ldbu	r2,-32768(gp)
  8010a8:	10803fcc 	andi	r2,r2,255
  8010ac:	1080004c 	andi	r2,r2,1
  8010b0:	10000226 	beq	r2,zero,8010bc <ffs_DiskIOIoctl+0x48>
  8010b4:	008000c4 	movi	r2,3
  8010b8:	00011206 	br	801504 <ffs_DiskIOIoctl+0x490>
  8010bc:	00800044 	movi	r2,1
  8010c0:	e0bff415 	stw	r2,-48(fp)
  8010c4:	e0bffd03 	ldbu	r2,-12(fp)
  8010c8:	10c003e8 	cmpgeui	r3,r2,15
  8010cc:	1801091e 	bne	r3,zero,8014f4 <ffs_DiskIOIoctl+0x480>
  8010d0:	100690ba 	slli	r3,r2,2
  8010d4:	00802034 	movhi	r2,128
  8010d8:	10843a04 	addi	r2,r2,4328
  8010dc:	1885883a 	add	r2,r3,r2
  8010e0:	10800017 	ldw	r2,0(r2)
  8010e4:	1000683a 	jmp	r2
  8010e8:	00801124 	muli	r2,zero,68
  8010ec:	00801160 	cmpeqi	r2,zero,69
  8010f0:	00801274 	movhi	r2,73
  8010f4:	00801288 	cmpgei	r2,zero,74
  8010f8:	008014f4 	movhi	r2,83
  8010fc:	008014f4 	movhi	r2,83
  801100:	008014f4 	movhi	r2,83
  801104:	008014f4 	movhi	r2,83
  801108:	008014f4 	movhi	r2,83
  80110c:	008014f4 	movhi	r2,83
  801110:	008013f8 	rdprs	r2,zero,79
  801114:	0080140c 	andi	r2,zero,80
  801118:	0080143c 	xorhi	r2,zero,80
  80111c:	0080146c 	andhi	r2,zero,81
  801120:	008014c0 	call	8014c <__reset-0x77feb4>
  801124:	d0e33717 	ldw	r3,-29476(gp)
  801128:	00bfff84 	movi	r2,-2
  80112c:	1884703a 	and	r2,r3,r2
  801130:	d0a33715 	stw	r2,-29476(gp)
  801134:	00a04034 	movhi	r2,33024
  801138:	10841204 	addi	r2,r2,4168
  80113c:	d0e33717 	ldw	r3,-29476(gp)
  801140:	10c00015 	stw	r3,0(r2)
  801144:	080074c0 	call	80074c <WaitReady>
  801148:	10803fcc 	andi	r2,r2,255
  80114c:	10803fd8 	cmpnei	r2,r2,255
  801150:	1000021e 	bne	r2,zero,80115c <ffs_DiskIOIoctl+0xe8>
  801154:	e03ff415 	stw	zero,-48(fp)
  801158:	0000e806 	br	8014fc <ffs_DiskIOIoctl+0x488>
  80115c:	0000e706 	br	8014fc <ffs_DiskIOIoctl+0x488>
  801160:	01001244 	movi	r4,73
  801164:	000b883a 	mov	r5,zero
  801168:	08007e40 	call	8007e4 <SendCMD>
  80116c:	10803fcc 	andi	r2,r2,255
  801170:	10003f1e 	bne	r2,zero,801270 <ffs_DiskIOIoctl+0x1fc>
  801174:	e0bff784 	addi	r2,fp,-34
  801178:	1009883a 	mov	r4,r2
  80117c:	01400404 	movi	r5,16
  801180:	08004740 	call	800474 <ReceiveDatablock>
  801184:	10003a26 	beq	r2,zero,801270 <ffs_DiskIOIoctl+0x1fc>
  801188:	e0bff783 	ldbu	r2,-34(fp)
  80118c:	10803fcc 	andi	r2,r2,255
  801190:	1004d1ba 	srli	r2,r2,6
  801194:	10803fcc 	andi	r2,r2,255
  801198:	10800058 	cmpnei	r2,r2,1
  80119c:	10000d1e 	bne	r2,zero,8011d4 <ffs_DiskIOIoctl+0x160>
  8011a0:	e0bff9c3 	ldbu	r2,-25(fp)
  8011a4:	10803fcc 	andi	r2,r2,255
  8011a8:	e0fff983 	ldbu	r3,-26(fp)
  8011ac:	18c03fcc 	andi	r3,r3,255
  8011b0:	1806923a 	slli	r3,r3,8
  8011b4:	10c4b03a 	or	r2,r2,r3
  8011b8:	10800044 	addi	r2,r2,1
  8011bc:	e0bff70d 	sth	r2,-36(fp)
  8011c0:	e0bff70b 	ldhu	r2,-36(fp)
  8011c4:	100692ba 	slli	r3,r2,10
  8011c8:	e0bffe17 	ldw	r2,-8(fp)
  8011cc:	10c00015 	stw	r3,0(r2)
  8011d0:	00002506 	br	801268 <ffs_DiskIOIoctl+0x1f4>
  8011d4:	e0bff8c3 	ldbu	r2,-29(fp)
  8011d8:	108003cc 	andi	r2,r2,15
  8011dc:	1007883a 	mov	r3,r2
  8011e0:	e0bffa03 	ldbu	r2,-24(fp)
  8011e4:	10803fcc 	andi	r2,r2,255
  8011e8:	1004d1fa 	srli	r2,r2,7
  8011ec:	1885883a 	add	r2,r3,r2
  8011f0:	1007883a 	mov	r3,r2
  8011f4:	e0bff9c3 	ldbu	r2,-25(fp)
  8011f8:	108000cc 	andi	r2,r2,3
  8011fc:	1085883a 	add	r2,r2,r2
  801200:	1885883a 	add	r2,r3,r2
  801204:	10800084 	addi	r2,r2,2
  801208:	e0bff505 	stb	r2,-44(fp)
  80120c:	e0bff983 	ldbu	r2,-26(fp)
  801210:	10803fcc 	andi	r2,r2,255
  801214:	1004d1ba 	srli	r2,r2,6
  801218:	10c03fcc 	andi	r3,r2,255
  80121c:	e0bff943 	ldbu	r2,-27(fp)
  801220:	10803fcc 	andi	r2,r2,255
  801224:	1085883a 	add	r2,r2,r2
  801228:	1085883a 	add	r2,r2,r2
  80122c:	1885883a 	add	r2,r3,r2
  801230:	1007883a 	mov	r3,r2
  801234:	e0bff903 	ldbu	r2,-28(fp)
  801238:	10803fcc 	andi	r2,r2,255
  80123c:	108000cc 	andi	r2,r2,3
  801240:	100492ba 	slli	r2,r2,10
  801244:	1885883a 	add	r2,r3,r2
  801248:	10800044 	addi	r2,r2,1
  80124c:	e0bff70d 	sth	r2,-36(fp)
  801250:	e0fff70b 	ldhu	r3,-36(fp)
  801254:	e0bff503 	ldbu	r2,-44(fp)
  801258:	10bffdc4 	addi	r2,r2,-9
  80125c:	1886983a 	sll	r3,r3,r2
  801260:	e0bffe17 	ldw	r2,-8(fp)
  801264:	10c00015 	stw	r3,0(r2)
  801268:	e03ff415 	stw	zero,-48(fp)
  80126c:	0000a306 	br	8014fc <ffs_DiskIOIoctl+0x488>
  801270:	0000a206 	br	8014fc <ffs_DiskIOIoctl+0x488>
  801274:	e0bffe17 	ldw	r2,-8(fp)
  801278:	00c08004 	movi	r3,512
  80127c:	10c0000d 	sth	r3,0(r2)
  801280:	e03ff415 	stw	zero,-48(fp)
  801284:	00009d06 	br	8014fc <ffs_DiskIOIoctl+0x488>
  801288:	d0a33503 	ldbu	r2,-29484(gp)
  80128c:	10803fcc 	andi	r2,r2,255
  801290:	1080010c 	andi	r2,r2,4
  801294:	10001e26 	beq	r2,zero,801310 <ffs_DiskIOIoctl+0x29c>
  801298:	01003344 	movi	r4,205
  80129c:	000b883a 	mov	r5,zero
  8012a0:	08007e40 	call	8007e4 <SendCMD>
  8012a4:	10803fcc 	andi	r2,r2,255
  8012a8:	1000521e 	bne	r2,zero,8013f4 <ffs_DiskIOIoctl+0x380>
  8012ac:	08004240 	call	800424 <ReceiveU8>
  8012b0:	e0bff784 	addi	r2,fp,-34
  8012b4:	1009883a 	mov	r4,r2
  8012b8:	01400404 	movi	r5,16
  8012bc:	08004740 	call	800474 <ReceiveDatablock>
  8012c0:	10004c26 	beq	r2,zero,8013f4 <ffs_DiskIOIoctl+0x380>
  8012c4:	00800c04 	movi	r2,48
  8012c8:	e0bff505 	stb	r2,-44(fp)
  8012cc:	00000406 	br	8012e0 <ffs_DiskIOIoctl+0x26c>
  8012d0:	08004240 	call	800424 <ReceiveU8>
  8012d4:	e0bff503 	ldbu	r2,-44(fp)
  8012d8:	10bfffc4 	addi	r2,r2,-1
  8012dc:	e0bff505 	stb	r2,-44(fp)
  8012e0:	e0bff503 	ldbu	r2,-44(fp)
  8012e4:	103ffa1e 	bne	r2,zero,8012d0 <__alt_data_end+0xff8012d0>
  8012e8:	e0bffa03 	ldbu	r2,-24(fp)
  8012ec:	10803fcc 	andi	r2,r2,255
  8012f0:	1004d13a 	srli	r2,r2,4
  8012f4:	10803fcc 	andi	r2,r2,255
  8012f8:	00c00404 	movi	r3,16
  8012fc:	1886983a 	sll	r3,r3,r2
  801300:	e0bffe17 	ldw	r2,-8(fp)
  801304:	10c00015 	stw	r3,0(r2)
  801308:	e03ff415 	stw	zero,-48(fp)
  80130c:	00007b06 	br	8014fc <ffs_DiskIOIoctl+0x488>
  801310:	01001244 	movi	r4,73
  801314:	000b883a 	mov	r5,zero
  801318:	08007e40 	call	8007e4 <SendCMD>
  80131c:	10803fcc 	andi	r2,r2,255
  801320:	1000341e 	bne	r2,zero,8013f4 <ffs_DiskIOIoctl+0x380>
  801324:	e0bff784 	addi	r2,fp,-34
  801328:	1009883a 	mov	r4,r2
  80132c:	01400404 	movi	r5,16
  801330:	08004740 	call	800474 <ReceiveDatablock>
  801334:	10002f26 	beq	r2,zero,8013f4 <ffs_DiskIOIoctl+0x380>
  801338:	d0a33503 	ldbu	r2,-29484(gp)
  80133c:	10803fcc 	andi	r2,r2,255
  801340:	1080008c 	andi	r2,r2,2
  801344:	10001526 	beq	r2,zero,80139c <ffs_DiskIOIoctl+0x328>
  801348:	e0bffa03 	ldbu	r2,-24(fp)
  80134c:	10803fcc 	andi	r2,r2,255
  801350:	10800fcc 	andi	r2,r2,63
  801354:	1085883a 	add	r2,r2,r2
  801358:	1007883a 	mov	r3,r2
  80135c:	e0bffa43 	ldbu	r2,-23(fp)
  801360:	10803fcc 	andi	r2,r2,255
  801364:	1004d1fa 	srli	r2,r2,7
  801368:	10803fcc 	andi	r2,r2,255
  80136c:	1885883a 	add	r2,r3,r2
  801370:	10c00044 	addi	r3,r2,1
  801374:	e0bffac3 	ldbu	r2,-21(fp)
  801378:	10803fcc 	andi	r2,r2,255
  80137c:	1004d1ba 	srli	r2,r2,6
  801380:	10803fcc 	andi	r2,r2,255
  801384:	10bfffc4 	addi	r2,r2,-1
  801388:	1884983a 	sll	r2,r3,r2
  80138c:	1007883a 	mov	r3,r2
  801390:	e0bffe17 	ldw	r2,-8(fp)
  801394:	10c00015 	stw	r3,0(r2)
  801398:	00001406 	br	8013ec <ffs_DiskIOIoctl+0x378>
  80139c:	e0bffa03 	ldbu	r2,-24(fp)
  8013a0:	10803fcc 	andi	r2,r2,255
  8013a4:	10801f0c 	andi	r2,r2,124
  8013a8:	1005d0ba 	srai	r2,r2,2
  8013ac:	10bfffcc 	andi	r2,r2,65535
  8013b0:	10c00044 	addi	r3,r2,1
  8013b4:	e0bffa43 	ldbu	r2,-23(fp)
  8013b8:	10803fcc 	andi	r2,r2,255
  8013bc:	108000cc 	andi	r2,r2,3
  8013c0:	100890fa 	slli	r4,r2,3
  8013c4:	e0bffa43 	ldbu	r2,-23(fp)
  8013c8:	10803fcc 	andi	r2,r2,255
  8013cc:	1004d17a 	srli	r2,r2,5
  8013d0:	10803fcc 	andi	r2,r2,255
  8013d4:	2085883a 	add	r2,r4,r2
  8013d8:	10800044 	addi	r2,r2,1
  8013dc:	1885383a 	mul	r2,r3,r2
  8013e0:	1007883a 	mov	r3,r2
  8013e4:	e0bffe17 	ldw	r2,-8(fp)
  8013e8:	10c00015 	stw	r3,0(r2)
  8013ec:	e03ff415 	stw	zero,-48(fp)
  8013f0:	00004206 	br	8014fc <ffs_DiskIOIoctl+0x488>
  8013f4:	00004106 	br	8014fc <ffs_DiskIOIoctl+0x488>
  8013f8:	d0e33503 	ldbu	r3,-29484(gp)
  8013fc:	e0bff617 	ldw	r2,-40(fp)
  801400:	10c00005 	stb	r3,0(r2)
  801404:	e03ff415 	stw	zero,-48(fp)
  801408:	00003c06 	br	8014fc <ffs_DiskIOIoctl+0x488>
  80140c:	01001244 	movi	r4,73
  801410:	000b883a 	mov	r5,zero
  801414:	08007e40 	call	8007e4 <SendCMD>
  801418:	10803fcc 	andi	r2,r2,255
  80141c:	1000061e 	bne	r2,zero,801438 <ffs_DiskIOIoctl+0x3c4>
  801420:	e13ff617 	ldw	r4,-40(fp)
  801424:	01400404 	movi	r5,16
  801428:	08004740 	call	800474 <ReceiveDatablock>
  80142c:	10000226 	beq	r2,zero,801438 <ffs_DiskIOIoctl+0x3c4>
  801430:	e03ff415 	stw	zero,-48(fp)
  801434:	00003106 	br	8014fc <ffs_DiskIOIoctl+0x488>
  801438:	00003006 	br	8014fc <ffs_DiskIOIoctl+0x488>
  80143c:	01001284 	movi	r4,74
  801440:	000b883a 	mov	r5,zero
  801444:	08007e40 	call	8007e4 <SendCMD>
  801448:	10803fcc 	andi	r2,r2,255
  80144c:	1000061e 	bne	r2,zero,801468 <ffs_DiskIOIoctl+0x3f4>
  801450:	e13ff617 	ldw	r4,-40(fp)
  801454:	01400404 	movi	r5,16
  801458:	08004740 	call	800474 <ReceiveDatablock>
  80145c:	10000226 	beq	r2,zero,801468 <ffs_DiskIOIoctl+0x3f4>
  801460:	e03ff415 	stw	zero,-48(fp)
  801464:	00002506 	br	8014fc <ffs_DiskIOIoctl+0x488>
  801468:	00002406 	br	8014fc <ffs_DiskIOIoctl+0x488>
  80146c:	01001e84 	movi	r4,122
  801470:	000b883a 	mov	r5,zero
  801474:	08007e40 	call	8007e4 <SendCMD>
  801478:	10803fcc 	andi	r2,r2,255
  80147c:	10000f1e 	bne	r2,zero,8014bc <ffs_DiskIOIoctl+0x448>
  801480:	e03ff505 	stb	zero,-44(fp)
  801484:	00000806 	br	8014a8 <ffs_DiskIOIoctl+0x434>
  801488:	e43ff617 	ldw	r16,-40(fp)
  80148c:	80800044 	addi	r2,r16,1
  801490:	e0bff615 	stw	r2,-40(fp)
  801494:	08004240 	call	800424 <ReceiveU8>
  801498:	80800005 	stb	r2,0(r16)
  80149c:	e0bff503 	ldbu	r2,-44(fp)
  8014a0:	10800044 	addi	r2,r2,1
  8014a4:	e0bff505 	stb	r2,-44(fp)
  8014a8:	e0bff503 	ldbu	r2,-44(fp)
  8014ac:	10800130 	cmpltui	r2,r2,4
  8014b0:	103ff51e 	bne	r2,zero,801488 <__alt_data_end+0xff801488>
  8014b4:	e03ff415 	stw	zero,-48(fp)
  8014b8:	00001006 	br	8014fc <ffs_DiskIOIoctl+0x488>
  8014bc:	00000f06 	br	8014fc <ffs_DiskIOIoctl+0x488>
  8014c0:	01003344 	movi	r4,205
  8014c4:	000b883a 	mov	r5,zero
  8014c8:	08007e40 	call	8007e4 <SendCMD>
  8014cc:	10803fcc 	andi	r2,r2,255
  8014d0:	1000071e 	bne	r2,zero,8014f0 <ffs_DiskIOIoctl+0x47c>
  8014d4:	08004240 	call	800424 <ReceiveU8>
  8014d8:	e13ff617 	ldw	r4,-40(fp)
  8014dc:	01401004 	movi	r5,64
  8014e0:	08004740 	call	800474 <ReceiveDatablock>
  8014e4:	10000226 	beq	r2,zero,8014f0 <ffs_DiskIOIoctl+0x47c>
  8014e8:	e03ff415 	stw	zero,-48(fp)
  8014ec:	00000306 	br	8014fc <ffs_DiskIOIoctl+0x488>
  8014f0:	00000206 	br	8014fc <ffs_DiskIOIoctl+0x488>
  8014f4:	00800104 	movi	r2,4
  8014f8:	e0bff415 	stw	r2,-48(fp)
  8014fc:	08007a00 	call	8007a0 <ReleaseBus>
  801500:	e0bff417 	ldw	r2,-48(fp)
  801504:	e6ffff04 	addi	sp,fp,-4
  801508:	dfc00217 	ldw	ra,8(sp)
  80150c:	df000117 	ldw	fp,4(sp)
  801510:	dc000017 	ldw	r16,0(sp)
  801514:	dec00304 	addi	sp,sp,12
  801518:	f800283a 	ret

0080151c <get_fattime>:
  80151c:	defffe04 	addi	sp,sp,-8
  801520:	df000115 	stw	fp,4(sp)
  801524:	df000104 	addi	fp,sp,4
  801528:	008e57f4 	movhi	r2,14687
  80152c:	10a87844 	addi	r2,r2,-24095
  801530:	e0bfff15 	stw	r2,-4(fp)
  801534:	e0bfff17 	ldw	r2,-4(fp)
  801538:	e037883a 	mov	sp,fp
  80153c:	df000017 	ldw	fp,0(sp)
  801540:	dec00104 	addi	sp,sp,4
  801544:	f800283a 	ret

00801548 <mem_cpy>:
  801548:	defffa04 	addi	sp,sp,-24
  80154c:	df000515 	stw	fp,20(sp)
  801550:	df000504 	addi	fp,sp,20
  801554:	e13ffd15 	stw	r4,-12(fp)
  801558:	e17ffe15 	stw	r5,-8(fp)
  80155c:	e1bfff15 	stw	r6,-4(fp)
  801560:	e0bffd17 	ldw	r2,-12(fp)
  801564:	e0bffb15 	stw	r2,-20(fp)
  801568:	e0bffe17 	ldw	r2,-8(fp)
  80156c:	e0bffc15 	stw	r2,-16(fp)
  801570:	00000806 	br	801594 <mem_cpy+0x4c>
  801574:	e0bffb17 	ldw	r2,-20(fp)
  801578:	10c00044 	addi	r3,r2,1
  80157c:	e0fffb15 	stw	r3,-20(fp)
  801580:	e0fffc17 	ldw	r3,-16(fp)
  801584:	19000044 	addi	r4,r3,1
  801588:	e13ffc15 	stw	r4,-16(fp)
  80158c:	18c00003 	ldbu	r3,0(r3)
  801590:	10c00005 	stb	r3,0(r2)
  801594:	e0bfff17 	ldw	r2,-4(fp)
  801598:	10ffffc4 	addi	r3,r2,-1
  80159c:	e0ffff15 	stw	r3,-4(fp)
  8015a0:	103ff41e 	bne	r2,zero,801574 <__alt_data_end+0xff801574>
  8015a4:	e037883a 	mov	sp,fp
  8015a8:	df000017 	ldw	fp,0(sp)
  8015ac:	dec00104 	addi	sp,sp,4
  8015b0:	f800283a 	ret

008015b4 <mem_set>:
  8015b4:	defffb04 	addi	sp,sp,-20
  8015b8:	df000415 	stw	fp,16(sp)
  8015bc:	df000404 	addi	fp,sp,16
  8015c0:	e13ffd15 	stw	r4,-12(fp)
  8015c4:	e17ffe15 	stw	r5,-8(fp)
  8015c8:	e1bfff15 	stw	r6,-4(fp)
  8015cc:	e0bffd17 	ldw	r2,-12(fp)
  8015d0:	e0bffc15 	stw	r2,-16(fp)
  8015d4:	00000506 	br	8015ec <mem_set+0x38>
  8015d8:	e0bffc17 	ldw	r2,-16(fp)
  8015dc:	10c00044 	addi	r3,r2,1
  8015e0:	e0fffc15 	stw	r3,-16(fp)
  8015e4:	e0fffe17 	ldw	r3,-8(fp)
  8015e8:	10c00005 	stb	r3,0(r2)
  8015ec:	e0bfff17 	ldw	r2,-4(fp)
  8015f0:	10ffffc4 	addi	r3,r2,-1
  8015f4:	e0ffff15 	stw	r3,-4(fp)
  8015f8:	103ff71e 	bne	r2,zero,8015d8 <__alt_data_end+0xff8015d8>
  8015fc:	e037883a 	mov	sp,fp
  801600:	df000017 	ldw	fp,0(sp)
  801604:	dec00104 	addi	sp,sp,4
  801608:	f800283a 	ret

0080160c <mem_cmp>:
  80160c:	defff904 	addi	sp,sp,-28
  801610:	df000615 	stw	fp,24(sp)
  801614:	df000604 	addi	fp,sp,24
  801618:	e13ffd15 	stw	r4,-12(fp)
  80161c:	e17ffe15 	stw	r5,-8(fp)
  801620:	e1bfff15 	stw	r6,-4(fp)
  801624:	e0bffd17 	ldw	r2,-12(fp)
  801628:	e0bffa15 	stw	r2,-24(fp)
  80162c:	e0bffe17 	ldw	r2,-8(fp)
  801630:	e0bffb15 	stw	r2,-20(fp)
  801634:	e03ffc15 	stw	zero,-16(fp)
  801638:	0001883a 	nop
  80163c:	e0bfff17 	ldw	r2,-4(fp)
  801640:	10ffffc4 	addi	r3,r2,-1
  801644:	e0ffff15 	stw	r3,-4(fp)
  801648:	10000e26 	beq	r2,zero,801684 <mem_cmp+0x78>
  80164c:	e0bffa17 	ldw	r2,-24(fp)
  801650:	10c00044 	addi	r3,r2,1
  801654:	e0fffa15 	stw	r3,-24(fp)
  801658:	10800003 	ldbu	r2,0(r2)
  80165c:	10c03fcc 	andi	r3,r2,255
  801660:	e0bffb17 	ldw	r2,-20(fp)
  801664:	11000044 	addi	r4,r2,1
  801668:	e13ffb15 	stw	r4,-20(fp)
  80166c:	10800003 	ldbu	r2,0(r2)
  801670:	10803fcc 	andi	r2,r2,255
  801674:	1885c83a 	sub	r2,r3,r2
  801678:	e0bffc15 	stw	r2,-16(fp)
  80167c:	e0bffc17 	ldw	r2,-16(fp)
  801680:	103fee26 	beq	r2,zero,80163c <__alt_data_end+0xff80163c>
  801684:	e0bffc17 	ldw	r2,-16(fp)
  801688:	e037883a 	mov	sp,fp
  80168c:	df000017 	ldw	fp,0(sp)
  801690:	dec00104 	addi	sp,sp,4
  801694:	f800283a 	ret

00801698 <chk_chr>:
  801698:	defffd04 	addi	sp,sp,-12
  80169c:	df000215 	stw	fp,8(sp)
  8016a0:	df000204 	addi	fp,sp,8
  8016a4:	e13ffe15 	stw	r4,-8(fp)
  8016a8:	e17fff15 	stw	r5,-4(fp)
  8016ac:	00000306 	br	8016bc <chk_chr+0x24>
  8016b0:	e0bffe17 	ldw	r2,-8(fp)
  8016b4:	10800044 	addi	r2,r2,1
  8016b8:	e0bffe15 	stw	r2,-8(fp)
  8016bc:	e0bffe17 	ldw	r2,-8(fp)
  8016c0:	10800003 	ldbu	r2,0(r2)
  8016c4:	10803fcc 	andi	r2,r2,255
  8016c8:	1080201c 	xori	r2,r2,128
  8016cc:	10bfe004 	addi	r2,r2,-128
  8016d0:	10000726 	beq	r2,zero,8016f0 <chk_chr+0x58>
  8016d4:	e0bffe17 	ldw	r2,-8(fp)
  8016d8:	10800003 	ldbu	r2,0(r2)
  8016dc:	10c03fcc 	andi	r3,r2,255
  8016e0:	18c0201c 	xori	r3,r3,128
  8016e4:	18ffe004 	addi	r3,r3,-128
  8016e8:	e0bfff17 	ldw	r2,-4(fp)
  8016ec:	18bff01e 	bne	r3,r2,8016b0 <__alt_data_end+0xff8016b0>
  8016f0:	e0bffe17 	ldw	r2,-8(fp)
  8016f4:	10800003 	ldbu	r2,0(r2)
  8016f8:	10803fcc 	andi	r2,r2,255
  8016fc:	1080201c 	xori	r2,r2,128
  801700:	10bfe004 	addi	r2,r2,-128
  801704:	e037883a 	mov	sp,fp
  801708:	df000017 	ldw	fp,0(sp)
  80170c:	dec00104 	addi	sp,sp,4
  801710:	f800283a 	ret

00801714 <move_window>:
  801714:	defffa04 	addi	sp,sp,-24
  801718:	dfc00515 	stw	ra,20(sp)
  80171c:	df000415 	stw	fp,16(sp)
  801720:	df000404 	addi	fp,sp,16
  801724:	e13ffe15 	stw	r4,-8(fp)
  801728:	e17fff15 	stw	r5,-4(fp)
  80172c:	e0bffe17 	ldw	r2,-8(fp)
  801730:	10800b17 	ldw	r2,44(r2)
  801734:	e0bffc15 	stw	r2,-16(fp)
  801738:	e0fffc17 	ldw	r3,-16(fp)
  80173c:	e0bfff17 	ldw	r2,-4(fp)
  801740:	18804526 	beq	r3,r2,801858 <move_window+0x144>
  801744:	e0bffe17 	ldw	r2,-8(fp)
  801748:	10800103 	ldbu	r2,4(r2)
  80174c:	10803fcc 	andi	r2,r2,255
  801750:	10002f26 	beq	r2,zero,801810 <move_window+0xfc>
  801754:	e0bffe17 	ldw	r2,-8(fp)
  801758:	10800043 	ldbu	r2,1(r2)
  80175c:	10c03fcc 	andi	r3,r2,255
  801760:	e0bffe17 	ldw	r2,-8(fp)
  801764:	10800c04 	addi	r2,r2,48
  801768:	1809883a 	mov	r4,r3
  80176c:	100b883a 	mov	r5,r2
  801770:	e1bffc17 	ldw	r6,-16(fp)
  801774:	01c00044 	movi	r7,1
  801778:	0800f080 	call	800f08 <ffs_DiskIOWrite>
  80177c:	10000226 	beq	r2,zero,801788 <move_window+0x74>
  801780:	00800044 	movi	r2,1
  801784:	00003506 	br	80185c <move_window+0x148>
  801788:	e0bffe17 	ldw	r2,-8(fp)
  80178c:	10000105 	stb	zero,4(r2)
  801790:	e0bffe17 	ldw	r2,-8(fp)
  801794:	10c00817 	ldw	r3,32(r2)
  801798:	e0bffe17 	ldw	r2,-8(fp)
  80179c:	10800717 	ldw	r2,28(r2)
  8017a0:	1885883a 	add	r2,r3,r2
  8017a4:	e0fffc17 	ldw	r3,-16(fp)
  8017a8:	1880192e 	bgeu	r3,r2,801810 <move_window+0xfc>
  8017ac:	e0bffe17 	ldw	r2,-8(fp)
  8017b0:	108000c3 	ldbu	r2,3(r2)
  8017b4:	e0bffd05 	stb	r2,-12(fp)
  8017b8:	00001206 	br	801804 <move_window+0xf0>
  8017bc:	e0bffe17 	ldw	r2,-8(fp)
  8017c0:	10800717 	ldw	r2,28(r2)
  8017c4:	e0fffc17 	ldw	r3,-16(fp)
  8017c8:	1885883a 	add	r2,r3,r2
  8017cc:	e0bffc15 	stw	r2,-16(fp)
  8017d0:	e0bffe17 	ldw	r2,-8(fp)
  8017d4:	10800043 	ldbu	r2,1(r2)
  8017d8:	10c03fcc 	andi	r3,r2,255
  8017dc:	e0bffe17 	ldw	r2,-8(fp)
  8017e0:	10800c04 	addi	r2,r2,48
  8017e4:	1809883a 	mov	r4,r3
  8017e8:	100b883a 	mov	r5,r2
  8017ec:	e1bffc17 	ldw	r6,-16(fp)
  8017f0:	01c00044 	movi	r7,1
  8017f4:	0800f080 	call	800f08 <ffs_DiskIOWrite>
  8017f8:	e0bffd03 	ldbu	r2,-12(fp)
  8017fc:	10bfffc4 	addi	r2,r2,-1
  801800:	e0bffd05 	stb	r2,-12(fp)
  801804:	e0bffd03 	ldbu	r2,-12(fp)
  801808:	108000a8 	cmpgeui	r2,r2,2
  80180c:	103feb1e 	bne	r2,zero,8017bc <__alt_data_end+0xff8017bc>
  801810:	e0bfff17 	ldw	r2,-4(fp)
  801814:	10001026 	beq	r2,zero,801858 <move_window+0x144>
  801818:	e0bffe17 	ldw	r2,-8(fp)
  80181c:	10800043 	ldbu	r2,1(r2)
  801820:	10c03fcc 	andi	r3,r2,255
  801824:	e0bffe17 	ldw	r2,-8(fp)
  801828:	10800c04 	addi	r2,r2,48
  80182c:	1809883a 	mov	r4,r3
  801830:	100b883a 	mov	r5,r2
  801834:	e1bfff17 	ldw	r6,-4(fp)
  801838:	01c00044 	movi	r7,1
  80183c:	0800dec0 	call	800dec <ffs_DiskIORead>
  801840:	10000226 	beq	r2,zero,80184c <move_window+0x138>
  801844:	00800044 	movi	r2,1
  801848:	00000406 	br	80185c <move_window+0x148>
  80184c:	e0bffe17 	ldw	r2,-8(fp)
  801850:	e0ffff17 	ldw	r3,-4(fp)
  801854:	10c00b15 	stw	r3,44(r2)
  801858:	0005883a 	mov	r2,zero
  80185c:	e037883a 	mov	sp,fp
  801860:	dfc00117 	ldw	ra,4(sp)
  801864:	df000017 	ldw	fp,0(sp)
  801868:	dec00204 	addi	sp,sp,8
  80186c:	f800283a 	ret

00801870 <sync>:
  801870:	defffc04 	addi	sp,sp,-16
  801874:	dfc00315 	stw	ra,12(sp)
  801878:	df000215 	stw	fp,8(sp)
  80187c:	df000204 	addi	fp,sp,8
  801880:	e13fff15 	stw	r4,-4(fp)
  801884:	e13fff17 	ldw	r4,-4(fp)
  801888:	000b883a 	mov	r5,zero
  80188c:	08017140 	call	801714 <move_window>
  801890:	e0bffe15 	stw	r2,-8(fp)
  801894:	e0bffe17 	ldw	r2,-8(fp)
  801898:	1000761e 	bne	r2,zero,801a74 <sync+0x204>
  80189c:	e0bfff17 	ldw	r2,-4(fp)
  8018a0:	10800003 	ldbu	r2,0(r2)
  8018a4:	10803fcc 	andi	r2,r2,255
  8018a8:	108000d8 	cmpnei	r2,r2,3
  8018ac:	1000671e 	bne	r2,zero,801a4c <sync+0x1dc>
  8018b0:	e0bfff17 	ldw	r2,-4(fp)
  8018b4:	10800143 	ldbu	r2,5(r2)
  8018b8:	10803fcc 	andi	r2,r2,255
  8018bc:	10006326 	beq	r2,zero,801a4c <sync+0x1dc>
  8018c0:	e0bfff17 	ldw	r2,-4(fp)
  8018c4:	10000b15 	stw	zero,44(r2)
  8018c8:	e0bfff17 	ldw	r2,-4(fp)
  8018cc:	10800c04 	addi	r2,r2,48
  8018d0:	1009883a 	mov	r4,r2
  8018d4:	000b883a 	mov	r5,zero
  8018d8:	01808004 	movi	r6,512
  8018dc:	08015b40 	call	8015b4 <mem_set>
  8018e0:	e0bfff17 	ldw	r2,-4(fp)
  8018e4:	00c01544 	movi	r3,85
  8018e8:	10c08b85 	stb	r3,558(r2)
  8018ec:	e0bfff17 	ldw	r2,-4(fp)
  8018f0:	00ffea84 	movi	r3,-86
  8018f4:	10c08bc5 	stb	r3,559(r2)
  8018f8:	e0bfff17 	ldw	r2,-4(fp)
  8018fc:	00c01484 	movi	r3,82
  801900:	10c00c05 	stb	r3,48(r2)
  801904:	e0bfff17 	ldw	r2,-4(fp)
  801908:	00c01484 	movi	r3,82
  80190c:	10c00c45 	stb	r3,49(r2)
  801910:	e0bfff17 	ldw	r2,-4(fp)
  801914:	00c01844 	movi	r3,97
  801918:	10c00c85 	stb	r3,50(r2)
  80191c:	e0bfff17 	ldw	r2,-4(fp)
  801920:	00c01044 	movi	r3,65
  801924:	10c00cc5 	stb	r3,51(r2)
  801928:	e0bfff17 	ldw	r2,-4(fp)
  80192c:	00c01c84 	movi	r3,114
  801930:	10c08505 	stb	r3,532(r2)
  801934:	e0bfff17 	ldw	r2,-4(fp)
  801938:	00c01c84 	movi	r3,114
  80193c:	10c08545 	stb	r3,533(r2)
  801940:	e0bfff17 	ldw	r2,-4(fp)
  801944:	00c01044 	movi	r3,65
  801948:	10c08585 	stb	r3,534(r2)
  80194c:	e0bfff17 	ldw	r2,-4(fp)
  801950:	00c01844 	movi	r3,97
  801954:	10c085c5 	stb	r3,535(r2)
  801958:	e0bfff17 	ldw	r2,-4(fp)
  80195c:	10800417 	ldw	r2,16(r2)
  801960:	1007883a 	mov	r3,r2
  801964:	e0bfff17 	ldw	r2,-4(fp)
  801968:	10c08605 	stb	r3,536(r2)
  80196c:	e0bfff17 	ldw	r2,-4(fp)
  801970:	10800417 	ldw	r2,16(r2)
  801974:	10bfffcc 	andi	r2,r2,65535
  801978:	1004d23a 	srli	r2,r2,8
  80197c:	1007883a 	mov	r3,r2
  801980:	e0bfff17 	ldw	r2,-4(fp)
  801984:	10c08645 	stb	r3,537(r2)
  801988:	e0bfff17 	ldw	r2,-4(fp)
  80198c:	10800417 	ldw	r2,16(r2)
  801990:	1004d43a 	srli	r2,r2,16
  801994:	1007883a 	mov	r3,r2
  801998:	e0bfff17 	ldw	r2,-4(fp)
  80199c:	10c08685 	stb	r3,538(r2)
  8019a0:	e0bfff17 	ldw	r2,-4(fp)
  8019a4:	10800417 	ldw	r2,16(r2)
  8019a8:	1004d63a 	srli	r2,r2,24
  8019ac:	1007883a 	mov	r3,r2
  8019b0:	e0bfff17 	ldw	r2,-4(fp)
  8019b4:	10c086c5 	stb	r3,539(r2)
  8019b8:	e0bfff17 	ldw	r2,-4(fp)
  8019bc:	10800317 	ldw	r2,12(r2)
  8019c0:	1007883a 	mov	r3,r2
  8019c4:	e0bfff17 	ldw	r2,-4(fp)
  8019c8:	10c08705 	stb	r3,540(r2)
  8019cc:	e0bfff17 	ldw	r2,-4(fp)
  8019d0:	10800317 	ldw	r2,12(r2)
  8019d4:	10bfffcc 	andi	r2,r2,65535
  8019d8:	1004d23a 	srli	r2,r2,8
  8019dc:	1007883a 	mov	r3,r2
  8019e0:	e0bfff17 	ldw	r2,-4(fp)
  8019e4:	10c08745 	stb	r3,541(r2)
  8019e8:	e0bfff17 	ldw	r2,-4(fp)
  8019ec:	10800317 	ldw	r2,12(r2)
  8019f0:	1004d43a 	srli	r2,r2,16
  8019f4:	1007883a 	mov	r3,r2
  8019f8:	e0bfff17 	ldw	r2,-4(fp)
  8019fc:	10c08785 	stb	r3,542(r2)
  801a00:	e0bfff17 	ldw	r2,-4(fp)
  801a04:	10800317 	ldw	r2,12(r2)
  801a08:	1004d63a 	srli	r2,r2,24
  801a0c:	1007883a 	mov	r3,r2
  801a10:	e0bfff17 	ldw	r2,-4(fp)
  801a14:	10c087c5 	stb	r3,543(r2)
  801a18:	e0bfff17 	ldw	r2,-4(fp)
  801a1c:	10800043 	ldbu	r2,1(r2)
  801a20:	11003fcc 	andi	r4,r2,255
  801a24:	e0bfff17 	ldw	r2,-4(fp)
  801a28:	10c00c04 	addi	r3,r2,48
  801a2c:	e0bfff17 	ldw	r2,-4(fp)
  801a30:	10800517 	ldw	r2,20(r2)
  801a34:	180b883a 	mov	r5,r3
  801a38:	100d883a 	mov	r6,r2
  801a3c:	01c00044 	movi	r7,1
  801a40:	0800f080 	call	800f08 <ffs_DiskIOWrite>
  801a44:	e0bfff17 	ldw	r2,-4(fp)
  801a48:	10000145 	stb	zero,5(r2)
  801a4c:	e0bfff17 	ldw	r2,-4(fp)
  801a50:	10800043 	ldbu	r2,1(r2)
  801a54:	10803fcc 	andi	r2,r2,255
  801a58:	1009883a 	mov	r4,r2
  801a5c:	000b883a 	mov	r5,zero
  801a60:	000d883a 	mov	r6,zero
  801a64:	08010740 	call	801074 <ffs_DiskIOIoctl>
  801a68:	10000226 	beq	r2,zero,801a74 <sync+0x204>
  801a6c:	00800044 	movi	r2,1
  801a70:	e0bffe15 	stw	r2,-8(fp)
  801a74:	e0bffe17 	ldw	r2,-8(fp)
  801a78:	e037883a 	mov	sp,fp
  801a7c:	dfc00117 	ldw	ra,4(sp)
  801a80:	df000017 	ldw	fp,0(sp)
  801a84:	dec00204 	addi	sp,sp,8
  801a88:	f800283a 	ret

00801a8c <clust2sect>:
  801a8c:	defffd04 	addi	sp,sp,-12
  801a90:	df000215 	stw	fp,8(sp)
  801a94:	df000204 	addi	fp,sp,8
  801a98:	e13ffe15 	stw	r4,-8(fp)
  801a9c:	e17fff15 	stw	r5,-4(fp)
  801aa0:	e0bfff17 	ldw	r2,-4(fp)
  801aa4:	10bfff84 	addi	r2,r2,-2
  801aa8:	e0bfff15 	stw	r2,-4(fp)
  801aac:	e0bffe17 	ldw	r2,-8(fp)
  801ab0:	10800617 	ldw	r2,24(r2)
  801ab4:	10bfff84 	addi	r2,r2,-2
  801ab8:	e0ffff17 	ldw	r3,-4(fp)
  801abc:	18800236 	bltu	r3,r2,801ac8 <clust2sect+0x3c>
  801ac0:	0005883a 	mov	r2,zero
  801ac4:	00000806 	br	801ae8 <clust2sect+0x5c>
  801ac8:	e0bffe17 	ldw	r2,-8(fp)
  801acc:	10800083 	ldbu	r2,2(r2)
  801ad0:	10c03fcc 	andi	r3,r2,255
  801ad4:	e0bfff17 	ldw	r2,-4(fp)
  801ad8:	1887383a 	mul	r3,r3,r2
  801adc:	e0bffe17 	ldw	r2,-8(fp)
  801ae0:	10800a17 	ldw	r2,40(r2)
  801ae4:	1885883a 	add	r2,r3,r2
  801ae8:	e037883a 	mov	sp,fp
  801aec:	df000017 	ldw	fp,0(sp)
  801af0:	dec00104 	addi	sp,sp,4
  801af4:	f800283a 	ret

00801af8 <get_fat>:
  801af8:	defff904 	addi	sp,sp,-28
  801afc:	dfc00615 	stw	ra,24(sp)
  801b00:	df000515 	stw	fp,20(sp)
  801b04:	df000504 	addi	fp,sp,20
  801b08:	e13ffe15 	stw	r4,-8(fp)
  801b0c:	e17fff15 	stw	r5,-4(fp)
  801b10:	e0bfff17 	ldw	r2,-4(fp)
  801b14:	108000b0 	cmpltui	r2,r2,2
  801b18:	1000041e 	bne	r2,zero,801b2c <get_fat+0x34>
  801b1c:	e0bffe17 	ldw	r2,-8(fp)
  801b20:	10800617 	ldw	r2,24(r2)
  801b24:	e0ffff17 	ldw	r3,-4(fp)
  801b28:	18800236 	bltu	r3,r2,801b34 <get_fat+0x3c>
  801b2c:	00800044 	movi	r2,1
  801b30:	00008d06 	br	801d68 <get_fat+0x270>
  801b34:	e0bffe17 	ldw	r2,-8(fp)
  801b38:	10800003 	ldbu	r2,0(r2)
  801b3c:	10803fcc 	andi	r2,r2,255
  801b40:	10c000a0 	cmpeqi	r3,r2,2
  801b44:	18003f1e 	bne	r3,zero,801c44 <get_fat+0x14c>
  801b48:	10c000e0 	cmpeqi	r3,r2,3
  801b4c:	18005a1e 	bne	r3,zero,801cb8 <get_fat+0x1c0>
  801b50:	10800060 	cmpeqi	r2,r2,1
  801b54:	10008326 	beq	r2,zero,801d64 <get_fat+0x26c>
  801b58:	e0bfff17 	ldw	r2,-4(fp)
  801b5c:	e0bffb15 	stw	r2,-20(fp)
  801b60:	e0bffb17 	ldw	r2,-20(fp)
  801b64:	1004d07a 	srli	r2,r2,1
  801b68:	e0fffb17 	ldw	r3,-20(fp)
  801b6c:	1885883a 	add	r2,r3,r2
  801b70:	e0bffb15 	stw	r2,-20(fp)
  801b74:	e0bffe17 	ldw	r2,-8(fp)
  801b78:	10c00817 	ldw	r3,32(r2)
  801b7c:	e0bffb17 	ldw	r2,-20(fp)
  801b80:	1004d27a 	srli	r2,r2,9
  801b84:	1885883a 	add	r2,r3,r2
  801b88:	e13ffe17 	ldw	r4,-8(fp)
  801b8c:	100b883a 	mov	r5,r2
  801b90:	08017140 	call	801714 <move_window>
  801b94:	10000126 	beq	r2,zero,801b9c <get_fat+0xa4>
  801b98:	00007206 	br	801d64 <get_fat+0x26c>
  801b9c:	e0bffb17 	ldw	r2,-20(fp)
  801ba0:	10807fcc 	andi	r2,r2,511
  801ba4:	e0fffe17 	ldw	r3,-8(fp)
  801ba8:	1885883a 	add	r2,r3,r2
  801bac:	10800c04 	addi	r2,r2,48
  801bb0:	10800003 	ldbu	r2,0(r2)
  801bb4:	10803fcc 	andi	r2,r2,255
  801bb8:	e0bffc15 	stw	r2,-16(fp)
  801bbc:	e0bffb17 	ldw	r2,-20(fp)
  801bc0:	10800044 	addi	r2,r2,1
  801bc4:	e0bffb15 	stw	r2,-20(fp)
  801bc8:	e0bffe17 	ldw	r2,-8(fp)
  801bcc:	10c00817 	ldw	r3,32(r2)
  801bd0:	e0bffb17 	ldw	r2,-20(fp)
  801bd4:	1004d27a 	srli	r2,r2,9
  801bd8:	1885883a 	add	r2,r3,r2
  801bdc:	e13ffe17 	ldw	r4,-8(fp)
  801be0:	100b883a 	mov	r5,r2
  801be4:	08017140 	call	801714 <move_window>
  801be8:	10000126 	beq	r2,zero,801bf0 <get_fat+0xf8>
  801bec:	00005d06 	br	801d64 <get_fat+0x26c>
  801bf0:	e0bffb17 	ldw	r2,-20(fp)
  801bf4:	10807fcc 	andi	r2,r2,511
  801bf8:	e0fffe17 	ldw	r3,-8(fp)
  801bfc:	1885883a 	add	r2,r3,r2
  801c00:	10800c04 	addi	r2,r2,48
  801c04:	10800003 	ldbu	r2,0(r2)
  801c08:	10803fcc 	andi	r2,r2,255
  801c0c:	1004923a 	slli	r2,r2,8
  801c10:	1007883a 	mov	r3,r2
  801c14:	e0bffc17 	ldw	r2,-16(fp)
  801c18:	10c4b03a 	or	r2,r2,r3
  801c1c:	e0bffc15 	stw	r2,-16(fp)
  801c20:	e0bfff17 	ldw	r2,-4(fp)
  801c24:	1080004c 	andi	r2,r2,1
  801c28:	10000326 	beq	r2,zero,801c38 <get_fat+0x140>
  801c2c:	e0bffc17 	ldw	r2,-16(fp)
  801c30:	1004d13a 	srli	r2,r2,4
  801c34:	00004c06 	br	801d68 <get_fat+0x270>
  801c38:	e0bffc17 	ldw	r2,-16(fp)
  801c3c:	1083ffcc 	andi	r2,r2,4095
  801c40:	00004906 	br	801d68 <get_fat+0x270>
  801c44:	e0bffe17 	ldw	r2,-8(fp)
  801c48:	10c00817 	ldw	r3,32(r2)
  801c4c:	e0bfff17 	ldw	r2,-4(fp)
  801c50:	1004d23a 	srli	r2,r2,8
  801c54:	1885883a 	add	r2,r3,r2
  801c58:	e13ffe17 	ldw	r4,-8(fp)
  801c5c:	100b883a 	mov	r5,r2
  801c60:	08017140 	call	801714 <move_window>
  801c64:	10000126 	beq	r2,zero,801c6c <get_fat+0x174>
  801c68:	00003e06 	br	801d64 <get_fat+0x26c>
  801c6c:	e0bfff17 	ldw	r2,-4(fp)
  801c70:	1085883a 	add	r2,r2,r2
  801c74:	10807f8c 	andi	r2,r2,510
  801c78:	10800c04 	addi	r2,r2,48
  801c7c:	e0fffe17 	ldw	r3,-8(fp)
  801c80:	1885883a 	add	r2,r3,r2
  801c84:	e0bffd15 	stw	r2,-12(fp)
  801c88:	e0bffd17 	ldw	r2,-12(fp)
  801c8c:	10800044 	addi	r2,r2,1
  801c90:	10800003 	ldbu	r2,0(r2)
  801c94:	10803fcc 	andi	r2,r2,255
  801c98:	1004923a 	slli	r2,r2,8
  801c9c:	1007883a 	mov	r3,r2
  801ca0:	e0bffd17 	ldw	r2,-12(fp)
  801ca4:	10800003 	ldbu	r2,0(r2)
  801ca8:	10803fcc 	andi	r2,r2,255
  801cac:	1884b03a 	or	r2,r3,r2
  801cb0:	10bfffcc 	andi	r2,r2,65535
  801cb4:	00002c06 	br	801d68 <get_fat+0x270>
  801cb8:	e0bffe17 	ldw	r2,-8(fp)
  801cbc:	10c00817 	ldw	r3,32(r2)
  801cc0:	e0bfff17 	ldw	r2,-4(fp)
  801cc4:	1004d1fa 	srli	r2,r2,7
  801cc8:	1885883a 	add	r2,r3,r2
  801ccc:	e13ffe17 	ldw	r4,-8(fp)
  801cd0:	100b883a 	mov	r5,r2
  801cd4:	08017140 	call	801714 <move_window>
  801cd8:	10000126 	beq	r2,zero,801ce0 <get_fat+0x1e8>
  801cdc:	00002106 	br	801d64 <get_fat+0x26c>
  801ce0:	e0bfff17 	ldw	r2,-4(fp)
  801ce4:	1085883a 	add	r2,r2,r2
  801ce8:	1085883a 	add	r2,r2,r2
  801cec:	10807f0c 	andi	r2,r2,508
  801cf0:	10800c04 	addi	r2,r2,48
  801cf4:	e0fffe17 	ldw	r3,-8(fp)
  801cf8:	1885883a 	add	r2,r3,r2
  801cfc:	e0bffd15 	stw	r2,-12(fp)
  801d00:	e0bffd17 	ldw	r2,-12(fp)
  801d04:	108000c4 	addi	r2,r2,3
  801d08:	10800003 	ldbu	r2,0(r2)
  801d0c:	10803fcc 	andi	r2,r2,255
  801d10:	1006963a 	slli	r3,r2,24
  801d14:	e0bffd17 	ldw	r2,-12(fp)
  801d18:	10800084 	addi	r2,r2,2
  801d1c:	10800003 	ldbu	r2,0(r2)
  801d20:	10803fcc 	andi	r2,r2,255
  801d24:	1004943a 	slli	r2,r2,16
  801d28:	1884b03a 	or	r2,r3,r2
  801d2c:	e0fffd17 	ldw	r3,-12(fp)
  801d30:	18c00044 	addi	r3,r3,1
  801d34:	18c00003 	ldbu	r3,0(r3)
  801d38:	18c03fcc 	andi	r3,r3,255
  801d3c:	1806923a 	slli	r3,r3,8
  801d40:	10c6b03a 	or	r3,r2,r3
  801d44:	e0bffd17 	ldw	r2,-12(fp)
  801d48:	10800003 	ldbu	r2,0(r2)
  801d4c:	10803fcc 	andi	r2,r2,255
  801d50:	1886b03a 	or	r3,r3,r2
  801d54:	00840034 	movhi	r2,4096
  801d58:	10bfffc4 	addi	r2,r2,-1
  801d5c:	1884703a 	and	r2,r3,r2
  801d60:	00000106 	br	801d68 <get_fat+0x270>
  801d64:	00bfffc4 	movi	r2,-1
  801d68:	e037883a 	mov	sp,fp
  801d6c:	dfc00117 	ldw	ra,4(sp)
  801d70:	df000017 	ldw	fp,0(sp)
  801d74:	dec00204 	addi	sp,sp,8
  801d78:	f800283a 	ret

00801d7c <put_fat>:
  801d7c:	defff804 	addi	sp,sp,-32
  801d80:	dfc00715 	stw	ra,28(sp)
  801d84:	df000615 	stw	fp,24(sp)
  801d88:	df000604 	addi	fp,sp,24
  801d8c:	e13ffd15 	stw	r4,-12(fp)
  801d90:	e17ffe15 	stw	r5,-8(fp)
  801d94:	e1bfff15 	stw	r6,-4(fp)
  801d98:	e0bffe17 	ldw	r2,-8(fp)
  801d9c:	108000b0 	cmpltui	r2,r2,2
  801da0:	1000041e 	bne	r2,zero,801db4 <put_fat+0x38>
  801da4:	e0bffd17 	ldw	r2,-12(fp)
  801da8:	10800617 	ldw	r2,24(r2)
  801dac:	e0fffe17 	ldw	r3,-8(fp)
  801db0:	18800336 	bltu	r3,r2,801dc0 <put_fat+0x44>
  801db4:	00800084 	movi	r2,2
  801db8:	e0bffa15 	stw	r2,-24(fp)
  801dbc:	0000c506 	br	8020d4 <put_fat+0x358>
  801dc0:	e0bffd17 	ldw	r2,-12(fp)
  801dc4:	10800003 	ldbu	r2,0(r2)
  801dc8:	10803fcc 	andi	r2,r2,255
  801dcc:	10c000a0 	cmpeqi	r3,r2,2
  801dd0:	18005b1e 	bne	r3,zero,801f40 <put_fat+0x1c4>
  801dd4:	10c000e0 	cmpeqi	r3,r2,3
  801dd8:	1800771e 	bne	r3,zero,801fb8 <put_fat+0x23c>
  801ddc:	10800060 	cmpeqi	r2,r2,1
  801de0:	1000b726 	beq	r2,zero,8020c0 <put_fat+0x344>
  801de4:	e0bffe17 	ldw	r2,-8(fp)
  801de8:	e0bffb15 	stw	r2,-20(fp)
  801dec:	e0bffb17 	ldw	r2,-20(fp)
  801df0:	1004d07a 	srli	r2,r2,1
  801df4:	e0fffb17 	ldw	r3,-20(fp)
  801df8:	1885883a 	add	r2,r3,r2
  801dfc:	e0bffb15 	stw	r2,-20(fp)
  801e00:	e0bffd17 	ldw	r2,-12(fp)
  801e04:	10c00817 	ldw	r3,32(r2)
  801e08:	e0bffb17 	ldw	r2,-20(fp)
  801e0c:	1004d27a 	srli	r2,r2,9
  801e10:	1885883a 	add	r2,r3,r2
  801e14:	e13ffd17 	ldw	r4,-12(fp)
  801e18:	100b883a 	mov	r5,r2
  801e1c:	08017140 	call	801714 <move_window>
  801e20:	e0bffa15 	stw	r2,-24(fp)
  801e24:	e0bffa17 	ldw	r2,-24(fp)
  801e28:	10000126 	beq	r2,zero,801e30 <put_fat+0xb4>
  801e2c:	0000a606 	br	8020c8 <put_fat+0x34c>
  801e30:	e0bffb17 	ldw	r2,-20(fp)
  801e34:	10807fcc 	andi	r2,r2,511
  801e38:	10800c04 	addi	r2,r2,48
  801e3c:	e0fffd17 	ldw	r3,-12(fp)
  801e40:	1885883a 	add	r2,r3,r2
  801e44:	e0bffc15 	stw	r2,-16(fp)
  801e48:	e0bffe17 	ldw	r2,-8(fp)
  801e4c:	1080004c 	andi	r2,r2,1
  801e50:	10000a26 	beq	r2,zero,801e7c <put_fat+0x100>
  801e54:	e0bffc17 	ldw	r2,-16(fp)
  801e58:	10800003 	ldbu	r2,0(r2)
  801e5c:	108003cc 	andi	r2,r2,15
  801e60:	1007883a 	mov	r3,r2
  801e64:	e0bfff17 	ldw	r2,-4(fp)
  801e68:	10803fcc 	andi	r2,r2,255
  801e6c:	1004913a 	slli	r2,r2,4
  801e70:	1884b03a 	or	r2,r3,r2
  801e74:	1007883a 	mov	r3,r2
  801e78:	00000206 	br	801e84 <put_fat+0x108>
  801e7c:	e0bfff17 	ldw	r2,-4(fp)
  801e80:	1007883a 	mov	r3,r2
  801e84:	e0bffc17 	ldw	r2,-16(fp)
  801e88:	10c00005 	stb	r3,0(r2)
  801e8c:	e0bffb17 	ldw	r2,-20(fp)
  801e90:	10800044 	addi	r2,r2,1
  801e94:	e0bffb15 	stw	r2,-20(fp)
  801e98:	e0bffd17 	ldw	r2,-12(fp)
  801e9c:	00c00044 	movi	r3,1
  801ea0:	10c00105 	stb	r3,4(r2)
  801ea4:	e0bffd17 	ldw	r2,-12(fp)
  801ea8:	10c00817 	ldw	r3,32(r2)
  801eac:	e0bffb17 	ldw	r2,-20(fp)
  801eb0:	1004d27a 	srli	r2,r2,9
  801eb4:	1885883a 	add	r2,r3,r2
  801eb8:	e13ffd17 	ldw	r4,-12(fp)
  801ebc:	100b883a 	mov	r5,r2
  801ec0:	08017140 	call	801714 <move_window>
  801ec4:	e0bffa15 	stw	r2,-24(fp)
  801ec8:	e0bffa17 	ldw	r2,-24(fp)
  801ecc:	10000126 	beq	r2,zero,801ed4 <put_fat+0x158>
  801ed0:	00007d06 	br	8020c8 <put_fat+0x34c>
  801ed4:	e0bffb17 	ldw	r2,-20(fp)
  801ed8:	10807fcc 	andi	r2,r2,511
  801edc:	10800c04 	addi	r2,r2,48
  801ee0:	e0fffd17 	ldw	r3,-12(fp)
  801ee4:	1885883a 	add	r2,r3,r2
  801ee8:	e0bffc15 	stw	r2,-16(fp)
  801eec:	e0bffe17 	ldw	r2,-8(fp)
  801ef0:	1080004c 	andi	r2,r2,1
  801ef4:	10000426 	beq	r2,zero,801f08 <put_fat+0x18c>
  801ef8:	e0bfff17 	ldw	r2,-4(fp)
  801efc:	1004d13a 	srli	r2,r2,4
  801f00:	1007883a 	mov	r3,r2
  801f04:	00000b06 	br	801f34 <put_fat+0x1b8>
  801f08:	e0bffc17 	ldw	r2,-16(fp)
  801f0c:	10800003 	ldbu	r2,0(r2)
  801f10:	1007883a 	mov	r3,r2
  801f14:	00bffc04 	movi	r2,-16
  801f18:	1884703a 	and	r2,r3,r2
  801f1c:	1007883a 	mov	r3,r2
  801f20:	e0bfff17 	ldw	r2,-4(fp)
  801f24:	1004d23a 	srli	r2,r2,8
  801f28:	108003cc 	andi	r2,r2,15
  801f2c:	1884b03a 	or	r2,r3,r2
  801f30:	1007883a 	mov	r3,r2
  801f34:	e0bffc17 	ldw	r2,-16(fp)
  801f38:	10c00005 	stb	r3,0(r2)
  801f3c:	00006206 	br	8020c8 <put_fat+0x34c>
  801f40:	e0bffd17 	ldw	r2,-12(fp)
  801f44:	10c00817 	ldw	r3,32(r2)
  801f48:	e0bffe17 	ldw	r2,-8(fp)
  801f4c:	1004d23a 	srli	r2,r2,8
  801f50:	1885883a 	add	r2,r3,r2
  801f54:	e13ffd17 	ldw	r4,-12(fp)
  801f58:	100b883a 	mov	r5,r2
  801f5c:	08017140 	call	801714 <move_window>
  801f60:	e0bffa15 	stw	r2,-24(fp)
  801f64:	e0bffa17 	ldw	r2,-24(fp)
  801f68:	10000126 	beq	r2,zero,801f70 <put_fat+0x1f4>
  801f6c:	00005606 	br	8020c8 <put_fat+0x34c>
  801f70:	e0bffe17 	ldw	r2,-8(fp)
  801f74:	1085883a 	add	r2,r2,r2
  801f78:	10807f8c 	andi	r2,r2,510
  801f7c:	10800c04 	addi	r2,r2,48
  801f80:	e0fffd17 	ldw	r3,-12(fp)
  801f84:	1885883a 	add	r2,r3,r2
  801f88:	e0bffc15 	stw	r2,-16(fp)
  801f8c:	e0bfff17 	ldw	r2,-4(fp)
  801f90:	1007883a 	mov	r3,r2
  801f94:	e0bffc17 	ldw	r2,-16(fp)
  801f98:	10c00005 	stb	r3,0(r2)
  801f9c:	e0bffc17 	ldw	r2,-16(fp)
  801fa0:	10800044 	addi	r2,r2,1
  801fa4:	e0ffff17 	ldw	r3,-4(fp)
  801fa8:	18ffffcc 	andi	r3,r3,65535
  801fac:	1806d23a 	srli	r3,r3,8
  801fb0:	10c00005 	stb	r3,0(r2)
  801fb4:	00004406 	br	8020c8 <put_fat+0x34c>
  801fb8:	e0bffd17 	ldw	r2,-12(fp)
  801fbc:	10c00817 	ldw	r3,32(r2)
  801fc0:	e0bffe17 	ldw	r2,-8(fp)
  801fc4:	1004d1fa 	srli	r2,r2,7
  801fc8:	1885883a 	add	r2,r3,r2
  801fcc:	e13ffd17 	ldw	r4,-12(fp)
  801fd0:	100b883a 	mov	r5,r2
  801fd4:	08017140 	call	801714 <move_window>
  801fd8:	e0bffa15 	stw	r2,-24(fp)
  801fdc:	e0bffa17 	ldw	r2,-24(fp)
  801fe0:	10000126 	beq	r2,zero,801fe8 <put_fat+0x26c>
  801fe4:	00003806 	br	8020c8 <put_fat+0x34c>
  801fe8:	e0bffe17 	ldw	r2,-8(fp)
  801fec:	1085883a 	add	r2,r2,r2
  801ff0:	1085883a 	add	r2,r2,r2
  801ff4:	10807f0c 	andi	r2,r2,508
  801ff8:	10800c04 	addi	r2,r2,48
  801ffc:	e0fffd17 	ldw	r3,-12(fp)
  802000:	1885883a 	add	r2,r3,r2
  802004:	e0bffc15 	stw	r2,-16(fp)
  802008:	e0bffc17 	ldw	r2,-16(fp)
  80200c:	108000c4 	addi	r2,r2,3
  802010:	10800003 	ldbu	r2,0(r2)
  802014:	10803fcc 	andi	r2,r2,255
  802018:	1006963a 	slli	r3,r2,24
  80201c:	e0bffc17 	ldw	r2,-16(fp)
  802020:	10800084 	addi	r2,r2,2
  802024:	10800003 	ldbu	r2,0(r2)
  802028:	10803fcc 	andi	r2,r2,255
  80202c:	1004943a 	slli	r2,r2,16
  802030:	1884b03a 	or	r2,r3,r2
  802034:	e0fffc17 	ldw	r3,-16(fp)
  802038:	18c00044 	addi	r3,r3,1
  80203c:	18c00003 	ldbu	r3,0(r3)
  802040:	18c03fcc 	andi	r3,r3,255
  802044:	1806923a 	slli	r3,r3,8
  802048:	10c6b03a 	or	r3,r2,r3
  80204c:	e0bffc17 	ldw	r2,-16(fp)
  802050:	10800003 	ldbu	r2,0(r2)
  802054:	10803fcc 	andi	r2,r2,255
  802058:	1884b03a 	or	r2,r3,r2
  80205c:	10bc002c 	andhi	r2,r2,61440
  802060:	e0ffff17 	ldw	r3,-4(fp)
  802064:	1884b03a 	or	r2,r3,r2
  802068:	e0bfff15 	stw	r2,-4(fp)
  80206c:	e0bfff17 	ldw	r2,-4(fp)
  802070:	1007883a 	mov	r3,r2
  802074:	e0bffc17 	ldw	r2,-16(fp)
  802078:	10c00005 	stb	r3,0(r2)
  80207c:	e0bffc17 	ldw	r2,-16(fp)
  802080:	10800044 	addi	r2,r2,1
  802084:	e0ffff17 	ldw	r3,-4(fp)
  802088:	18ffffcc 	andi	r3,r3,65535
  80208c:	1806d23a 	srli	r3,r3,8
  802090:	10c00005 	stb	r3,0(r2)
  802094:	e0bffc17 	ldw	r2,-16(fp)
  802098:	10800084 	addi	r2,r2,2
  80209c:	e0ffff17 	ldw	r3,-4(fp)
  8020a0:	1806d43a 	srli	r3,r3,16
  8020a4:	10c00005 	stb	r3,0(r2)
  8020a8:	e0bffc17 	ldw	r2,-16(fp)
  8020ac:	108000c4 	addi	r2,r2,3
  8020b0:	e0ffff17 	ldw	r3,-4(fp)
  8020b4:	1806d63a 	srli	r3,r3,24
  8020b8:	10c00005 	stb	r3,0(r2)
  8020bc:	00000206 	br	8020c8 <put_fat+0x34c>
  8020c0:	00800084 	movi	r2,2
  8020c4:	e0bffa15 	stw	r2,-24(fp)
  8020c8:	e0bffd17 	ldw	r2,-12(fp)
  8020cc:	00c00044 	movi	r3,1
  8020d0:	10c00105 	stb	r3,4(r2)
  8020d4:	e0bffa17 	ldw	r2,-24(fp)
  8020d8:	e037883a 	mov	sp,fp
  8020dc:	dfc00117 	ldw	ra,4(sp)
  8020e0:	df000017 	ldw	fp,0(sp)
  8020e4:	dec00204 	addi	sp,sp,8
  8020e8:	f800283a 	ret

008020ec <remove_chain>:
  8020ec:	defffa04 	addi	sp,sp,-24
  8020f0:	dfc00515 	stw	ra,20(sp)
  8020f4:	df000415 	stw	fp,16(sp)
  8020f8:	df000404 	addi	fp,sp,16
  8020fc:	e13ffe15 	stw	r4,-8(fp)
  802100:	e17fff15 	stw	r5,-4(fp)
  802104:	e0bfff17 	ldw	r2,-4(fp)
  802108:	108000b0 	cmpltui	r2,r2,2
  80210c:	1000041e 	bne	r2,zero,802120 <remove_chain+0x34>
  802110:	e0bffe17 	ldw	r2,-8(fp)
  802114:	10800617 	ldw	r2,24(r2)
  802118:	e0ffff17 	ldw	r3,-4(fp)
  80211c:	18800336 	bltu	r3,r2,80212c <remove_chain+0x40>
  802120:	00800084 	movi	r2,2
  802124:	e0bffc15 	stw	r2,-16(fp)
  802128:	00002f06 	br	8021e8 <remove_chain+0xfc>
  80212c:	e03ffc15 	stw	zero,-16(fp)
  802130:	00002906 	br	8021d8 <remove_chain+0xec>
  802134:	e13ffe17 	ldw	r4,-8(fp)
  802138:	e17fff17 	ldw	r5,-4(fp)
  80213c:	0801af80 	call	801af8 <get_fat>
  802140:	e0bffd15 	stw	r2,-12(fp)
  802144:	e0bffd17 	ldw	r2,-12(fp)
  802148:	1000011e 	bne	r2,zero,802150 <remove_chain+0x64>
  80214c:	00002606 	br	8021e8 <remove_chain+0xfc>
  802150:	e0bffd17 	ldw	r2,-12(fp)
  802154:	10800058 	cmpnei	r2,r2,1
  802158:	1000031e 	bne	r2,zero,802168 <remove_chain+0x7c>
  80215c:	00800084 	movi	r2,2
  802160:	e0bffc15 	stw	r2,-16(fp)
  802164:	00002006 	br	8021e8 <remove_chain+0xfc>
  802168:	e0bffd17 	ldw	r2,-12(fp)
  80216c:	10bfffd8 	cmpnei	r2,r2,-1
  802170:	1000031e 	bne	r2,zero,802180 <remove_chain+0x94>
  802174:	00800044 	movi	r2,1
  802178:	e0bffc15 	stw	r2,-16(fp)
  80217c:	00001a06 	br	8021e8 <remove_chain+0xfc>
  802180:	e13ffe17 	ldw	r4,-8(fp)
  802184:	e17fff17 	ldw	r5,-4(fp)
  802188:	000d883a 	mov	r6,zero
  80218c:	0801d7c0 	call	801d7c <put_fat>
  802190:	e0bffc15 	stw	r2,-16(fp)
  802194:	e0bffc17 	ldw	r2,-16(fp)
  802198:	10000126 	beq	r2,zero,8021a0 <remove_chain+0xb4>
  80219c:	00001206 	br	8021e8 <remove_chain+0xfc>
  8021a0:	e0bffe17 	ldw	r2,-8(fp)
  8021a4:	10800417 	ldw	r2,16(r2)
  8021a8:	10bfffe0 	cmpeqi	r2,r2,-1
  8021ac:	1000081e 	bne	r2,zero,8021d0 <remove_chain+0xe4>
  8021b0:	e0bffe17 	ldw	r2,-8(fp)
  8021b4:	10800417 	ldw	r2,16(r2)
  8021b8:	10c00044 	addi	r3,r2,1
  8021bc:	e0bffe17 	ldw	r2,-8(fp)
  8021c0:	10c00415 	stw	r3,16(r2)
  8021c4:	e0bffe17 	ldw	r2,-8(fp)
  8021c8:	00c00044 	movi	r3,1
  8021cc:	10c00145 	stb	r3,5(r2)
  8021d0:	e0bffd17 	ldw	r2,-12(fp)
  8021d4:	e0bfff15 	stw	r2,-4(fp)
  8021d8:	e0bffe17 	ldw	r2,-8(fp)
  8021dc:	10800617 	ldw	r2,24(r2)
  8021e0:	e0ffff17 	ldw	r3,-4(fp)
  8021e4:	18bfd336 	bltu	r3,r2,802134 <__alt_data_end+0xff802134>
  8021e8:	e0bffc17 	ldw	r2,-16(fp)
  8021ec:	e037883a 	mov	sp,fp
  8021f0:	dfc00117 	ldw	ra,4(sp)
  8021f4:	df000017 	ldw	fp,0(sp)
  8021f8:	dec00204 	addi	sp,sp,8
  8021fc:	f800283a 	ret

00802200 <create_chain>:
  802200:	defff804 	addi	sp,sp,-32
  802204:	dfc00715 	stw	ra,28(sp)
  802208:	df000615 	stw	fp,24(sp)
  80220c:	df000604 	addi	fp,sp,24
  802210:	e13ffe15 	stw	r4,-8(fp)
  802214:	e17fff15 	stw	r5,-4(fp)
  802218:	e0bfff17 	ldw	r2,-4(fp)
  80221c:	10000c1e 	bne	r2,zero,802250 <create_chain+0x50>
  802220:	e0bffe17 	ldw	r2,-8(fp)
  802224:	10800317 	ldw	r2,12(r2)
  802228:	e0bffb15 	stw	r2,-20(fp)
  80222c:	e0bffb17 	ldw	r2,-20(fp)
  802230:	10000426 	beq	r2,zero,802244 <create_chain+0x44>
  802234:	e0bffe17 	ldw	r2,-8(fp)
  802238:	10800617 	ldw	r2,24(r2)
  80223c:	e0fffb17 	ldw	r3,-20(fp)
  802240:	18801436 	bltu	r3,r2,802294 <create_chain+0x94>
  802244:	00800044 	movi	r2,1
  802248:	e0bffb15 	stw	r2,-20(fp)
  80224c:	00001106 	br	802294 <create_chain+0x94>
  802250:	e13ffe17 	ldw	r4,-8(fp)
  802254:	e17fff17 	ldw	r5,-4(fp)
  802258:	0801af80 	call	801af8 <get_fat>
  80225c:	e0bffd15 	stw	r2,-12(fp)
  802260:	e0bffd17 	ldw	r2,-12(fp)
  802264:	108000a8 	cmpgeui	r2,r2,2
  802268:	1000021e 	bne	r2,zero,802274 <create_chain+0x74>
  80226c:	00800044 	movi	r2,1
  802270:	00005706 	br	8023d0 <create_chain+0x1d0>
  802274:	e0bffe17 	ldw	r2,-8(fp)
  802278:	10800617 	ldw	r2,24(r2)
  80227c:	e0fffd17 	ldw	r3,-12(fp)
  802280:	1880022e 	bgeu	r3,r2,80228c <create_chain+0x8c>
  802284:	e0bffd17 	ldw	r2,-12(fp)
  802288:	00005106 	br	8023d0 <create_chain+0x1d0>
  80228c:	e0bfff17 	ldw	r2,-4(fp)
  802290:	e0bffb15 	stw	r2,-20(fp)
  802294:	e0bffb17 	ldw	r2,-20(fp)
  802298:	e0bffa15 	stw	r2,-24(fp)
  80229c:	e0bffa17 	ldw	r2,-24(fp)
  8022a0:	10800044 	addi	r2,r2,1
  8022a4:	e0bffa15 	stw	r2,-24(fp)
  8022a8:	e0bffe17 	ldw	r2,-8(fp)
  8022ac:	10800617 	ldw	r2,24(r2)
  8022b0:	e0fffa17 	ldw	r3,-24(fp)
  8022b4:	18800736 	bltu	r3,r2,8022d4 <create_chain+0xd4>
  8022b8:	00800084 	movi	r2,2
  8022bc:	e0bffa15 	stw	r2,-24(fp)
  8022c0:	e0bffa17 	ldw	r2,-24(fp)
  8022c4:	e0fffb17 	ldw	r3,-20(fp)
  8022c8:	1880022e 	bgeu	r3,r2,8022d4 <create_chain+0xd4>
  8022cc:	0005883a 	mov	r2,zero
  8022d0:	00003f06 	br	8023d0 <create_chain+0x1d0>
  8022d4:	e13ffe17 	ldw	r4,-8(fp)
  8022d8:	e17ffa17 	ldw	r5,-24(fp)
  8022dc:	0801af80 	call	801af8 <get_fat>
  8022e0:	e0bffd15 	stw	r2,-12(fp)
  8022e4:	e0bffd17 	ldw	r2,-12(fp)
  8022e8:	10000a1e 	bne	r2,zero,802314 <create_chain+0x114>
  8022ec:	0001883a 	nop
  8022f0:	e13ffe17 	ldw	r4,-8(fp)
  8022f4:	e17ffa17 	ldw	r5,-24(fp)
  8022f8:	01840034 	movhi	r6,4096
  8022fc:	31bfffc4 	addi	r6,r6,-1
  802300:	0801d7c0 	call	801d7c <put_fat>
  802304:	e0bffc15 	stw	r2,-16(fp)
  802308:	e0bffc17 	ldw	r2,-16(fp)
  80230c:	1000161e 	bne	r2,zero,802368 <create_chain+0x168>
  802310:	00000e06 	br	80234c <create_chain+0x14c>
  802314:	e0bffd17 	ldw	r2,-12(fp)
  802318:	10bfffe0 	cmpeqi	r2,r2,-1
  80231c:	1000031e 	bne	r2,zero,80232c <create_chain+0x12c>
  802320:	e0bffd17 	ldw	r2,-12(fp)
  802324:	10800058 	cmpnei	r2,r2,1
  802328:	1000021e 	bne	r2,zero,802334 <create_chain+0x134>
  80232c:	e0bffd17 	ldw	r2,-12(fp)
  802330:	00002706 	br	8023d0 <create_chain+0x1d0>
  802334:	e0fffa17 	ldw	r3,-24(fp)
  802338:	e0bffb17 	ldw	r2,-20(fp)
  80233c:	1880021e 	bne	r3,r2,802348 <create_chain+0x148>
  802340:	0005883a 	mov	r2,zero
  802344:	00002206 	br	8023d0 <create_chain+0x1d0>
  802348:	003fd406 	br	80229c <__alt_data_end+0xff80229c>
  80234c:	e0bfff17 	ldw	r2,-4(fp)
  802350:	10000526 	beq	r2,zero,802368 <create_chain+0x168>
  802354:	e13ffe17 	ldw	r4,-8(fp)
  802358:	e17fff17 	ldw	r5,-4(fp)
  80235c:	e1bffa17 	ldw	r6,-24(fp)
  802360:	0801d7c0 	call	801d7c <put_fat>
  802364:	e0bffc15 	stw	r2,-16(fp)
  802368:	e0bffc17 	ldw	r2,-16(fp)
  80236c:	1000101e 	bne	r2,zero,8023b0 <create_chain+0x1b0>
  802370:	e0bffe17 	ldw	r2,-8(fp)
  802374:	e0fffa17 	ldw	r3,-24(fp)
  802378:	10c00315 	stw	r3,12(r2)
  80237c:	e0bffe17 	ldw	r2,-8(fp)
  802380:	10800417 	ldw	r2,16(r2)
  802384:	10bfffe0 	cmpeqi	r2,r2,-1
  802388:	1000101e 	bne	r2,zero,8023cc <create_chain+0x1cc>
  80238c:	e0bffe17 	ldw	r2,-8(fp)
  802390:	10800417 	ldw	r2,16(r2)
  802394:	10ffffc4 	addi	r3,r2,-1
  802398:	e0bffe17 	ldw	r2,-8(fp)
  80239c:	10c00415 	stw	r3,16(r2)
  8023a0:	e0bffe17 	ldw	r2,-8(fp)
  8023a4:	00c00044 	movi	r3,1
  8023a8:	10c00145 	stb	r3,5(r2)
  8023ac:	00000706 	br	8023cc <create_chain+0x1cc>
  8023b0:	e0bffc17 	ldw	r2,-16(fp)
  8023b4:	10800058 	cmpnei	r2,r2,1
  8023b8:	1000021e 	bne	r2,zero,8023c4 <create_chain+0x1c4>
  8023bc:	00bfffc4 	movi	r2,-1
  8023c0:	00000106 	br	8023c8 <create_chain+0x1c8>
  8023c4:	00800044 	movi	r2,1
  8023c8:	e0bffa15 	stw	r2,-24(fp)
  8023cc:	e0bffa17 	ldw	r2,-24(fp)
  8023d0:	e037883a 	mov	sp,fp
  8023d4:	dfc00117 	ldw	ra,4(sp)
  8023d8:	df000017 	ldw	fp,0(sp)
  8023dc:	dec00204 	addi	sp,sp,8
  8023e0:	f800283a 	ret

008023e4 <dir_sdi>:
  8023e4:	defffa04 	addi	sp,sp,-24
  8023e8:	dfc00515 	stw	ra,20(sp)
  8023ec:	df000415 	stw	fp,16(sp)
  8023f0:	df000404 	addi	fp,sp,16
  8023f4:	e13ffe15 	stw	r4,-8(fp)
  8023f8:	2805883a 	mov	r2,r5
  8023fc:	e0bfff0d 	sth	r2,-4(fp)
  802400:	e0bffe17 	ldw	r2,-8(fp)
  802404:	e0ffff0b 	ldhu	r3,-4(fp)
  802408:	10c0018d 	sth	r3,6(r2)
  80240c:	e0bffe17 	ldw	r2,-8(fp)
  802410:	10800217 	ldw	r2,8(r2)
  802414:	e0bffc15 	stw	r2,-16(fp)
  802418:	e0bffc17 	ldw	r2,-16(fp)
  80241c:	10800060 	cmpeqi	r2,r2,1
  802420:	1000051e 	bne	r2,zero,802438 <dir_sdi+0x54>
  802424:	e0bffe17 	ldw	r2,-8(fp)
  802428:	10800017 	ldw	r2,0(r2)
  80242c:	10800617 	ldw	r2,24(r2)
  802430:	e0fffc17 	ldw	r3,-16(fp)
  802434:	18800236 	bltu	r3,r2,802440 <dir_sdi+0x5c>
  802438:	00800084 	movi	r2,2
  80243c:	00005f06 	br	8025bc <dir_sdi+0x1d8>
  802440:	e0bffc17 	ldw	r2,-16(fp)
  802444:	10000a1e 	bne	r2,zero,802470 <dir_sdi+0x8c>
  802448:	e0bffe17 	ldw	r2,-8(fp)
  80244c:	10800017 	ldw	r2,0(r2)
  802450:	10800003 	ldbu	r2,0(r2)
  802454:	10803fcc 	andi	r2,r2,255
  802458:	108000d8 	cmpnei	r2,r2,3
  80245c:	1000041e 	bne	r2,zero,802470 <dir_sdi+0x8c>
  802460:	e0bffe17 	ldw	r2,-8(fp)
  802464:	10800017 	ldw	r2,0(r2)
  802468:	10800917 	ldw	r2,36(r2)
  80246c:	e0bffc15 	stw	r2,-16(fp)
  802470:	e0bffc17 	ldw	r2,-16(fp)
  802474:	1000151e 	bne	r2,zero,8024cc <dir_sdi+0xe8>
  802478:	e0bffe17 	ldw	r2,-8(fp)
  80247c:	e0fffc17 	ldw	r3,-16(fp)
  802480:	10c00315 	stw	r3,12(r2)
  802484:	e0bffe17 	ldw	r2,-8(fp)
  802488:	10800017 	ldw	r2,0(r2)
  80248c:	1080020b 	ldhu	r2,8(r2)
  802490:	10bfffcc 	andi	r2,r2,65535
  802494:	e0ffff0b 	ldhu	r3,-4(fp)
  802498:	18800236 	bltu	r3,r2,8024a4 <dir_sdi+0xc0>
  80249c:	00800084 	movi	r2,2
  8024a0:	00004606 	br	8025bc <dir_sdi+0x1d8>
  8024a4:	e0bffe17 	ldw	r2,-8(fp)
  8024a8:	10800017 	ldw	r2,0(r2)
  8024ac:	10c00917 	ldw	r3,36(r2)
  8024b0:	e0bfff0b 	ldhu	r2,-4(fp)
  8024b4:	1004d13a 	srli	r2,r2,4
  8024b8:	10bfffcc 	andi	r2,r2,65535
  8024bc:	1887883a 	add	r3,r3,r2
  8024c0:	e0bffe17 	ldw	r2,-8(fp)
  8024c4:	10c00415 	stw	r3,16(r2)
  8024c8:	00003206 	br	802594 <dir_sdi+0x1b0>
  8024cc:	e0bffe17 	ldw	r2,-8(fp)
  8024d0:	10800017 	ldw	r2,0(r2)
  8024d4:	10800083 	ldbu	r2,2(r2)
  8024d8:	10803fcc 	andi	r2,r2,255
  8024dc:	1004913a 	slli	r2,r2,4
  8024e0:	e0bffd0d 	sth	r2,-12(fp)
  8024e4:	00001906 	br	80254c <dir_sdi+0x168>
  8024e8:	e0bffe17 	ldw	r2,-8(fp)
  8024ec:	10800017 	ldw	r2,0(r2)
  8024f0:	1009883a 	mov	r4,r2
  8024f4:	e17ffc17 	ldw	r5,-16(fp)
  8024f8:	0801af80 	call	801af8 <get_fat>
  8024fc:	e0bffc15 	stw	r2,-16(fp)
  802500:	e0bffc17 	ldw	r2,-16(fp)
  802504:	10bfffd8 	cmpnei	r2,r2,-1
  802508:	1000021e 	bne	r2,zero,802514 <dir_sdi+0x130>
  80250c:	00800044 	movi	r2,1
  802510:	00002a06 	br	8025bc <dir_sdi+0x1d8>
  802514:	e0bffc17 	ldw	r2,-16(fp)
  802518:	108000b0 	cmpltui	r2,r2,2
  80251c:	1000051e 	bne	r2,zero,802534 <dir_sdi+0x150>
  802520:	e0bffe17 	ldw	r2,-8(fp)
  802524:	10800017 	ldw	r2,0(r2)
  802528:	10800617 	ldw	r2,24(r2)
  80252c:	e0fffc17 	ldw	r3,-16(fp)
  802530:	18800236 	bltu	r3,r2,80253c <dir_sdi+0x158>
  802534:	00800084 	movi	r2,2
  802538:	00002006 	br	8025bc <dir_sdi+0x1d8>
  80253c:	e0ffff0b 	ldhu	r3,-4(fp)
  802540:	e0bffd0b 	ldhu	r2,-12(fp)
  802544:	1885c83a 	sub	r2,r3,r2
  802548:	e0bfff0d 	sth	r2,-4(fp)
  80254c:	e0ffff0b 	ldhu	r3,-4(fp)
  802550:	e0bffd0b 	ldhu	r2,-12(fp)
  802554:	18bfe42e 	bgeu	r3,r2,8024e8 <__alt_data_end+0xff8024e8>
  802558:	e0bffe17 	ldw	r2,-8(fp)
  80255c:	e0fffc17 	ldw	r3,-16(fp)
  802560:	10c00315 	stw	r3,12(r2)
  802564:	e0bffe17 	ldw	r2,-8(fp)
  802568:	10800017 	ldw	r2,0(r2)
  80256c:	1009883a 	mov	r4,r2
  802570:	e17ffc17 	ldw	r5,-16(fp)
  802574:	0801a8c0 	call	801a8c <clust2sect>
  802578:	1007883a 	mov	r3,r2
  80257c:	e0bfff0b 	ldhu	r2,-4(fp)
  802580:	1004d13a 	srli	r2,r2,4
  802584:	10bfffcc 	andi	r2,r2,65535
  802588:	1887883a 	add	r3,r3,r2
  80258c:	e0bffe17 	ldw	r2,-8(fp)
  802590:	10c00415 	stw	r3,16(r2)
  802594:	e0bffe17 	ldw	r2,-8(fp)
  802598:	10c00017 	ldw	r3,0(r2)
  80259c:	e0bfff0b 	ldhu	r2,-4(fp)
  8025a0:	108003cc 	andi	r2,r2,15
  8025a4:	1004917a 	slli	r2,r2,5
  8025a8:	10800c04 	addi	r2,r2,48
  8025ac:	1887883a 	add	r3,r3,r2
  8025b0:	e0bffe17 	ldw	r2,-8(fp)
  8025b4:	10c00515 	stw	r3,20(r2)
  8025b8:	0005883a 	mov	r2,zero
  8025bc:	e037883a 	mov	sp,fp
  8025c0:	dfc00117 	ldw	ra,4(sp)
  8025c4:	df000017 	ldw	fp,0(sp)
  8025c8:	dec00204 	addi	sp,sp,8
  8025cc:	f800283a 	ret

008025d0 <dir_next>:
  8025d0:	defff904 	addi	sp,sp,-28
  8025d4:	dfc00615 	stw	ra,24(sp)
  8025d8:	df000515 	stw	fp,20(sp)
  8025dc:	dc000415 	stw	r16,16(sp)
  8025e0:	df000504 	addi	fp,sp,20
  8025e4:	e13ffd15 	stw	r4,-12(fp)
  8025e8:	e17ffe15 	stw	r5,-8(fp)
  8025ec:	e0bffd17 	ldw	r2,-12(fp)
  8025f0:	1080018b 	ldhu	r2,6(r2)
  8025f4:	10800044 	addi	r2,r2,1
  8025f8:	e0bffc8d 	sth	r2,-14(fp)
  8025fc:	e0bffc8b 	ldhu	r2,-14(fp)
  802600:	10000326 	beq	r2,zero,802610 <dir_next+0x40>
  802604:	e0bffd17 	ldw	r2,-12(fp)
  802608:	10800417 	ldw	r2,16(r2)
  80260c:	1000021e 	bne	r2,zero,802618 <dir_next+0x48>
  802610:	00800104 	movi	r2,4
  802614:	0000a206 	br	8028a0 <dir_next+0x2d0>
  802618:	e0bffc8b 	ldhu	r2,-14(fp)
  80261c:	108003cc 	andi	r2,r2,15
  802620:	10bfffcc 	andi	r2,r2,65535
  802624:	1000911e 	bne	r2,zero,80286c <dir_next+0x29c>
  802628:	e0bffd17 	ldw	r2,-12(fp)
  80262c:	10800417 	ldw	r2,16(r2)
  802630:	10c00044 	addi	r3,r2,1
  802634:	e0bffd17 	ldw	r2,-12(fp)
  802638:	10c00415 	stw	r3,16(r2)
  80263c:	e0bffd17 	ldw	r2,-12(fp)
  802640:	10800317 	ldw	r2,12(r2)
  802644:	1000081e 	bne	r2,zero,802668 <dir_next+0x98>
  802648:	e0bffd17 	ldw	r2,-12(fp)
  80264c:	10800017 	ldw	r2,0(r2)
  802650:	1080020b 	ldhu	r2,8(r2)
  802654:	10bfffcc 	andi	r2,r2,65535
  802658:	e0fffc8b 	ldhu	r3,-14(fp)
  80265c:	18808336 	bltu	r3,r2,80286c <dir_next+0x29c>
  802660:	00800104 	movi	r2,4
  802664:	00008e06 	br	8028a0 <dir_next+0x2d0>
  802668:	e0bffc8b 	ldhu	r2,-14(fp)
  80266c:	1004d13a 	srli	r2,r2,4
  802670:	10bfffcc 	andi	r2,r2,65535
  802674:	e0fffd17 	ldw	r3,-12(fp)
  802678:	18c00017 	ldw	r3,0(r3)
  80267c:	18c00083 	ldbu	r3,2(r3)
  802680:	18c03fcc 	andi	r3,r3,255
  802684:	18ffffc4 	addi	r3,r3,-1
  802688:	10c4703a 	and	r2,r2,r3
  80268c:	1000771e 	bne	r2,zero,80286c <dir_next+0x29c>
  802690:	e0bffd17 	ldw	r2,-12(fp)
  802694:	10c00017 	ldw	r3,0(r2)
  802698:	e0bffd17 	ldw	r2,-12(fp)
  80269c:	10800317 	ldw	r2,12(r2)
  8026a0:	1809883a 	mov	r4,r3
  8026a4:	100b883a 	mov	r5,r2
  8026a8:	0801af80 	call	801af8 <get_fat>
  8026ac:	e0bffb15 	stw	r2,-20(fp)
  8026b0:	e0bffb17 	ldw	r2,-20(fp)
  8026b4:	108000a8 	cmpgeui	r2,r2,2
  8026b8:	1000021e 	bne	r2,zero,8026c4 <dir_next+0xf4>
  8026bc:	00800084 	movi	r2,2
  8026c0:	00007706 	br	8028a0 <dir_next+0x2d0>
  8026c4:	e0bffb17 	ldw	r2,-20(fp)
  8026c8:	10bfffd8 	cmpnei	r2,r2,-1
  8026cc:	1000021e 	bne	r2,zero,8026d8 <dir_next+0x108>
  8026d0:	00800044 	movi	r2,1
  8026d4:	00007206 	br	8028a0 <dir_next+0x2d0>
  8026d8:	e0bffd17 	ldw	r2,-12(fp)
  8026dc:	10800017 	ldw	r2,0(r2)
  8026e0:	10800617 	ldw	r2,24(r2)
  8026e4:	e0fffb17 	ldw	r3,-20(fp)
  8026e8:	18805536 	bltu	r3,r2,802840 <dir_next+0x270>
  8026ec:	e0bffe17 	ldw	r2,-8(fp)
  8026f0:	1000021e 	bne	r2,zero,8026fc <dir_next+0x12c>
  8026f4:	00800104 	movi	r2,4
  8026f8:	00006906 	br	8028a0 <dir_next+0x2d0>
  8026fc:	e0bffd17 	ldw	r2,-12(fp)
  802700:	10c00017 	ldw	r3,0(r2)
  802704:	e0bffd17 	ldw	r2,-12(fp)
  802708:	10800317 	ldw	r2,12(r2)
  80270c:	1809883a 	mov	r4,r3
  802710:	100b883a 	mov	r5,r2
  802714:	08022000 	call	802200 <create_chain>
  802718:	e0bffb15 	stw	r2,-20(fp)
  80271c:	e0bffb17 	ldw	r2,-20(fp)
  802720:	1000021e 	bne	r2,zero,80272c <dir_next+0x15c>
  802724:	008001c4 	movi	r2,7
  802728:	00005d06 	br	8028a0 <dir_next+0x2d0>
  80272c:	e0bffb17 	ldw	r2,-20(fp)
  802730:	10800058 	cmpnei	r2,r2,1
  802734:	1000021e 	bne	r2,zero,802740 <dir_next+0x170>
  802738:	00800084 	movi	r2,2
  80273c:	00005806 	br	8028a0 <dir_next+0x2d0>
  802740:	e0bffb17 	ldw	r2,-20(fp)
  802744:	10bfffd8 	cmpnei	r2,r2,-1
  802748:	1000021e 	bne	r2,zero,802754 <dir_next+0x184>
  80274c:	00800044 	movi	r2,1
  802750:	00005306 	br	8028a0 <dir_next+0x2d0>
  802754:	e0bffd17 	ldw	r2,-12(fp)
  802758:	10800017 	ldw	r2,0(r2)
  80275c:	1009883a 	mov	r4,r2
  802760:	000b883a 	mov	r5,zero
  802764:	08017140 	call	801714 <move_window>
  802768:	10000226 	beq	r2,zero,802774 <dir_next+0x1a4>
  80276c:	00800044 	movi	r2,1
  802770:	00004b06 	br	8028a0 <dir_next+0x2d0>
  802774:	e0bffd17 	ldw	r2,-12(fp)
  802778:	10800017 	ldw	r2,0(r2)
  80277c:	10800c04 	addi	r2,r2,48
  802780:	1009883a 	mov	r4,r2
  802784:	000b883a 	mov	r5,zero
  802788:	01808004 	movi	r6,512
  80278c:	08015b40 	call	8015b4 <mem_set>
  802790:	e0bffd17 	ldw	r2,-12(fp)
  802794:	14000017 	ldw	r16,0(r2)
  802798:	e0bffd17 	ldw	r2,-12(fp)
  80279c:	10800017 	ldw	r2,0(r2)
  8027a0:	1009883a 	mov	r4,r2
  8027a4:	e17ffb17 	ldw	r5,-20(fp)
  8027a8:	0801a8c0 	call	801a8c <clust2sect>
  8027ac:	80800b15 	stw	r2,44(r16)
  8027b0:	e03ffc05 	stb	zero,-16(fp)
  8027b4:	00001406 	br	802808 <dir_next+0x238>
  8027b8:	e0bffd17 	ldw	r2,-12(fp)
  8027bc:	10800017 	ldw	r2,0(r2)
  8027c0:	00c00044 	movi	r3,1
  8027c4:	10c00105 	stb	r3,4(r2)
  8027c8:	e0bffd17 	ldw	r2,-12(fp)
  8027cc:	10800017 	ldw	r2,0(r2)
  8027d0:	1009883a 	mov	r4,r2
  8027d4:	000b883a 	mov	r5,zero
  8027d8:	08017140 	call	801714 <move_window>
  8027dc:	10000226 	beq	r2,zero,8027e8 <dir_next+0x218>
  8027e0:	00800044 	movi	r2,1
  8027e4:	00002e06 	br	8028a0 <dir_next+0x2d0>
  8027e8:	e0bffd17 	ldw	r2,-12(fp)
  8027ec:	10800017 	ldw	r2,0(r2)
  8027f0:	10c00b17 	ldw	r3,44(r2)
  8027f4:	18c00044 	addi	r3,r3,1
  8027f8:	10c00b15 	stw	r3,44(r2)
  8027fc:	e0bffc03 	ldbu	r2,-16(fp)
  802800:	10800044 	addi	r2,r2,1
  802804:	e0bffc05 	stb	r2,-16(fp)
  802808:	e0bffd17 	ldw	r2,-12(fp)
  80280c:	10800017 	ldw	r2,0(r2)
  802810:	10800083 	ldbu	r2,2(r2)
  802814:	10803fcc 	andi	r2,r2,255
  802818:	e0fffc03 	ldbu	r3,-16(fp)
  80281c:	18bfe636 	bltu	r3,r2,8027b8 <__alt_data_end+0xff8027b8>
  802820:	e0bffd17 	ldw	r2,-12(fp)
  802824:	10800017 	ldw	r2,0(r2)
  802828:	e0fffd17 	ldw	r3,-12(fp)
  80282c:	18c00017 	ldw	r3,0(r3)
  802830:	19000b17 	ldw	r4,44(r3)
  802834:	e0fffc03 	ldbu	r3,-16(fp)
  802838:	20c7c83a 	sub	r3,r4,r3
  80283c:	10c00b15 	stw	r3,44(r2)
  802840:	e0bffd17 	ldw	r2,-12(fp)
  802844:	e0fffb17 	ldw	r3,-20(fp)
  802848:	10c00315 	stw	r3,12(r2)
  80284c:	e0bffd17 	ldw	r2,-12(fp)
  802850:	10800017 	ldw	r2,0(r2)
  802854:	1009883a 	mov	r4,r2
  802858:	e17ffb17 	ldw	r5,-20(fp)
  80285c:	0801a8c0 	call	801a8c <clust2sect>
  802860:	1007883a 	mov	r3,r2
  802864:	e0bffd17 	ldw	r2,-12(fp)
  802868:	10c00415 	stw	r3,16(r2)
  80286c:	e0bffd17 	ldw	r2,-12(fp)
  802870:	e0fffc8b 	ldhu	r3,-14(fp)
  802874:	10c0018d 	sth	r3,6(r2)
  802878:	e0bffd17 	ldw	r2,-12(fp)
  80287c:	10c00017 	ldw	r3,0(r2)
  802880:	e0bffc8b 	ldhu	r2,-14(fp)
  802884:	108003cc 	andi	r2,r2,15
  802888:	1004917a 	slli	r2,r2,5
  80288c:	10800c04 	addi	r2,r2,48
  802890:	1887883a 	add	r3,r3,r2
  802894:	e0bffd17 	ldw	r2,-12(fp)
  802898:	10c00515 	stw	r3,20(r2)
  80289c:	0005883a 	mov	r2,zero
  8028a0:	e6ffff04 	addi	sp,fp,-4
  8028a4:	dfc00217 	ldw	ra,8(sp)
  8028a8:	df000117 	ldw	fp,4(sp)
  8028ac:	dc000017 	ldw	r16,0(sp)
  8028b0:	dec00304 	addi	sp,sp,12
  8028b4:	f800283a 	ret

008028b8 <dir_find>:
  8028b8:	defffa04 	addi	sp,sp,-24
  8028bc:	dfc00515 	stw	ra,20(sp)
  8028c0:	df000415 	stw	fp,16(sp)
  8028c4:	df000404 	addi	fp,sp,16
  8028c8:	e13fff15 	stw	r4,-4(fp)
  8028cc:	e13fff17 	ldw	r4,-4(fp)
  8028d0:	000b883a 	mov	r5,zero
  8028d4:	08023e40 	call	8023e4 <dir_sdi>
  8028d8:	e0bffc15 	stw	r2,-16(fp)
  8028dc:	e0bffc17 	ldw	r2,-16(fp)
  8028e0:	10000226 	beq	r2,zero,8028ec <dir_find+0x34>
  8028e4:	e0bffc17 	ldw	r2,-16(fp)
  8028e8:	00002b06 	br	802998 <dir_find+0xe0>
  8028ec:	e0bfff17 	ldw	r2,-4(fp)
  8028f0:	10c00017 	ldw	r3,0(r2)
  8028f4:	e0bfff17 	ldw	r2,-4(fp)
  8028f8:	10800417 	ldw	r2,16(r2)
  8028fc:	1809883a 	mov	r4,r3
  802900:	100b883a 	mov	r5,r2
  802904:	08017140 	call	801714 <move_window>
  802908:	e0bffc15 	stw	r2,-16(fp)
  80290c:	e0bffc17 	ldw	r2,-16(fp)
  802910:	10000126 	beq	r2,zero,802918 <dir_find+0x60>
  802914:	00001f06 	br	802994 <dir_find+0xdc>
  802918:	e0bfff17 	ldw	r2,-4(fp)
  80291c:	10800517 	ldw	r2,20(r2)
  802920:	e0bffd15 	stw	r2,-12(fp)
  802924:	e0bffd17 	ldw	r2,-12(fp)
  802928:	10800003 	ldbu	r2,0(r2)
  80292c:	e0bffe05 	stb	r2,-8(fp)
  802930:	e0bffe03 	ldbu	r2,-8(fp)
  802934:	1000031e 	bne	r2,zero,802944 <dir_find+0x8c>
  802938:	00800104 	movi	r2,4
  80293c:	e0bffc15 	stw	r2,-16(fp)
  802940:	00001406 	br	802994 <dir_find+0xdc>
  802944:	e0bffd17 	ldw	r2,-12(fp)
  802948:	108002c4 	addi	r2,r2,11
  80294c:	10800003 	ldbu	r2,0(r2)
  802950:	10803fcc 	andi	r2,r2,255
  802954:	1080020c 	andi	r2,r2,8
  802958:	1000081e 	bne	r2,zero,80297c <dir_find+0xc4>
  80295c:	e0bfff17 	ldw	r2,-4(fp)
  802960:	10800617 	ldw	r2,24(r2)
  802964:	e13ffd17 	ldw	r4,-12(fp)
  802968:	100b883a 	mov	r5,r2
  80296c:	018002c4 	movi	r6,11
  802970:	080160c0 	call	80160c <mem_cmp>
  802974:	1000011e 	bne	r2,zero,80297c <dir_find+0xc4>
  802978:	00000606 	br	802994 <dir_find+0xdc>
  80297c:	e13fff17 	ldw	r4,-4(fp)
  802980:	000b883a 	mov	r5,zero
  802984:	08025d00 	call	8025d0 <dir_next>
  802988:	e0bffc15 	stw	r2,-16(fp)
  80298c:	e0bffc17 	ldw	r2,-16(fp)
  802990:	103fd626 	beq	r2,zero,8028ec <__alt_data_end+0xff8028ec>
  802994:	e0bffc17 	ldw	r2,-16(fp)
  802998:	e037883a 	mov	sp,fp
  80299c:	dfc00117 	ldw	ra,4(sp)
  8029a0:	df000017 	ldw	fp,0(sp)
  8029a4:	dec00204 	addi	sp,sp,8
  8029a8:	f800283a 	ret

008029ac <dir_read>:
  8029ac:	defffa04 	addi	sp,sp,-24
  8029b0:	dfc00515 	stw	ra,20(sp)
  8029b4:	df000415 	stw	fp,16(sp)
  8029b8:	df000404 	addi	fp,sp,16
  8029bc:	e13fff15 	stw	r4,-4(fp)
  8029c0:	00800104 	movi	r2,4
  8029c4:	e0bffc15 	stw	r2,-16(fp)
  8029c8:	00002a06 	br	802a74 <dir_read+0xc8>
  8029cc:	e0bfff17 	ldw	r2,-4(fp)
  8029d0:	10c00017 	ldw	r3,0(r2)
  8029d4:	e0bfff17 	ldw	r2,-4(fp)
  8029d8:	10800417 	ldw	r2,16(r2)
  8029dc:	1809883a 	mov	r4,r3
  8029e0:	100b883a 	mov	r5,r2
  8029e4:	08017140 	call	801714 <move_window>
  8029e8:	e0bffc15 	stw	r2,-16(fp)
  8029ec:	e0bffc17 	ldw	r2,-16(fp)
  8029f0:	10000126 	beq	r2,zero,8029f8 <dir_read+0x4c>
  8029f4:	00002206 	br	802a80 <dir_read+0xd4>
  8029f8:	e0bfff17 	ldw	r2,-4(fp)
  8029fc:	10800517 	ldw	r2,20(r2)
  802a00:	e0bffd15 	stw	r2,-12(fp)
  802a04:	e0bffd17 	ldw	r2,-12(fp)
  802a08:	10800003 	ldbu	r2,0(r2)
  802a0c:	e0bffe05 	stb	r2,-8(fp)
  802a10:	e0bffe03 	ldbu	r2,-8(fp)
  802a14:	1000031e 	bne	r2,zero,802a24 <dir_read+0x78>
  802a18:	00800104 	movi	r2,4
  802a1c:	e0bffc15 	stw	r2,-16(fp)
  802a20:	00001706 	br	802a80 <dir_read+0xd4>
  802a24:	e0bffe03 	ldbu	r2,-8(fp)
  802a28:	10803960 	cmpeqi	r2,r2,229
  802a2c:	10000a1e 	bne	r2,zero,802a58 <dir_read+0xac>
  802a30:	e0bffe03 	ldbu	r2,-8(fp)
  802a34:	10800ba0 	cmpeqi	r2,r2,46
  802a38:	1000071e 	bne	r2,zero,802a58 <dir_read+0xac>
  802a3c:	e0bffd17 	ldw	r2,-12(fp)
  802a40:	108002c4 	addi	r2,r2,11
  802a44:	10800003 	ldbu	r2,0(r2)
  802a48:	10803fcc 	andi	r2,r2,255
  802a4c:	1080020c 	andi	r2,r2,8
  802a50:	1000011e 	bne	r2,zero,802a58 <dir_read+0xac>
  802a54:	00000a06 	br	802a80 <dir_read+0xd4>
  802a58:	e13fff17 	ldw	r4,-4(fp)
  802a5c:	000b883a 	mov	r5,zero
  802a60:	08025d00 	call	8025d0 <dir_next>
  802a64:	e0bffc15 	stw	r2,-16(fp)
  802a68:	e0bffc17 	ldw	r2,-16(fp)
  802a6c:	10000126 	beq	r2,zero,802a74 <dir_read+0xc8>
  802a70:	00000306 	br	802a80 <dir_read+0xd4>
  802a74:	e0bfff17 	ldw	r2,-4(fp)
  802a78:	10800417 	ldw	r2,16(r2)
  802a7c:	103fd31e 	bne	r2,zero,8029cc <__alt_data_end+0xff8029cc>
  802a80:	e0bffc17 	ldw	r2,-16(fp)
  802a84:	10000226 	beq	r2,zero,802a90 <dir_read+0xe4>
  802a88:	e0bfff17 	ldw	r2,-4(fp)
  802a8c:	10000415 	stw	zero,16(r2)
  802a90:	e0bffc17 	ldw	r2,-16(fp)
  802a94:	e037883a 	mov	sp,fp
  802a98:	dfc00117 	ldw	ra,4(sp)
  802a9c:	df000017 	ldw	fp,0(sp)
  802aa0:	dec00204 	addi	sp,sp,8
  802aa4:	f800283a 	ret

00802aa8 <dir_register>:
  802aa8:	defffa04 	addi	sp,sp,-24
  802aac:	dfc00515 	stw	ra,20(sp)
  802ab0:	df000415 	stw	fp,16(sp)
  802ab4:	df000404 	addi	fp,sp,16
  802ab8:	e13fff15 	stw	r4,-4(fp)
  802abc:	e13fff17 	ldw	r4,-4(fp)
  802ac0:	000b883a 	mov	r5,zero
  802ac4:	08023e40 	call	8023e4 <dir_sdi>
  802ac8:	e0bffc15 	stw	r2,-16(fp)
  802acc:	e0bffc17 	ldw	r2,-16(fp)
  802ad0:	10001a1e 	bne	r2,zero,802b3c <dir_register+0x94>
  802ad4:	e0bfff17 	ldw	r2,-4(fp)
  802ad8:	10c00017 	ldw	r3,0(r2)
  802adc:	e0bfff17 	ldw	r2,-4(fp)
  802ae0:	10800417 	ldw	r2,16(r2)
  802ae4:	1809883a 	mov	r4,r3
  802ae8:	100b883a 	mov	r5,r2
  802aec:	08017140 	call	801714 <move_window>
  802af0:	e0bffc15 	stw	r2,-16(fp)
  802af4:	e0bffc17 	ldw	r2,-16(fp)
  802af8:	10000126 	beq	r2,zero,802b00 <dir_register+0x58>
  802afc:	00000f06 	br	802b3c <dir_register+0x94>
  802b00:	e0bfff17 	ldw	r2,-4(fp)
  802b04:	10800517 	ldw	r2,20(r2)
  802b08:	10800003 	ldbu	r2,0(r2)
  802b0c:	e0bffd05 	stb	r2,-12(fp)
  802b10:	e0bffd03 	ldbu	r2,-12(fp)
  802b14:	10803960 	cmpeqi	r2,r2,229
  802b18:	1000081e 	bne	r2,zero,802b3c <dir_register+0x94>
  802b1c:	e0bffd03 	ldbu	r2,-12(fp)
  802b20:	10000626 	beq	r2,zero,802b3c <dir_register+0x94>
  802b24:	e13fff17 	ldw	r4,-4(fp)
  802b28:	01400044 	movi	r5,1
  802b2c:	08025d00 	call	8025d0 <dir_next>
  802b30:	e0bffc15 	stw	r2,-16(fp)
  802b34:	e0bffc17 	ldw	r2,-16(fp)
  802b38:	103fe626 	beq	r2,zero,802ad4 <__alt_data_end+0xff802ad4>
  802b3c:	e0bffc17 	ldw	r2,-16(fp)
  802b40:	10001b1e 	bne	r2,zero,802bb0 <dir_register+0x108>
  802b44:	e0bfff17 	ldw	r2,-4(fp)
  802b48:	10c00017 	ldw	r3,0(r2)
  802b4c:	e0bfff17 	ldw	r2,-4(fp)
  802b50:	10800417 	ldw	r2,16(r2)
  802b54:	1809883a 	mov	r4,r3
  802b58:	100b883a 	mov	r5,r2
  802b5c:	08017140 	call	801714 <move_window>
  802b60:	e0bffc15 	stw	r2,-16(fp)
  802b64:	e0bffc17 	ldw	r2,-16(fp)
  802b68:	1000111e 	bne	r2,zero,802bb0 <dir_register+0x108>
  802b6c:	e0bfff17 	ldw	r2,-4(fp)
  802b70:	10800517 	ldw	r2,20(r2)
  802b74:	e0bffe15 	stw	r2,-8(fp)
  802b78:	e13ffe17 	ldw	r4,-8(fp)
  802b7c:	000b883a 	mov	r5,zero
  802b80:	01800804 	movi	r6,32
  802b84:	08015b40 	call	8015b4 <mem_set>
  802b88:	e0bfff17 	ldw	r2,-4(fp)
  802b8c:	10800617 	ldw	r2,24(r2)
  802b90:	e13ffe17 	ldw	r4,-8(fp)
  802b94:	100b883a 	mov	r5,r2
  802b98:	018002c4 	movi	r6,11
  802b9c:	08015480 	call	801548 <mem_cpy>
  802ba0:	e0bfff17 	ldw	r2,-4(fp)
  802ba4:	10800017 	ldw	r2,0(r2)
  802ba8:	00c00044 	movi	r3,1
  802bac:	10c00105 	stb	r3,4(r2)
  802bb0:	e0bffc17 	ldw	r2,-16(fp)
  802bb4:	e037883a 	mov	sp,fp
  802bb8:	dfc00117 	ldw	ra,4(sp)
  802bbc:	df000017 	ldw	fp,0(sp)
  802bc0:	dec00204 	addi	sp,sp,8
  802bc4:	f800283a 	ret

00802bc8 <dir_remove>:
  802bc8:	defffc04 	addi	sp,sp,-16
  802bcc:	dfc00315 	stw	ra,12(sp)
  802bd0:	df000215 	stw	fp,8(sp)
  802bd4:	df000204 	addi	fp,sp,8
  802bd8:	e13fff15 	stw	r4,-4(fp)
  802bdc:	e0bfff17 	ldw	r2,-4(fp)
  802be0:	1080018b 	ldhu	r2,6(r2)
  802be4:	10bfffcc 	andi	r2,r2,65535
  802be8:	e13fff17 	ldw	r4,-4(fp)
  802bec:	100b883a 	mov	r5,r2
  802bf0:	08023e40 	call	8023e4 <dir_sdi>
  802bf4:	e0bffe15 	stw	r2,-8(fp)
  802bf8:	e0bffe17 	ldw	r2,-8(fp)
  802bfc:	1000121e 	bne	r2,zero,802c48 <dir_remove+0x80>
  802c00:	e0bfff17 	ldw	r2,-4(fp)
  802c04:	10c00017 	ldw	r3,0(r2)
  802c08:	e0bfff17 	ldw	r2,-4(fp)
  802c0c:	10800417 	ldw	r2,16(r2)
  802c10:	1809883a 	mov	r4,r3
  802c14:	100b883a 	mov	r5,r2
  802c18:	08017140 	call	801714 <move_window>
  802c1c:	e0bffe15 	stw	r2,-8(fp)
  802c20:	e0bffe17 	ldw	r2,-8(fp)
  802c24:	1000081e 	bne	r2,zero,802c48 <dir_remove+0x80>
  802c28:	e0bfff17 	ldw	r2,-4(fp)
  802c2c:	10800517 	ldw	r2,20(r2)
  802c30:	00fff944 	movi	r3,-27
  802c34:	10c00005 	stb	r3,0(r2)
  802c38:	e0bfff17 	ldw	r2,-4(fp)
  802c3c:	10800017 	ldw	r2,0(r2)
  802c40:	00c00044 	movi	r3,1
  802c44:	10c00105 	stb	r3,4(r2)
  802c48:	e0bffe17 	ldw	r2,-8(fp)
  802c4c:	e037883a 	mov	sp,fp
  802c50:	dfc00117 	ldw	ra,4(sp)
  802c54:	df000017 	ldw	fp,0(sp)
  802c58:	dec00204 	addi	sp,sp,8
  802c5c:	f800283a 	ret

00802c60 <create_name>:
  802c60:	defff604 	addi	sp,sp,-40
  802c64:	dfc00915 	stw	ra,36(sp)
  802c68:	df000815 	stw	fp,32(sp)
  802c6c:	df000804 	addi	fp,sp,32
  802c70:	e13ffe15 	stw	r4,-8(fp)
  802c74:	e17fff15 	stw	r5,-4(fp)
  802c78:	e0bfff17 	ldw	r2,-4(fp)
  802c7c:	10800017 	ldw	r2,0(r2)
  802c80:	e0bffc15 	stw	r2,-16(fp)
  802c84:	00000306 	br	802c94 <create_name+0x34>
  802c88:	e0bffc17 	ldw	r2,-16(fp)
  802c8c:	10800044 	addi	r2,r2,1
  802c90:	e0bffc15 	stw	r2,-16(fp)
  802c94:	e0bffc17 	ldw	r2,-16(fp)
  802c98:	10800003 	ldbu	r2,0(r2)
  802c9c:	10803fcc 	andi	r2,r2,255
  802ca0:	1080201c 	xori	r2,r2,128
  802ca4:	10bfe004 	addi	r2,r2,-128
  802ca8:	10800be0 	cmpeqi	r2,r2,47
  802cac:	103ff61e 	bne	r2,zero,802c88 <__alt_data_end+0xff802c88>
  802cb0:	e0bffc17 	ldw	r2,-16(fp)
  802cb4:	10800003 	ldbu	r2,0(r2)
  802cb8:	10803fcc 	andi	r2,r2,255
  802cbc:	1080201c 	xori	r2,r2,128
  802cc0:	10bfe004 	addi	r2,r2,-128
  802cc4:	10801720 	cmpeqi	r2,r2,92
  802cc8:	103fef1e 	bne	r2,zero,802c88 <__alt_data_end+0xff802c88>
  802ccc:	e0bffe17 	ldw	r2,-8(fp)
  802cd0:	10800617 	ldw	r2,24(r2)
  802cd4:	e0bffd15 	stw	r2,-12(fp)
  802cd8:	e13ffd17 	ldw	r4,-12(fp)
  802cdc:	01400804 	movi	r5,32
  802ce0:	018002c4 	movi	r6,11
  802ce4:	08015b40 	call	8015b4 <mem_set>
  802ce8:	e03ff805 	stb	zero,-32(fp)
  802cec:	e03ffb15 	stw	zero,-20(fp)
  802cf0:	e0bffb17 	ldw	r2,-20(fp)
  802cf4:	e0bffa15 	stw	r2,-24(fp)
  802cf8:	00800204 	movi	r2,8
  802cfc:	e0bff915 	stw	r2,-28(fp)
  802d00:	e0bffa17 	ldw	r2,-24(fp)
  802d04:	10c00044 	addi	r3,r2,1
  802d08:	e0fffa15 	stw	r3,-24(fp)
  802d0c:	e0fffc17 	ldw	r3,-16(fp)
  802d10:	1885883a 	add	r2,r3,r2
  802d14:	10800003 	ldbu	r2,0(r2)
  802d18:	e0bff845 	stb	r2,-31(fp)
  802d1c:	e0bff843 	ldbu	r2,-31(fp)
  802d20:	10800870 	cmpltui	r2,r2,33
  802d24:	1000521e 	bne	r2,zero,802e70 <create_name+0x210>
  802d28:	e0bff843 	ldbu	r2,-31(fp)
  802d2c:	10800be0 	cmpeqi	r2,r2,47
  802d30:	10004f1e 	bne	r2,zero,802e70 <create_name+0x210>
  802d34:	e0bff843 	ldbu	r2,-31(fp)
  802d38:	10801720 	cmpeqi	r2,r2,92
  802d3c:	10004c1e 	bne	r2,zero,802e70 <create_name+0x210>
  802d40:	e0bff843 	ldbu	r2,-31(fp)
  802d44:	10800ba0 	cmpeqi	r2,r2,46
  802d48:	1000031e 	bne	r2,zero,802d58 <create_name+0xf8>
  802d4c:	e0fffb17 	ldw	r3,-20(fp)
  802d50:	e0bff917 	ldw	r2,-28(fp)
  802d54:	18801136 	bltu	r3,r2,802d9c <create_name+0x13c>
  802d58:	e0bff917 	ldw	r2,-28(fp)
  802d5c:	10800218 	cmpnei	r2,r2,8
  802d60:	1000031e 	bne	r2,zero,802d70 <create_name+0x110>
  802d64:	e0bff843 	ldbu	r2,-31(fp)
  802d68:	10800ba0 	cmpeqi	r2,r2,46
  802d6c:	1000021e 	bne	r2,zero,802d78 <create_name+0x118>
  802d70:	00800184 	movi	r2,6
  802d74:	00007006 	br	802f38 <create_name+0x2d8>
  802d78:	00800204 	movi	r2,8
  802d7c:	e0bffb15 	stw	r2,-20(fp)
  802d80:	008002c4 	movi	r2,11
  802d84:	e0bff915 	stw	r2,-28(fp)
  802d88:	e0bff803 	ldbu	r2,-32(fp)
  802d8c:	1085883a 	add	r2,r2,r2
  802d90:	1085883a 	add	r2,r2,r2
  802d94:	e0bff805 	stb	r2,-32(fp)
  802d98:	00003406 	br	802e6c <create_name+0x20c>
  802d9c:	e0bff843 	ldbu	r2,-31(fp)
  802da0:	10803fcc 	andi	r2,r2,255
  802da4:	1080201c 	xori	r2,r2,128
  802da8:	10bfe004 	addi	r2,r2,-128
  802dac:	10000a0e 	bge	r2,zero,802dd8 <create_name+0x178>
  802db0:	e0bff803 	ldbu	r2,-32(fp)
  802db4:	108000d4 	ori	r2,r2,3
  802db8:	e0bff805 	stb	r2,-32(fp)
  802dbc:	e0bff843 	ldbu	r2,-31(fp)
  802dc0:	10ffe004 	addi	r3,r2,-128
  802dc4:	00802074 	movhi	r2,129
  802dc8:	1082f004 	addi	r2,r2,3008
  802dcc:	10c5883a 	add	r2,r2,r3
  802dd0:	10800003 	ldbu	r2,0(r2)
  802dd4:	e0bff845 	stb	r2,-31(fp)
  802dd8:	e0bff843 	ldbu	r2,-31(fp)
  802ddc:	01002074 	movhi	r4,129
  802de0:	2102df04 	addi	r4,r4,2940
  802de4:	100b883a 	mov	r5,r2
  802de8:	08016980 	call	801698 <chk_chr>
  802dec:	10000226 	beq	r2,zero,802df8 <create_name+0x198>
  802df0:	00800184 	movi	r2,6
  802df4:	00005006 	br	802f38 <create_name+0x2d8>
  802df8:	e0bff843 	ldbu	r2,-31(fp)
  802dfc:	10801070 	cmpltui	r2,r2,65
  802e00:	1000071e 	bne	r2,zero,802e20 <create_name+0x1c0>
  802e04:	e0bff843 	ldbu	r2,-31(fp)
  802e08:	108016e8 	cmpgeui	r2,r2,91
  802e0c:	1000041e 	bne	r2,zero,802e20 <create_name+0x1c0>
  802e10:	e0bff803 	ldbu	r2,-32(fp)
  802e14:	10800094 	ori	r2,r2,2
  802e18:	e0bff805 	stb	r2,-32(fp)
  802e1c:	00000c06 	br	802e50 <create_name+0x1f0>
  802e20:	e0bff843 	ldbu	r2,-31(fp)
  802e24:	10801870 	cmpltui	r2,r2,97
  802e28:	1000091e 	bne	r2,zero,802e50 <create_name+0x1f0>
  802e2c:	e0bff843 	ldbu	r2,-31(fp)
  802e30:	10801ee8 	cmpgeui	r2,r2,123
  802e34:	1000061e 	bne	r2,zero,802e50 <create_name+0x1f0>
  802e38:	e0bff803 	ldbu	r2,-32(fp)
  802e3c:	10800054 	ori	r2,r2,1
  802e40:	e0bff805 	stb	r2,-32(fp)
  802e44:	e0bff843 	ldbu	r2,-31(fp)
  802e48:	10bff804 	addi	r2,r2,-32
  802e4c:	e0bff845 	stb	r2,-31(fp)
  802e50:	e0bffb17 	ldw	r2,-20(fp)
  802e54:	10c00044 	addi	r3,r2,1
  802e58:	e0fffb15 	stw	r3,-20(fp)
  802e5c:	e0fffd17 	ldw	r3,-12(fp)
  802e60:	1885883a 	add	r2,r3,r2
  802e64:	e0fff843 	ldbu	r3,-31(fp)
  802e68:	10c00005 	stb	r3,0(r2)
  802e6c:	003fa406 	br	802d00 <__alt_data_end+0xff802d00>
  802e70:	e0fffc17 	ldw	r3,-16(fp)
  802e74:	e0bffa17 	ldw	r2,-24(fp)
  802e78:	1887883a 	add	r3,r3,r2
  802e7c:	e0bfff17 	ldw	r2,-4(fp)
  802e80:	10c00015 	stw	r3,0(r2)
  802e84:	e0bff843 	ldbu	r2,-31(fp)
  802e88:	10800868 	cmpgeui	r2,r2,33
  802e8c:	1000021e 	bne	r2,zero,802e98 <create_name+0x238>
  802e90:	00800104 	movi	r2,4
  802e94:	00000106 	br	802e9c <create_name+0x23c>
  802e98:	0005883a 	mov	r2,zero
  802e9c:	e0bff845 	stb	r2,-31(fp)
  802ea0:	e0bffb17 	ldw	r2,-20(fp)
  802ea4:	1000021e 	bne	r2,zero,802eb0 <create_name+0x250>
  802ea8:	00800184 	movi	r2,6
  802eac:	00002206 	br	802f38 <create_name+0x2d8>
  802eb0:	e0bffd17 	ldw	r2,-12(fp)
  802eb4:	10800003 	ldbu	r2,0(r2)
  802eb8:	10803fcc 	andi	r2,r2,255
  802ebc:	10803958 	cmpnei	r2,r2,229
  802ec0:	1000031e 	bne	r2,zero,802ed0 <create_name+0x270>
  802ec4:	e0bffd17 	ldw	r2,-12(fp)
  802ec8:	00c00144 	movi	r3,5
  802ecc:	10c00005 	stb	r3,0(r2)
  802ed0:	e0bff917 	ldw	r2,-28(fp)
  802ed4:	10800218 	cmpnei	r2,r2,8
  802ed8:	1000041e 	bne	r2,zero,802eec <create_name+0x28c>
  802edc:	e0bff803 	ldbu	r2,-32(fp)
  802ee0:	1085883a 	add	r2,r2,r2
  802ee4:	1085883a 	add	r2,r2,r2
  802ee8:	e0bff805 	stb	r2,-32(fp)
  802eec:	e0bff803 	ldbu	r2,-32(fp)
  802ef0:	108000cc 	andi	r2,r2,3
  802ef4:	10800058 	cmpnei	r2,r2,1
  802ef8:	1000031e 	bne	r2,zero,802f08 <create_name+0x2a8>
  802efc:	e0bff843 	ldbu	r2,-31(fp)
  802f00:	10800414 	ori	r2,r2,16
  802f04:	e0bff845 	stb	r2,-31(fp)
  802f08:	e0bff803 	ldbu	r2,-32(fp)
  802f0c:	1080030c 	andi	r2,r2,12
  802f10:	10800118 	cmpnei	r2,r2,4
  802f14:	1000031e 	bne	r2,zero,802f24 <create_name+0x2c4>
  802f18:	e0bff843 	ldbu	r2,-31(fp)
  802f1c:	10800214 	ori	r2,r2,8
  802f20:	e0bff845 	stb	r2,-31(fp)
  802f24:	e0bffd17 	ldw	r2,-12(fp)
  802f28:	108002c4 	addi	r2,r2,11
  802f2c:	e0fff843 	ldbu	r3,-31(fp)
  802f30:	10c00005 	stb	r3,0(r2)
  802f34:	0005883a 	mov	r2,zero
  802f38:	e037883a 	mov	sp,fp
  802f3c:	dfc00117 	ldw	ra,4(sp)
  802f40:	df000017 	ldw	fp,0(sp)
  802f44:	dec00204 	addi	sp,sp,8
  802f48:	f800283a 	ret

00802f4c <get_fileinfo>:
  802f4c:	defff804 	addi	sp,sp,-32
  802f50:	df000715 	stw	fp,28(sp)
  802f54:	df000704 	addi	fp,sp,28
  802f58:	e13ffe15 	stw	r4,-8(fp)
  802f5c:	e17fff15 	stw	r5,-4(fp)
  802f60:	e0bfff17 	ldw	r2,-4(fp)
  802f64:	10800244 	addi	r2,r2,9
  802f68:	e0bffa15 	stw	r2,-24(fp)
  802f6c:	e0bffe17 	ldw	r2,-8(fp)
  802f70:	10800417 	ldw	r2,16(r2)
  802f74:	10007b26 	beq	r2,zero,803164 <get_fileinfo+0x218>
  802f78:	e0bffe17 	ldw	r2,-8(fp)
  802f7c:	10800517 	ldw	r2,20(r2)
  802f80:	e0bffc15 	stw	r2,-16(fp)
  802f84:	e0bffc17 	ldw	r2,-16(fp)
  802f88:	10800303 	ldbu	r2,12(r2)
  802f8c:	e0bffd05 	stb	r2,-12(fp)
  802f90:	e03ff915 	stw	zero,-28(fp)
  802f94:	00001606 	br	802ff0 <get_fileinfo+0xa4>
  802f98:	e0fffc17 	ldw	r3,-16(fp)
  802f9c:	e0bff917 	ldw	r2,-28(fp)
  802fa0:	1885883a 	add	r2,r3,r2
  802fa4:	10800003 	ldbu	r2,0(r2)
  802fa8:	e0bffb05 	stb	r2,-20(fp)
  802fac:	e0bffb07 	ldb	r2,-20(fp)
  802fb0:	10800818 	cmpnei	r2,r2,32
  802fb4:	1000011e 	bne	r2,zero,802fbc <get_fileinfo+0x70>
  802fb8:	00001006 	br	802ffc <get_fileinfo+0xb0>
  802fbc:	e0bffb07 	ldb	r2,-20(fp)
  802fc0:	10800158 	cmpnei	r2,r2,5
  802fc4:	1000021e 	bne	r2,zero,802fd0 <get_fileinfo+0x84>
  802fc8:	00bff944 	movi	r2,-27
  802fcc:	e0bffb05 	stb	r2,-20(fp)
  802fd0:	e0bffa17 	ldw	r2,-24(fp)
  802fd4:	10c00044 	addi	r3,r2,1
  802fd8:	e0fffa15 	stw	r3,-24(fp)
  802fdc:	e0fffb03 	ldbu	r3,-20(fp)
  802fe0:	10c00005 	stb	r3,0(r2)
  802fe4:	e0bff917 	ldw	r2,-28(fp)
  802fe8:	10800044 	addi	r2,r2,1
  802fec:	e0bff915 	stw	r2,-28(fp)
  802ff0:	e0bff917 	ldw	r2,-28(fp)
  802ff4:	10800230 	cmpltui	r2,r2,8
  802ff8:	103fe71e 	bne	r2,zero,802f98 <__alt_data_end+0xff802f98>
  802ffc:	e0bffc17 	ldw	r2,-16(fp)
  803000:	10800204 	addi	r2,r2,8
  803004:	10800003 	ldbu	r2,0(r2)
  803008:	10803fcc 	andi	r2,r2,255
  80300c:	10800820 	cmpeqi	r2,r2,32
  803010:	10001c1e 	bne	r2,zero,803084 <get_fileinfo+0x138>
  803014:	e0bffa17 	ldw	r2,-24(fp)
  803018:	10c00044 	addi	r3,r2,1
  80301c:	e0fffa15 	stw	r3,-24(fp)
  803020:	00c00b84 	movi	r3,46
  803024:	10c00005 	stb	r3,0(r2)
  803028:	00800204 	movi	r2,8
  80302c:	e0bff915 	stw	r2,-28(fp)
  803030:	00001106 	br	803078 <get_fileinfo+0x12c>
  803034:	e0fffc17 	ldw	r3,-16(fp)
  803038:	e0bff917 	ldw	r2,-28(fp)
  80303c:	1885883a 	add	r2,r3,r2
  803040:	10800003 	ldbu	r2,0(r2)
  803044:	e0bffb05 	stb	r2,-20(fp)
  803048:	e0bffb07 	ldb	r2,-20(fp)
  80304c:	10800818 	cmpnei	r2,r2,32
  803050:	1000011e 	bne	r2,zero,803058 <get_fileinfo+0x10c>
  803054:	00000b06 	br	803084 <get_fileinfo+0x138>
  803058:	e0bffa17 	ldw	r2,-24(fp)
  80305c:	10c00044 	addi	r3,r2,1
  803060:	e0fffa15 	stw	r3,-24(fp)
  803064:	e0fffb03 	ldbu	r3,-20(fp)
  803068:	10c00005 	stb	r3,0(r2)
  80306c:	e0bff917 	ldw	r2,-28(fp)
  803070:	10800044 	addi	r2,r2,1
  803074:	e0bff915 	stw	r2,-28(fp)
  803078:	e0bff917 	ldw	r2,-28(fp)
  80307c:	108002f0 	cmpltui	r2,r2,11
  803080:	103fec1e 	bne	r2,zero,803034 <__alt_data_end+0xff803034>
  803084:	e0bffc17 	ldw	r2,-16(fp)
  803088:	10c002c3 	ldbu	r3,11(r2)
  80308c:	e0bfff17 	ldw	r2,-4(fp)
  803090:	10c00205 	stb	r3,8(r2)
  803094:	e0bffc17 	ldw	r2,-16(fp)
  803098:	108007c4 	addi	r2,r2,31
  80309c:	10800003 	ldbu	r2,0(r2)
  8030a0:	10803fcc 	andi	r2,r2,255
  8030a4:	1006963a 	slli	r3,r2,24
  8030a8:	e0bffc17 	ldw	r2,-16(fp)
  8030ac:	10800784 	addi	r2,r2,30
  8030b0:	10800003 	ldbu	r2,0(r2)
  8030b4:	10803fcc 	andi	r2,r2,255
  8030b8:	1004943a 	slli	r2,r2,16
  8030bc:	1884b03a 	or	r2,r3,r2
  8030c0:	e0fffc17 	ldw	r3,-16(fp)
  8030c4:	18c00744 	addi	r3,r3,29
  8030c8:	18c00003 	ldbu	r3,0(r3)
  8030cc:	18c03fcc 	andi	r3,r3,255
  8030d0:	1806923a 	slli	r3,r3,8
  8030d4:	10c6b03a 	or	r3,r2,r3
  8030d8:	e0bffc17 	ldw	r2,-16(fp)
  8030dc:	10800704 	addi	r2,r2,28
  8030e0:	10800003 	ldbu	r2,0(r2)
  8030e4:	10803fcc 	andi	r2,r2,255
  8030e8:	1886b03a 	or	r3,r3,r2
  8030ec:	e0bfff17 	ldw	r2,-4(fp)
  8030f0:	10c00015 	stw	r3,0(r2)
  8030f4:	e0bffc17 	ldw	r2,-16(fp)
  8030f8:	10800644 	addi	r2,r2,25
  8030fc:	10800003 	ldbu	r2,0(r2)
  803100:	10803fcc 	andi	r2,r2,255
  803104:	1004923a 	slli	r2,r2,8
  803108:	1007883a 	mov	r3,r2
  80310c:	e0bffc17 	ldw	r2,-16(fp)
  803110:	10800604 	addi	r2,r2,24
  803114:	10800003 	ldbu	r2,0(r2)
  803118:	10803fcc 	andi	r2,r2,255
  80311c:	1884b03a 	or	r2,r3,r2
  803120:	1007883a 	mov	r3,r2
  803124:	e0bfff17 	ldw	r2,-4(fp)
  803128:	10c0010d 	sth	r3,4(r2)
  80312c:	e0bffc17 	ldw	r2,-16(fp)
  803130:	108005c4 	addi	r2,r2,23
  803134:	10800003 	ldbu	r2,0(r2)
  803138:	10803fcc 	andi	r2,r2,255
  80313c:	1004923a 	slli	r2,r2,8
  803140:	1007883a 	mov	r3,r2
  803144:	e0bffc17 	ldw	r2,-16(fp)
  803148:	10800584 	addi	r2,r2,22
  80314c:	10800003 	ldbu	r2,0(r2)
  803150:	10803fcc 	andi	r2,r2,255
  803154:	1884b03a 	or	r2,r3,r2
  803158:	1007883a 	mov	r3,r2
  80315c:	e0bfff17 	ldw	r2,-4(fp)
  803160:	10c0018d 	sth	r3,6(r2)
  803164:	e0bffa17 	ldw	r2,-24(fp)
  803168:	10000005 	stb	zero,0(r2)
  80316c:	e037883a 	mov	sp,fp
  803170:	df000017 	ldw	fp,0(sp)
  803174:	dec00104 	addi	sp,sp,4
  803178:	f800283a 	ret

0080317c <follow_path>:
  80317c:	defff904 	addi	sp,sp,-28
  803180:	dfc00615 	stw	ra,24(sp)
  803184:	df000515 	stw	fp,20(sp)
  803188:	df000504 	addi	fp,sp,20
  80318c:	e13ffe15 	stw	r4,-8(fp)
  803190:	e17fff15 	stw	r5,-4(fp)
  803194:	e0bfff17 	ldw	r2,-4(fp)
  803198:	10800003 	ldbu	r2,0(r2)
  80319c:	10803fcc 	andi	r2,r2,255
  8031a0:	1080201c 	xori	r2,r2,128
  8031a4:	10bfe004 	addi	r2,r2,-128
  8031a8:	10800be0 	cmpeqi	r2,r2,47
  8031ac:	1000071e 	bne	r2,zero,8031cc <follow_path+0x50>
  8031b0:	e0bfff17 	ldw	r2,-4(fp)
  8031b4:	10800003 	ldbu	r2,0(r2)
  8031b8:	10803fcc 	andi	r2,r2,255
  8031bc:	1080201c 	xori	r2,r2,128
  8031c0:	10bfe004 	addi	r2,r2,-128
  8031c4:	10801718 	cmpnei	r2,r2,92
  8031c8:	1000031e 	bne	r2,zero,8031d8 <follow_path+0x5c>
  8031cc:	e0bfff17 	ldw	r2,-4(fp)
  8031d0:	10800044 	addi	r2,r2,1
  8031d4:	e0bfff15 	stw	r2,-4(fp)
  8031d8:	e0bffe17 	ldw	r2,-8(fp)
  8031dc:	10000215 	stw	zero,8(r2)
  8031e0:	e0bfff17 	ldw	r2,-4(fp)
  8031e4:	10800003 	ldbu	r2,0(r2)
  8031e8:	10803fcc 	andi	r2,r2,255
  8031ec:	10800828 	cmpgeui	r2,r2,32
  8031f0:	1000071e 	bne	r2,zero,803210 <follow_path+0x94>
  8031f4:	e13ffe17 	ldw	r4,-8(fp)
  8031f8:	000b883a 	mov	r5,zero
  8031fc:	08023e40 	call	8023e4 <dir_sdi>
  803200:	e0bffb15 	stw	r2,-20(fp)
  803204:	e0bffe17 	ldw	r2,-8(fp)
  803208:	10000515 	stw	zero,20(r2)
  80320c:	00004906 	br	803334 <follow_path+0x1b8>
  803210:	e0bfff04 	addi	r2,fp,-4
  803214:	e13ffe17 	ldw	r4,-8(fp)
  803218:	100b883a 	mov	r5,r2
  80321c:	0802c600 	call	802c60 <create_name>
  803220:	e0bffb15 	stw	r2,-20(fp)
  803224:	e0bffb17 	ldw	r2,-20(fp)
  803228:	10000126 	beq	r2,zero,803230 <follow_path+0xb4>
  80322c:	00004106 	br	803334 <follow_path+0x1b8>
  803230:	e13ffe17 	ldw	r4,-8(fp)
  803234:	08028b80 	call	8028b8 <dir_find>
  803238:	e0bffb15 	stw	r2,-20(fp)
  80323c:	e0bffe17 	ldw	r2,-8(fp)
  803240:	10800617 	ldw	r2,24(r2)
  803244:	108002c3 	ldbu	r2,11(r2)
  803248:	e0bffc05 	stb	r2,-16(fp)
  80324c:	e0bffb17 	ldw	r2,-20(fp)
  803250:	10000b26 	beq	r2,zero,803280 <follow_path+0x104>
  803254:	e0bffb17 	ldw	r2,-20(fp)
  803258:	10800120 	cmpeqi	r2,r2,4
  80325c:	1000011e 	bne	r2,zero,803264 <follow_path+0xe8>
  803260:	00003406 	br	803334 <follow_path+0x1b8>
  803264:	e0bffc03 	ldbu	r2,-16(fp)
  803268:	1080010c 	andi	r2,r2,4
  80326c:	1000031e 	bne	r2,zero,80327c <follow_path+0x100>
  803270:	00800144 	movi	r2,5
  803274:	e0bffb15 	stw	r2,-20(fp)
  803278:	00002e06 	br	803334 <follow_path+0x1b8>
  80327c:	00002d06 	br	803334 <follow_path+0x1b8>
  803280:	e0bffc03 	ldbu	r2,-16(fp)
  803284:	1080010c 	andi	r2,r2,4
  803288:	10000126 	beq	r2,zero,803290 <follow_path+0x114>
  80328c:	00002906 	br	803334 <follow_path+0x1b8>
  803290:	e0bffe17 	ldw	r2,-8(fp)
  803294:	10800517 	ldw	r2,20(r2)
  803298:	e0bffd15 	stw	r2,-12(fp)
  80329c:	e0bffd17 	ldw	r2,-12(fp)
  8032a0:	108002c4 	addi	r2,r2,11
  8032a4:	10800003 	ldbu	r2,0(r2)
  8032a8:	10803fcc 	andi	r2,r2,255
  8032ac:	1080040c 	andi	r2,r2,16
  8032b0:	1000031e 	bne	r2,zero,8032c0 <follow_path+0x144>
  8032b4:	00800144 	movi	r2,5
  8032b8:	e0bffb15 	stw	r2,-20(fp)
  8032bc:	00001d06 	br	803334 <follow_path+0x1b8>
  8032c0:	e0bffd17 	ldw	r2,-12(fp)
  8032c4:	10800544 	addi	r2,r2,21
  8032c8:	10800003 	ldbu	r2,0(r2)
  8032cc:	10803fcc 	andi	r2,r2,255
  8032d0:	1004923a 	slli	r2,r2,8
  8032d4:	1007883a 	mov	r3,r2
  8032d8:	e0bffd17 	ldw	r2,-12(fp)
  8032dc:	10800504 	addi	r2,r2,20
  8032e0:	10800003 	ldbu	r2,0(r2)
  8032e4:	10803fcc 	andi	r2,r2,255
  8032e8:	1884b03a 	or	r2,r3,r2
  8032ec:	10bfffcc 	andi	r2,r2,65535
  8032f0:	1006943a 	slli	r3,r2,16
  8032f4:	e0bffd17 	ldw	r2,-12(fp)
  8032f8:	108006c4 	addi	r2,r2,27
  8032fc:	10800003 	ldbu	r2,0(r2)
  803300:	10803fcc 	andi	r2,r2,255
  803304:	1004923a 	slli	r2,r2,8
  803308:	1009883a 	mov	r4,r2
  80330c:	e0bffd17 	ldw	r2,-12(fp)
  803310:	10800684 	addi	r2,r2,26
  803314:	10800003 	ldbu	r2,0(r2)
  803318:	10803fcc 	andi	r2,r2,255
  80331c:	2084b03a 	or	r2,r4,r2
  803320:	10bfffcc 	andi	r2,r2,65535
  803324:	1886b03a 	or	r3,r3,r2
  803328:	e0bffe17 	ldw	r2,-8(fp)
  80332c:	10c00215 	stw	r3,8(r2)
  803330:	003fb706 	br	803210 <__alt_data_end+0xff803210>
  803334:	e0bffb17 	ldw	r2,-20(fp)
  803338:	e037883a 	mov	sp,fp
  80333c:	dfc00117 	ldw	ra,4(sp)
  803340:	df000017 	ldw	fp,0(sp)
  803344:	dec00204 	addi	sp,sp,8
  803348:	f800283a 	ret

0080334c <check_fs>:
  80334c:	defffc04 	addi	sp,sp,-16
  803350:	dfc00315 	stw	ra,12(sp)
  803354:	df000215 	stw	fp,8(sp)
  803358:	df000204 	addi	fp,sp,8
  80335c:	e13ffe15 	stw	r4,-8(fp)
  803360:	e17fff15 	stw	r5,-4(fp)
  803364:	e0bffe17 	ldw	r2,-8(fp)
  803368:	10800043 	ldbu	r2,1(r2)
  80336c:	10c03fcc 	andi	r3,r2,255
  803370:	e0bffe17 	ldw	r2,-8(fp)
  803374:	10800c04 	addi	r2,r2,48
  803378:	1809883a 	mov	r4,r3
  80337c:	100b883a 	mov	r5,r2
  803380:	e1bfff17 	ldw	r6,-4(fp)
  803384:	01c00044 	movi	r7,1
  803388:	0800dec0 	call	800dec <ffs_DiskIORead>
  80338c:	10000226 	beq	r2,zero,803398 <check_fs+0x4c>
  803390:	008000c4 	movi	r2,3
  803394:	00004506 	br	8034ac <check_fs+0x160>
  803398:	e0bffe17 	ldw	r2,-8(fp)
  80339c:	10808bc3 	ldbu	r2,559(r2)
  8033a0:	10803fcc 	andi	r2,r2,255
  8033a4:	1004923a 	slli	r2,r2,8
  8033a8:	1007883a 	mov	r3,r2
  8033ac:	e0bffe17 	ldw	r2,-8(fp)
  8033b0:	10808b83 	ldbu	r2,558(r2)
  8033b4:	10803fcc 	andi	r2,r2,255
  8033b8:	1884b03a 	or	r2,r3,r2
  8033bc:	10bfffcc 	andi	r2,r2,65535
  8033c0:	10a0001c 	xori	r2,r2,32768
  8033c4:	10a00004 	addi	r2,r2,-32768
  8033c8:	10aa9560 	cmpeqi	r2,r2,-21931
  8033cc:	1000021e 	bne	r2,zero,8033d8 <check_fs+0x8c>
  8033d0:	00800084 	movi	r2,2
  8033d4:	00003506 	br	8034ac <check_fs+0x160>
  8033d8:	e0bffe17 	ldw	r2,-8(fp)
  8033dc:	10801a43 	ldbu	r2,105(r2)
  8033e0:	10803fcc 	andi	r2,r2,255
  8033e4:	1006963a 	slli	r3,r2,24
  8033e8:	e0bffe17 	ldw	r2,-8(fp)
  8033ec:	10801a03 	ldbu	r2,104(r2)
  8033f0:	10803fcc 	andi	r2,r2,255
  8033f4:	1004943a 	slli	r2,r2,16
  8033f8:	1884b03a 	or	r2,r3,r2
  8033fc:	e0fffe17 	ldw	r3,-8(fp)
  803400:	18c019c3 	ldbu	r3,103(r3)
  803404:	18c03fcc 	andi	r3,r3,255
  803408:	1806923a 	slli	r3,r3,8
  80340c:	10c6b03a 	or	r3,r2,r3
  803410:	e0bffe17 	ldw	r2,-8(fp)
  803414:	10801983 	ldbu	r2,102(r2)
  803418:	10803fcc 	andi	r2,r2,255
  80341c:	1886b03a 	or	r3,r3,r2
  803420:	00804034 	movhi	r2,256
  803424:	10bfffc4 	addi	r2,r2,-1
  803428:	1886703a 	and	r3,r3,r2
  80342c:	00801534 	movhi	r2,84
  803430:	10905184 	addi	r2,r2,16710
  803434:	1880021e 	bne	r3,r2,803440 <check_fs+0xf4>
  803438:	0005883a 	mov	r2,zero
  80343c:	00001b06 	br	8034ac <check_fs+0x160>
  803440:	e0bffe17 	ldw	r2,-8(fp)
  803444:	10802143 	ldbu	r2,133(r2)
  803448:	10803fcc 	andi	r2,r2,255
  80344c:	1006963a 	slli	r3,r2,24
  803450:	e0bffe17 	ldw	r2,-8(fp)
  803454:	10802103 	ldbu	r2,132(r2)
  803458:	10803fcc 	andi	r2,r2,255
  80345c:	1004943a 	slli	r2,r2,16
  803460:	1884b03a 	or	r2,r3,r2
  803464:	e0fffe17 	ldw	r3,-8(fp)
  803468:	18c020c3 	ldbu	r3,131(r3)
  80346c:	18c03fcc 	andi	r3,r3,255
  803470:	1806923a 	slli	r3,r3,8
  803474:	10c6b03a 	or	r3,r2,r3
  803478:	e0bffe17 	ldw	r2,-8(fp)
  80347c:	10802083 	ldbu	r2,130(r2)
  803480:	10803fcc 	andi	r2,r2,255
  803484:	1886b03a 	or	r3,r3,r2
  803488:	00804034 	movhi	r2,256
  80348c:	10bfffc4 	addi	r2,r2,-1
  803490:	1886703a 	and	r3,r3,r2
  803494:	00801534 	movhi	r2,84
  803498:	10905184 	addi	r2,r2,16710
  80349c:	1880021e 	bne	r3,r2,8034a8 <check_fs+0x15c>
  8034a0:	0005883a 	mov	r2,zero
  8034a4:	00000106 	br	8034ac <check_fs+0x160>
  8034a8:	00800044 	movi	r2,1
  8034ac:	e037883a 	mov	sp,fp
  8034b0:	dfc00117 	ldw	ra,4(sp)
  8034b4:	df000017 	ldw	fp,0(sp)
  8034b8:	dec00204 	addi	sp,sp,8
  8034bc:	f800283a 	ret

008034c0 <chk_mounted>:
  8034c0:	deffee04 	addi	sp,sp,-72
  8034c4:	dfc01115 	stw	ra,68(sp)
  8034c8:	df001015 	stw	fp,64(sp)
  8034cc:	df001004 	addi	fp,sp,64
  8034d0:	e13ffd15 	stw	r4,-12(fp)
  8034d4:	e17ffe15 	stw	r5,-8(fp)
  8034d8:	3005883a 	mov	r2,r6
  8034dc:	e0bfff05 	stb	r2,-4(fp)
  8034e0:	e0bffd17 	ldw	r2,-12(fp)
  8034e4:	10800017 	ldw	r2,0(r2)
  8034e8:	e0bff615 	stw	r2,-40(fp)
  8034ec:	e0bff617 	ldw	r2,-40(fp)
  8034f0:	10800003 	ldbu	r2,0(r2)
  8034f4:	10803fcc 	andi	r2,r2,255
  8034f8:	1080201c 	xori	r2,r2,128
  8034fc:	10bfe004 	addi	r2,r2,-128
  803500:	10bff404 	addi	r2,r2,-48
  803504:	e0bff115 	stw	r2,-60(fp)
  803508:	e0bff117 	ldw	r2,-60(fp)
  80350c:	108002a8 	cmpgeui	r2,r2,10
  803510:	10000f1e 	bne	r2,zero,803550 <chk_mounted+0x90>
  803514:	e0bff617 	ldw	r2,-40(fp)
  803518:	10800044 	addi	r2,r2,1
  80351c:	10800003 	ldbu	r2,0(r2)
  803520:	10803fcc 	andi	r2,r2,255
  803524:	1080201c 	xori	r2,r2,128
  803528:	10bfe004 	addi	r2,r2,-128
  80352c:	10800e98 	cmpnei	r2,r2,58
  803530:	1000071e 	bne	r2,zero,803550 <chk_mounted+0x90>
  803534:	e0bff617 	ldw	r2,-40(fp)
  803538:	10800084 	addi	r2,r2,2
  80353c:	e0bff615 	stw	r2,-40(fp)
  803540:	e0bffd17 	ldw	r2,-12(fp)
  803544:	e0fff617 	ldw	r3,-40(fp)
  803548:	10c00015 	stw	r3,0(r2)
  80354c:	00000106 	br	803554 <chk_mounted+0x94>
  803550:	e03ff115 	stw	zero,-60(fp)
  803554:	e0bff117 	ldw	r2,-60(fp)
  803558:	10000226 	beq	r2,zero,803564 <chk_mounted+0xa4>
  80355c:	008002c4 	movi	r2,11
  803560:	00022106 	br	803de8 <chk_mounted+0x928>
  803564:	e0bff117 	ldw	r2,-60(fp)
  803568:	1085883a 	add	r2,r2,r2
  80356c:	1087883a 	add	r3,r2,r2
  803570:	d0a33904 	addi	r2,gp,-29468
  803574:	1885883a 	add	r2,r3,r2
  803578:	10800017 	ldw	r2,0(r2)
  80357c:	e0bff715 	stw	r2,-36(fp)
  803580:	e0bffe17 	ldw	r2,-8(fp)
  803584:	e0fff717 	ldw	r3,-36(fp)
  803588:	10c00015 	stw	r3,0(r2)
  80358c:	e0bff717 	ldw	r2,-36(fp)
  803590:	1000021e 	bne	r2,zero,80359c <chk_mounted+0xdc>
  803594:	00800304 	movi	r2,12
  803598:	00021306 	br	803de8 <chk_mounted+0x928>
  80359c:	e0bff717 	ldw	r2,-36(fp)
  8035a0:	10800003 	ldbu	r2,0(r2)
  8035a4:	10803fcc 	andi	r2,r2,255
  8035a8:	10001226 	beq	r2,zero,8035f4 <chk_mounted+0x134>
  8035ac:	e0bff717 	ldw	r2,-36(fp)
  8035b0:	10800043 	ldbu	r2,1(r2)
  8035b4:	10803fcc 	andi	r2,r2,255
  8035b8:	1009883a 	mov	r4,r2
  8035bc:	0800dc40 	call	800dc4 <ffs_DiskIOStatus>
  8035c0:	e0bff805 	stb	r2,-32(fp)
  8035c4:	e0bff803 	ldbu	r2,-32(fp)
  8035c8:	1080004c 	andi	r2,r2,1
  8035cc:	1000091e 	bne	r2,zero,8035f4 <chk_mounted+0x134>
  8035d0:	e0bfff03 	ldbu	r2,-4(fp)
  8035d4:	10000526 	beq	r2,zero,8035ec <chk_mounted+0x12c>
  8035d8:	e0bff803 	ldbu	r2,-32(fp)
  8035dc:	1080010c 	andi	r2,r2,4
  8035e0:	10000226 	beq	r2,zero,8035ec <chk_mounted+0x12c>
  8035e4:	00800284 	movi	r2,10
  8035e8:	0001ff06 	br	803de8 <chk_mounted+0x928>
  8035ec:	0005883a 	mov	r2,zero
  8035f0:	0001fd06 	br	803de8 <chk_mounted+0x928>
  8035f4:	e0bff717 	ldw	r2,-36(fp)
  8035f8:	10000005 	stb	zero,0(r2)
  8035fc:	e0bff117 	ldw	r2,-60(fp)
  803600:	1007883a 	mov	r3,r2
  803604:	e0bff717 	ldw	r2,-36(fp)
  803608:	10c00045 	stb	r3,1(r2)
  80360c:	e0bff717 	ldw	r2,-36(fp)
  803610:	10800043 	ldbu	r2,1(r2)
  803614:	10803fcc 	andi	r2,r2,255
  803618:	1009883a 	mov	r4,r2
  80361c:	0800b680 	call	800b68 <ffs_DiskIOInitialize>
  803620:	e0bff805 	stb	r2,-32(fp)
  803624:	e0bff803 	ldbu	r2,-32(fp)
  803628:	1080004c 	andi	r2,r2,1
  80362c:	10000226 	beq	r2,zero,803638 <chk_mounted+0x178>
  803630:	008000c4 	movi	r2,3
  803634:	0001ec06 	br	803de8 <chk_mounted+0x928>
  803638:	e0bfff03 	ldbu	r2,-4(fp)
  80363c:	10000526 	beq	r2,zero,803654 <chk_mounted+0x194>
  803640:	e0bff803 	ldbu	r2,-32(fp)
  803644:	1080010c 	andi	r2,r2,4
  803648:	10000226 	beq	r2,zero,803654 <chk_mounted+0x194>
  80364c:	00800284 	movi	r2,10
  803650:	0001e506 	br	803de8 <chk_mounted+0x928>
  803654:	e03ff215 	stw	zero,-56(fp)
  803658:	e13ff717 	ldw	r4,-36(fp)
  80365c:	e17ff217 	ldw	r5,-56(fp)
  803660:	080334c0 	call	80334c <check_fs>
  803664:	e0bff005 	stb	r2,-64(fp)
  803668:	e0bff003 	ldbu	r2,-64(fp)
  80366c:	10800058 	cmpnei	r2,r2,1
  803670:	10002d1e 	bne	r2,zero,803728 <chk_mounted+0x268>
  803674:	e03ff045 	stb	zero,-63(fp)
  803678:	e0bff043 	ldbu	r2,-63(fp)
  80367c:	10000326 	beq	r2,zero,80368c <chk_mounted+0x1cc>
  803680:	e0bff043 	ldbu	r2,-63(fp)
  803684:	10bfffc4 	addi	r2,r2,-1
  803688:	e0bff045 	stb	r2,-63(fp)
  80368c:	e0bff043 	ldbu	r2,-63(fp)
  803690:	1004913a 	slli	r2,r2,4
  803694:	10806f84 	addi	r2,r2,446
  803698:	10800c04 	addi	r2,r2,48
  80369c:	e0fff717 	ldw	r3,-36(fp)
  8036a0:	1885883a 	add	r2,r3,r2
  8036a4:	e0bff915 	stw	r2,-28(fp)
  8036a8:	e0bff917 	ldw	r2,-28(fp)
  8036ac:	10800104 	addi	r2,r2,4
  8036b0:	10800003 	ldbu	r2,0(r2)
  8036b4:	10803fcc 	andi	r2,r2,255
  8036b8:	10001b26 	beq	r2,zero,803728 <chk_mounted+0x268>
  8036bc:	e0bff917 	ldw	r2,-28(fp)
  8036c0:	108002c4 	addi	r2,r2,11
  8036c4:	10800003 	ldbu	r2,0(r2)
  8036c8:	10803fcc 	andi	r2,r2,255
  8036cc:	1006963a 	slli	r3,r2,24
  8036d0:	e0bff917 	ldw	r2,-28(fp)
  8036d4:	10800284 	addi	r2,r2,10
  8036d8:	10800003 	ldbu	r2,0(r2)
  8036dc:	10803fcc 	andi	r2,r2,255
  8036e0:	1004943a 	slli	r2,r2,16
  8036e4:	1884b03a 	or	r2,r3,r2
  8036e8:	e0fff917 	ldw	r3,-28(fp)
  8036ec:	18c00244 	addi	r3,r3,9
  8036f0:	18c00003 	ldbu	r3,0(r3)
  8036f4:	18c03fcc 	andi	r3,r3,255
  8036f8:	1806923a 	slli	r3,r3,8
  8036fc:	10c6b03a 	or	r3,r2,r3
  803700:	e0bff917 	ldw	r2,-28(fp)
  803704:	10800204 	addi	r2,r2,8
  803708:	10800003 	ldbu	r2,0(r2)
  80370c:	10803fcc 	andi	r2,r2,255
  803710:	1884b03a 	or	r2,r3,r2
  803714:	e0bff215 	stw	r2,-56(fp)
  803718:	e13ff717 	ldw	r4,-36(fp)
  80371c:	e17ff217 	ldw	r5,-56(fp)
  803720:	080334c0 	call	80334c <check_fs>
  803724:	e0bff005 	stb	r2,-64(fp)
  803728:	e0bff003 	ldbu	r2,-64(fp)
  80372c:	108000d8 	cmpnei	r2,r2,3
  803730:	1000021e 	bne	r2,zero,80373c <chk_mounted+0x27c>
  803734:	00800044 	movi	r2,1
  803738:	0001ab06 	br	803de8 <chk_mounted+0x928>
  80373c:	e0bff003 	ldbu	r2,-64(fp)
  803740:	10000226 	beq	r2,zero,80374c <chk_mounted+0x28c>
  803744:	00800344 	movi	r2,13
  803748:	0001a706 	br	803de8 <chk_mounted+0x928>
  80374c:	e0bff717 	ldw	r2,-36(fp)
  803750:	10800f03 	ldbu	r2,60(r2)
  803754:	10803fcc 	andi	r2,r2,255
  803758:	1004923a 	slli	r2,r2,8
  80375c:	1007883a 	mov	r3,r2
  803760:	e0bff717 	ldw	r2,-36(fp)
  803764:	10800ec3 	ldbu	r2,59(r2)
  803768:	10803fcc 	andi	r2,r2,255
  80376c:	1884b03a 	or	r2,r3,r2
  803770:	10bfffcc 	andi	r2,r2,65535
  803774:	10a0001c 	xori	r2,r2,32768
  803778:	10a00004 	addi	r2,r2,-32768
  80377c:	10808020 	cmpeqi	r2,r2,512
  803780:	1000021e 	bne	r2,zero,80378c <chk_mounted+0x2cc>
  803784:	00800344 	movi	r2,13
  803788:	00019706 	br	803de8 <chk_mounted+0x928>
  80378c:	e0bff717 	ldw	r2,-36(fp)
  803790:	108011c3 	ldbu	r2,71(r2)
  803794:	10803fcc 	andi	r2,r2,255
  803798:	1004923a 	slli	r2,r2,8
  80379c:	1007883a 	mov	r3,r2
  8037a0:	e0bff717 	ldw	r2,-36(fp)
  8037a4:	10801183 	ldbu	r2,70(r2)
  8037a8:	10803fcc 	andi	r2,r2,255
  8037ac:	1884b03a 	or	r2,r3,r2
  8037b0:	10bfffcc 	andi	r2,r2,65535
  8037b4:	e0bff315 	stw	r2,-52(fp)
  8037b8:	e0bff317 	ldw	r2,-52(fp)
  8037bc:	1000131e 	bne	r2,zero,80380c <chk_mounted+0x34c>
  8037c0:	e0bff717 	ldw	r2,-36(fp)
  8037c4:	108015c3 	ldbu	r2,87(r2)
  8037c8:	10803fcc 	andi	r2,r2,255
  8037cc:	1006963a 	slli	r3,r2,24
  8037d0:	e0bff717 	ldw	r2,-36(fp)
  8037d4:	10801583 	ldbu	r2,86(r2)
  8037d8:	10803fcc 	andi	r2,r2,255
  8037dc:	1004943a 	slli	r2,r2,16
  8037e0:	1884b03a 	or	r2,r3,r2
  8037e4:	e0fff717 	ldw	r3,-36(fp)
  8037e8:	18c01543 	ldbu	r3,85(r3)
  8037ec:	18c03fcc 	andi	r3,r3,255
  8037f0:	1806923a 	slli	r3,r3,8
  8037f4:	10c6b03a 	or	r3,r2,r3
  8037f8:	e0bff717 	ldw	r2,-36(fp)
  8037fc:	10801503 	ldbu	r2,84(r2)
  803800:	10803fcc 	andi	r2,r2,255
  803804:	1884b03a 	or	r2,r3,r2
  803808:	e0bff315 	stw	r2,-52(fp)
  80380c:	e0bff717 	ldw	r2,-36(fp)
  803810:	e0fff317 	ldw	r3,-52(fp)
  803814:	10c00715 	stw	r3,28(r2)
  803818:	e0bff717 	ldw	r2,-36(fp)
  80381c:	10801003 	ldbu	r2,64(r2)
  803820:	e0bffa05 	stb	r2,-24(fp)
  803824:	e0bff717 	ldw	r2,-36(fp)
  803828:	e0fffa03 	ldbu	r3,-24(fp)
  80382c:	10c000c5 	stb	r3,3(r2)
  803830:	e0bffa03 	ldbu	r2,-24(fp)
  803834:	10800060 	cmpeqi	r2,r2,1
  803838:	1000051e 	bne	r2,zero,803850 <chk_mounted+0x390>
  80383c:	e0bffa03 	ldbu	r2,-24(fp)
  803840:	108000a0 	cmpeqi	r2,r2,2
  803844:	1000021e 	bne	r2,zero,803850 <chk_mounted+0x390>
  803848:	00800344 	movi	r2,13
  80384c:	00016606 	br	803de8 <chk_mounted+0x928>
  803850:	e0bffa03 	ldbu	r2,-24(fp)
  803854:	e0fff317 	ldw	r3,-52(fp)
  803858:	1885383a 	mul	r2,r3,r2
  80385c:	e0bff315 	stw	r2,-52(fp)
  803860:	e0bff717 	ldw	r2,-36(fp)
  803864:	10800f43 	ldbu	r2,61(r2)
  803868:	e0bffa05 	stb	r2,-24(fp)
  80386c:	e0bff717 	ldw	r2,-36(fp)
  803870:	e0fffa03 	ldbu	r3,-24(fp)
  803874:	10c00085 	stb	r3,2(r2)
  803878:	e0bffa03 	ldbu	r2,-24(fp)
  80387c:	10000526 	beq	r2,zero,803894 <chk_mounted+0x3d4>
  803880:	e0fffa03 	ldbu	r3,-24(fp)
  803884:	e0bffa03 	ldbu	r2,-24(fp)
  803888:	10bfffc4 	addi	r2,r2,-1
  80388c:	1884703a 	and	r2,r3,r2
  803890:	10000226 	beq	r2,zero,80389c <chk_mounted+0x3dc>
  803894:	00800344 	movi	r2,13
  803898:	00015306 	br	803de8 <chk_mounted+0x928>
  80389c:	e0bff717 	ldw	r2,-36(fp)
  8038a0:	10801083 	ldbu	r2,66(r2)
  8038a4:	10803fcc 	andi	r2,r2,255
  8038a8:	1004923a 	slli	r2,r2,8
  8038ac:	1007883a 	mov	r3,r2
  8038b0:	e0bff717 	ldw	r2,-36(fp)
  8038b4:	10801043 	ldbu	r2,65(r2)
  8038b8:	10803fcc 	andi	r2,r2,255
  8038bc:	1884b03a 	or	r2,r3,r2
  8038c0:	1007883a 	mov	r3,r2
  8038c4:	e0bff717 	ldw	r2,-36(fp)
  8038c8:	10c0020d 	sth	r3,8(r2)
  8038cc:	e0bff717 	ldw	r2,-36(fp)
  8038d0:	1080020b 	ldhu	r2,8(r2)
  8038d4:	108003cc 	andi	r2,r2,15
  8038d8:	10bfffcc 	andi	r2,r2,65535
  8038dc:	10000226 	beq	r2,zero,8038e8 <chk_mounted+0x428>
  8038e0:	00800344 	movi	r2,13
  8038e4:	00014006 	br	803de8 <chk_mounted+0x928>
  8038e8:	e0bff717 	ldw	r2,-36(fp)
  8038ec:	10801103 	ldbu	r2,68(r2)
  8038f0:	10803fcc 	andi	r2,r2,255
  8038f4:	1004923a 	slli	r2,r2,8
  8038f8:	1007883a 	mov	r3,r2
  8038fc:	e0bff717 	ldw	r2,-36(fp)
  803900:	108010c3 	ldbu	r2,67(r2)
  803904:	10803fcc 	andi	r2,r2,255
  803908:	1884b03a 	or	r2,r3,r2
  80390c:	10bfffcc 	andi	r2,r2,65535
  803910:	e0bff415 	stw	r2,-48(fp)
  803914:	e0bff417 	ldw	r2,-48(fp)
  803918:	1000131e 	bne	r2,zero,803968 <chk_mounted+0x4a8>
  80391c:	e0bff717 	ldw	r2,-36(fp)
  803920:	108014c3 	ldbu	r2,83(r2)
  803924:	10803fcc 	andi	r2,r2,255
  803928:	1006963a 	slli	r3,r2,24
  80392c:	e0bff717 	ldw	r2,-36(fp)
  803930:	10801483 	ldbu	r2,82(r2)
  803934:	10803fcc 	andi	r2,r2,255
  803938:	1004943a 	slli	r2,r2,16
  80393c:	1884b03a 	or	r2,r3,r2
  803940:	e0fff717 	ldw	r3,-36(fp)
  803944:	18c01443 	ldbu	r3,81(r3)
  803948:	18c03fcc 	andi	r3,r3,255
  80394c:	1806923a 	slli	r3,r3,8
  803950:	10c6b03a 	or	r3,r2,r3
  803954:	e0bff717 	ldw	r2,-36(fp)
  803958:	10801403 	ldbu	r2,80(r2)
  80395c:	10803fcc 	andi	r2,r2,255
  803960:	1884b03a 	or	r2,r3,r2
  803964:	e0bff415 	stw	r2,-48(fp)
  803968:	e0bff717 	ldw	r2,-36(fp)
  80396c:	10800fc3 	ldbu	r2,63(r2)
  803970:	10803fcc 	andi	r2,r2,255
  803974:	1004923a 	slli	r2,r2,8
  803978:	1007883a 	mov	r3,r2
  80397c:	e0bff717 	ldw	r2,-36(fp)
  803980:	10800f83 	ldbu	r2,62(r2)
  803984:	10803fcc 	andi	r2,r2,255
  803988:	1884b03a 	or	r2,r3,r2
  80398c:	e0bffa8d 	sth	r2,-22(fp)
  803990:	e0bffa8b 	ldhu	r2,-22(fp)
  803994:	1000021e 	bne	r2,zero,8039a0 <chk_mounted+0x4e0>
  803998:	00800344 	movi	r2,13
  80399c:	00011206 	br	803de8 <chk_mounted+0x928>
  8039a0:	e0fffa8b 	ldhu	r3,-22(fp)
  8039a4:	e0bff317 	ldw	r2,-52(fp)
  8039a8:	1887883a 	add	r3,r3,r2
  8039ac:	e0bff717 	ldw	r2,-36(fp)
  8039b0:	1080020b 	ldhu	r2,8(r2)
  8039b4:	10bfffcc 	andi	r2,r2,65535
  8039b8:	1004d13a 	srli	r2,r2,4
  8039bc:	10bfffcc 	andi	r2,r2,65535
  8039c0:	1885883a 	add	r2,r3,r2
  8039c4:	e0bffb15 	stw	r2,-20(fp)
  8039c8:	e0fff417 	ldw	r3,-48(fp)
  8039cc:	e0bffb17 	ldw	r2,-20(fp)
  8039d0:	1880022e 	bgeu	r3,r2,8039dc <chk_mounted+0x51c>
  8039d4:	00800344 	movi	r2,13
  8039d8:	00010306 	br	803de8 <chk_mounted+0x928>
  8039dc:	e0fff417 	ldw	r3,-48(fp)
  8039e0:	e0bffb17 	ldw	r2,-20(fp)
  8039e4:	1887c83a 	sub	r3,r3,r2
  8039e8:	e0bff717 	ldw	r2,-36(fp)
  8039ec:	10800083 	ldbu	r2,2(r2)
  8039f0:	10803fcc 	andi	r2,r2,255
  8039f4:	1809883a 	mov	r4,r3
  8039f8:	100b883a 	mov	r5,r2
  8039fc:	080a2500 	call	80a250 <__udivsi3>
  803a00:	e0bffc15 	stw	r2,-16(fp)
  803a04:	e0bffc17 	ldw	r2,-16(fp)
  803a08:	1000021e 	bne	r2,zero,803a14 <chk_mounted+0x554>
  803a0c:	00800344 	movi	r2,13
  803a10:	0000f506 	br	803de8 <chk_mounted+0x928>
  803a14:	00800044 	movi	r2,1
  803a18:	e0bff005 	stb	r2,-64(fp)
  803a1c:	e0bffc17 	ldw	r2,-16(fp)
  803a20:	1083fdb0 	cmpltui	r2,r2,4086
  803a24:	1000021e 	bne	r2,zero,803a30 <chk_mounted+0x570>
  803a28:	00800084 	movi	r2,2
  803a2c:	e0bff005 	stb	r2,-64(fp)
  803a30:	e0bffc17 	ldw	r2,-16(fp)
  803a34:	10bffdb0 	cmpltui	r2,r2,65526
  803a38:	1000021e 	bne	r2,zero,803a44 <chk_mounted+0x584>
  803a3c:	008000c4 	movi	r2,3
  803a40:	e0bff005 	stb	r2,-64(fp)
  803a44:	e0bffc17 	ldw	r2,-16(fp)
  803a48:	10c00084 	addi	r3,r2,2
  803a4c:	e0bff717 	ldw	r2,-36(fp)
  803a50:	10c00615 	stw	r3,24(r2)
  803a54:	e0fff217 	ldw	r3,-56(fp)
  803a58:	e0bffb17 	ldw	r2,-20(fp)
  803a5c:	1887883a 	add	r3,r3,r2
  803a60:	e0bff717 	ldw	r2,-36(fp)
  803a64:	10c00a15 	stw	r3,40(r2)
  803a68:	e0fffa8b 	ldhu	r3,-22(fp)
  803a6c:	e0bff217 	ldw	r2,-56(fp)
  803a70:	1887883a 	add	r3,r3,r2
  803a74:	e0bff717 	ldw	r2,-36(fp)
  803a78:	10c00815 	stw	r3,32(r2)
  803a7c:	e0bff003 	ldbu	r2,-64(fp)
  803a80:	108000d8 	cmpnei	r2,r2,3
  803a84:	1000201e 	bne	r2,zero,803b08 <chk_mounted+0x648>
  803a88:	e0bff717 	ldw	r2,-36(fp)
  803a8c:	1080020b 	ldhu	r2,8(r2)
  803a90:	10bfffcc 	andi	r2,r2,65535
  803a94:	10000226 	beq	r2,zero,803aa0 <chk_mounted+0x5e0>
  803a98:	00800344 	movi	r2,13
  803a9c:	0000d206 	br	803de8 <chk_mounted+0x928>
  803aa0:	e0bff717 	ldw	r2,-36(fp)
  803aa4:	108017c3 	ldbu	r2,95(r2)
  803aa8:	10803fcc 	andi	r2,r2,255
  803aac:	1006963a 	slli	r3,r2,24
  803ab0:	e0bff717 	ldw	r2,-36(fp)
  803ab4:	10801783 	ldbu	r2,94(r2)
  803ab8:	10803fcc 	andi	r2,r2,255
  803abc:	1004943a 	slli	r2,r2,16
  803ac0:	1884b03a 	or	r2,r3,r2
  803ac4:	e0fff717 	ldw	r3,-36(fp)
  803ac8:	18c01743 	ldbu	r3,93(r3)
  803acc:	18c03fcc 	andi	r3,r3,255
  803ad0:	1806923a 	slli	r3,r3,8
  803ad4:	10c6b03a 	or	r3,r2,r3
  803ad8:	e0bff717 	ldw	r2,-36(fp)
  803adc:	10801703 	ldbu	r2,92(r2)
  803ae0:	10803fcc 	andi	r2,r2,255
  803ae4:	1886b03a 	or	r3,r3,r2
  803ae8:	e0bff717 	ldw	r2,-36(fp)
  803aec:	10c00915 	stw	r3,36(r2)
  803af0:	e0bff717 	ldw	r2,-36(fp)
  803af4:	10800617 	ldw	r2,24(r2)
  803af8:	1085883a 	add	r2,r2,r2
  803afc:	1085883a 	add	r2,r2,r2
  803b00:	e0bff515 	stw	r2,-44(fp)
  803b04:	00001e06 	br	803b80 <chk_mounted+0x6c0>
  803b08:	e0bff717 	ldw	r2,-36(fp)
  803b0c:	1080020b 	ldhu	r2,8(r2)
  803b10:	10bfffcc 	andi	r2,r2,65535
  803b14:	1000021e 	bne	r2,zero,803b20 <chk_mounted+0x660>
  803b18:	00800344 	movi	r2,13
  803b1c:	0000b206 	br	803de8 <chk_mounted+0x928>
  803b20:	e0bff717 	ldw	r2,-36(fp)
  803b24:	10c00817 	ldw	r3,32(r2)
  803b28:	e0bff317 	ldw	r2,-52(fp)
  803b2c:	1887883a 	add	r3,r3,r2
  803b30:	e0bff717 	ldw	r2,-36(fp)
  803b34:	10c00915 	stw	r3,36(r2)
  803b38:	e0bff003 	ldbu	r2,-64(fp)
  803b3c:	10800098 	cmpnei	r2,r2,2
  803b40:	1000041e 	bne	r2,zero,803b54 <chk_mounted+0x694>
  803b44:	e0bff717 	ldw	r2,-36(fp)
  803b48:	10800617 	ldw	r2,24(r2)
  803b4c:	1085883a 	add	r2,r2,r2
  803b50:	00000a06 	br	803b7c <chk_mounted+0x6bc>
  803b54:	e0bff717 	ldw	r2,-36(fp)
  803b58:	10c00617 	ldw	r3,24(r2)
  803b5c:	1805883a 	mov	r2,r3
  803b60:	1085883a 	add	r2,r2,r2
  803b64:	10c5883a 	add	r2,r2,r3
  803b68:	1006d07a 	srli	r3,r2,1
  803b6c:	e0bff717 	ldw	r2,-36(fp)
  803b70:	10800617 	ldw	r2,24(r2)
  803b74:	1080004c 	andi	r2,r2,1
  803b78:	1885883a 	add	r2,r3,r2
  803b7c:	e0bff515 	stw	r2,-44(fp)
  803b80:	e0bff717 	ldw	r2,-36(fp)
  803b84:	10c00717 	ldw	r3,28(r2)
  803b88:	e0bff517 	ldw	r2,-44(fp)
  803b8c:	10807fc4 	addi	r2,r2,511
  803b90:	1004d27a 	srli	r2,r2,9
  803b94:	1880022e 	bgeu	r3,r2,803ba0 <chk_mounted+0x6e0>
  803b98:	00800344 	movi	r2,13
  803b9c:	00009206 	br	803de8 <chk_mounted+0x928>
  803ba0:	e0bff717 	ldw	r2,-36(fp)
  803ba4:	00ffffc4 	movi	r3,-1
  803ba8:	10c00415 	stw	r3,16(r2)
  803bac:	e0bff717 	ldw	r2,-36(fp)
  803bb0:	10000315 	stw	zero,12(r2)
  803bb4:	e0bff003 	ldbu	r2,-64(fp)
  803bb8:	108000d8 	cmpnei	r2,r2,3
  803bbc:	10007c1e 	bne	r2,zero,803db0 <chk_mounted+0x8f0>
  803bc0:	e0bff717 	ldw	r2,-36(fp)
  803bc4:	10000145 	stb	zero,5(r2)
  803bc8:	e0bff717 	ldw	r2,-36(fp)
  803bcc:	10801843 	ldbu	r2,97(r2)
  803bd0:	10803fcc 	andi	r2,r2,255
  803bd4:	1004923a 	slli	r2,r2,8
  803bd8:	1007883a 	mov	r3,r2
  803bdc:	e0bff717 	ldw	r2,-36(fp)
  803be0:	10801803 	ldbu	r2,96(r2)
  803be4:	10803fcc 	andi	r2,r2,255
  803be8:	1884b03a 	or	r2,r3,r2
  803bec:	10ffffcc 	andi	r3,r2,65535
  803bf0:	e0bff217 	ldw	r2,-56(fp)
  803bf4:	1887883a 	add	r3,r3,r2
  803bf8:	e0bff717 	ldw	r2,-36(fp)
  803bfc:	10c00515 	stw	r3,20(r2)
  803c00:	e0bff717 	ldw	r2,-36(fp)
  803c04:	10800043 	ldbu	r2,1(r2)
  803c08:	11003fcc 	andi	r4,r2,255
  803c0c:	e0bff717 	ldw	r2,-36(fp)
  803c10:	10c00c04 	addi	r3,r2,48
  803c14:	e0bff717 	ldw	r2,-36(fp)
  803c18:	10800517 	ldw	r2,20(r2)
  803c1c:	180b883a 	mov	r5,r3
  803c20:	100d883a 	mov	r6,r2
  803c24:	01c00044 	movi	r7,1
  803c28:	0800dec0 	call	800dec <ffs_DiskIORead>
  803c2c:	1000601e 	bne	r2,zero,803db0 <chk_mounted+0x8f0>
  803c30:	e0bff717 	ldw	r2,-36(fp)
  803c34:	10808bc3 	ldbu	r2,559(r2)
  803c38:	10803fcc 	andi	r2,r2,255
  803c3c:	1004923a 	slli	r2,r2,8
  803c40:	1007883a 	mov	r3,r2
  803c44:	e0bff717 	ldw	r2,-36(fp)
  803c48:	10808b83 	ldbu	r2,558(r2)
  803c4c:	10803fcc 	andi	r2,r2,255
  803c50:	1884b03a 	or	r2,r3,r2
  803c54:	10bfffcc 	andi	r2,r2,65535
  803c58:	10a0001c 	xori	r2,r2,32768
  803c5c:	10a00004 	addi	r2,r2,-32768
  803c60:	10aa9558 	cmpnei	r2,r2,-21931
  803c64:	1000521e 	bne	r2,zero,803db0 <chk_mounted+0x8f0>
  803c68:	e0bff717 	ldw	r2,-36(fp)
  803c6c:	10800cc3 	ldbu	r2,51(r2)
  803c70:	10803fcc 	andi	r2,r2,255
  803c74:	1006963a 	slli	r3,r2,24
  803c78:	e0bff717 	ldw	r2,-36(fp)
  803c7c:	10800c83 	ldbu	r2,50(r2)
  803c80:	10803fcc 	andi	r2,r2,255
  803c84:	1004943a 	slli	r2,r2,16
  803c88:	1884b03a 	or	r2,r3,r2
  803c8c:	e0fff717 	ldw	r3,-36(fp)
  803c90:	18c00c43 	ldbu	r3,49(r3)
  803c94:	18c03fcc 	andi	r3,r3,255
  803c98:	1806923a 	slli	r3,r3,8
  803c9c:	10c6b03a 	or	r3,r2,r3
  803ca0:	e0bff717 	ldw	r2,-36(fp)
  803ca4:	10800c03 	ldbu	r2,48(r2)
  803ca8:	10803fcc 	andi	r2,r2,255
  803cac:	1886b03a 	or	r3,r3,r2
  803cb0:	00905874 	movhi	r2,16737
  803cb4:	10949484 	addi	r2,r2,21074
  803cb8:	18803d1e 	bne	r3,r2,803db0 <chk_mounted+0x8f0>
  803cbc:	e0bff717 	ldw	r2,-36(fp)
  803cc0:	108085c3 	ldbu	r2,535(r2)
  803cc4:	10803fcc 	andi	r2,r2,255
  803cc8:	1006963a 	slli	r3,r2,24
  803ccc:	e0bff717 	ldw	r2,-36(fp)
  803cd0:	10808583 	ldbu	r2,534(r2)
  803cd4:	10803fcc 	andi	r2,r2,255
  803cd8:	1004943a 	slli	r2,r2,16
  803cdc:	1884b03a 	or	r2,r3,r2
  803ce0:	e0fff717 	ldw	r3,-36(fp)
  803ce4:	18c08543 	ldbu	r3,533(r3)
  803ce8:	18c03fcc 	andi	r3,r3,255
  803cec:	1806923a 	slli	r3,r3,8
  803cf0:	10c6b03a 	or	r3,r2,r3
  803cf4:	e0bff717 	ldw	r2,-36(fp)
  803cf8:	10808503 	ldbu	r2,532(r2)
  803cfc:	10803fcc 	andi	r2,r2,255
  803d00:	1886b03a 	or	r3,r3,r2
  803d04:	00985074 	movhi	r2,24897
  803d08:	109c9c84 	addi	r2,r2,29298
  803d0c:	1880281e 	bne	r3,r2,803db0 <chk_mounted+0x8f0>
  803d10:	e0bff717 	ldw	r2,-36(fp)
  803d14:	108087c3 	ldbu	r2,543(r2)
  803d18:	10803fcc 	andi	r2,r2,255
  803d1c:	1006963a 	slli	r3,r2,24
  803d20:	e0bff717 	ldw	r2,-36(fp)
  803d24:	10808783 	ldbu	r2,542(r2)
  803d28:	10803fcc 	andi	r2,r2,255
  803d2c:	1004943a 	slli	r2,r2,16
  803d30:	1884b03a 	or	r2,r3,r2
  803d34:	e0fff717 	ldw	r3,-36(fp)
  803d38:	18c08743 	ldbu	r3,541(r3)
  803d3c:	18c03fcc 	andi	r3,r3,255
  803d40:	1806923a 	slli	r3,r3,8
  803d44:	10c6b03a 	or	r3,r2,r3
  803d48:	e0bff717 	ldw	r2,-36(fp)
  803d4c:	10808703 	ldbu	r2,540(r2)
  803d50:	10803fcc 	andi	r2,r2,255
  803d54:	1886b03a 	or	r3,r3,r2
  803d58:	e0bff717 	ldw	r2,-36(fp)
  803d5c:	10c00315 	stw	r3,12(r2)
  803d60:	e0bff717 	ldw	r2,-36(fp)
  803d64:	108086c3 	ldbu	r2,539(r2)
  803d68:	10803fcc 	andi	r2,r2,255
  803d6c:	1006963a 	slli	r3,r2,24
  803d70:	e0bff717 	ldw	r2,-36(fp)
  803d74:	10808683 	ldbu	r2,538(r2)
  803d78:	10803fcc 	andi	r2,r2,255
  803d7c:	1004943a 	slli	r2,r2,16
  803d80:	1884b03a 	or	r2,r3,r2
  803d84:	e0fff717 	ldw	r3,-36(fp)
  803d88:	18c08643 	ldbu	r3,537(r3)
  803d8c:	18c03fcc 	andi	r3,r3,255
  803d90:	1806923a 	slli	r3,r3,8
  803d94:	10c6b03a 	or	r3,r2,r3
  803d98:	e0bff717 	ldw	r2,-36(fp)
  803d9c:	10808603 	ldbu	r2,536(r2)
  803da0:	10803fcc 	andi	r2,r2,255
  803da4:	1886b03a 	or	r3,r3,r2
  803da8:	e0bff717 	ldw	r2,-36(fp)
  803dac:	10c00415 	stw	r3,16(r2)
  803db0:	e0bff717 	ldw	r2,-36(fp)
  803db4:	e0fff003 	ldbu	r3,-64(fp)
  803db8:	10c00005 	stb	r3,0(r2)
  803dbc:	d0a33a0b 	ldhu	r2,-29464(gp)
  803dc0:	10800044 	addi	r2,r2,1
  803dc4:	d0a33a0d 	sth	r2,-29464(gp)
  803dc8:	d0e33a0b 	ldhu	r3,-29464(gp)
  803dcc:	e0bff717 	ldw	r2,-36(fp)
  803dd0:	10c0018d 	sth	r3,6(r2)
  803dd4:	e0bff717 	ldw	r2,-36(fp)
  803dd8:	10000b15 	stw	zero,44(r2)
  803ddc:	e0bff717 	ldw	r2,-36(fp)
  803de0:	10000105 	stb	zero,4(r2)
  803de4:	0005883a 	mov	r2,zero
  803de8:	e037883a 	mov	sp,fp
  803dec:	dfc00117 	ldw	ra,4(sp)
  803df0:	df000017 	ldw	fp,0(sp)
  803df4:	dec00204 	addi	sp,sp,8
  803df8:	f800283a 	ret

00803dfc <validate>:
  803dfc:	defffc04 	addi	sp,sp,-16
  803e00:	dfc00315 	stw	ra,12(sp)
  803e04:	df000215 	stw	fp,8(sp)
  803e08:	df000204 	addi	fp,sp,8
  803e0c:	e13ffe15 	stw	r4,-8(fp)
  803e10:	2805883a 	mov	r2,r5
  803e14:	e0bfff0d 	sth	r2,-4(fp)
  803e18:	e0bffe17 	ldw	r2,-8(fp)
  803e1c:	10000926 	beq	r2,zero,803e44 <validate+0x48>
  803e20:	e0bffe17 	ldw	r2,-8(fp)
  803e24:	10800003 	ldbu	r2,0(r2)
  803e28:	10803fcc 	andi	r2,r2,255
  803e2c:	10000526 	beq	r2,zero,803e44 <validate+0x48>
  803e30:	e0bffe17 	ldw	r2,-8(fp)
  803e34:	1080018b 	ldhu	r2,6(r2)
  803e38:	10ffffcc 	andi	r3,r2,65535
  803e3c:	e0bfff0b 	ldhu	r2,-4(fp)
  803e40:	18800226 	beq	r3,r2,803e4c <validate+0x50>
  803e44:	00800244 	movi	r2,9
  803e48:	00000b06 	br	803e78 <validate+0x7c>
  803e4c:	e0bffe17 	ldw	r2,-8(fp)
  803e50:	10800043 	ldbu	r2,1(r2)
  803e54:	10803fcc 	andi	r2,r2,255
  803e58:	1009883a 	mov	r4,r2
  803e5c:	0800dc40 	call	800dc4 <ffs_DiskIOStatus>
  803e60:	10803fcc 	andi	r2,r2,255
  803e64:	1080004c 	andi	r2,r2,1
  803e68:	10000226 	beq	r2,zero,803e74 <validate+0x78>
  803e6c:	008000c4 	movi	r2,3
  803e70:	00000106 	br	803e78 <validate+0x7c>
  803e74:	0005883a 	mov	r2,zero
  803e78:	e037883a 	mov	sp,fp
  803e7c:	dfc00117 	ldw	ra,4(sp)
  803e80:	df000017 	ldw	fp,0(sp)
  803e84:	dec00204 	addi	sp,sp,8
  803e88:	f800283a 	ret

00803e8c <f_mount>:
  803e8c:	defffc04 	addi	sp,sp,-16
  803e90:	df000315 	stw	fp,12(sp)
  803e94:	df000304 	addi	fp,sp,12
  803e98:	2005883a 	mov	r2,r4
  803e9c:	e17fff15 	stw	r5,-4(fp)
  803ea0:	e0bffe05 	stb	r2,-8(fp)
  803ea4:	e0bffe03 	ldbu	r2,-8(fp)
  803ea8:	10000226 	beq	r2,zero,803eb4 <f_mount+0x28>
  803eac:	008002c4 	movi	r2,11
  803eb0:	00001706 	br	803f10 <f_mount+0x84>
  803eb4:	e0bffe03 	ldbu	r2,-8(fp)
  803eb8:	1085883a 	add	r2,r2,r2
  803ebc:	1087883a 	add	r3,r2,r2
  803ec0:	d0a33904 	addi	r2,gp,-29468
  803ec4:	1885883a 	add	r2,r3,r2
  803ec8:	10800017 	ldw	r2,0(r2)
  803ecc:	e0bffd15 	stw	r2,-12(fp)
  803ed0:	e0bffd17 	ldw	r2,-12(fp)
  803ed4:	10000226 	beq	r2,zero,803ee0 <f_mount+0x54>
  803ed8:	e0bffd17 	ldw	r2,-12(fp)
  803edc:	10000005 	stb	zero,0(r2)
  803ee0:	e0bfff17 	ldw	r2,-4(fp)
  803ee4:	10000226 	beq	r2,zero,803ef0 <f_mount+0x64>
  803ee8:	e0bfff17 	ldw	r2,-4(fp)
  803eec:	10000005 	stb	zero,0(r2)
  803ef0:	e0bffe03 	ldbu	r2,-8(fp)
  803ef4:	1085883a 	add	r2,r2,r2
  803ef8:	1087883a 	add	r3,r2,r2
  803efc:	d0a33904 	addi	r2,gp,-29468
  803f00:	1885883a 	add	r2,r3,r2
  803f04:	e0ffff17 	ldw	r3,-4(fp)
  803f08:	10c00015 	stw	r3,0(r2)
  803f0c:	0005883a 	mov	r2,zero
  803f10:	e037883a 	mov	sp,fp
  803f14:	df000017 	ldw	fp,0(sp)
  803f18:	dec00104 	addi	sp,sp,4
  803f1c:	f800283a 	ret

00803f20 <f_open>:
  803f20:	deffed04 	addi	sp,sp,-76
  803f24:	dfc01215 	stw	ra,72(sp)
  803f28:	df001115 	stw	fp,68(sp)
  803f2c:	df001104 	addi	fp,sp,68
  803f30:	e13ffd15 	stw	r4,-12(fp)
  803f34:	e17ffe15 	stw	r5,-8(fp)
  803f38:	3005883a 	mov	r2,r6
  803f3c:	e0bfff05 	stb	r2,-4(fp)
  803f40:	e0bffd17 	ldw	r2,-12(fp)
  803f44:	10000015 	stw	zero,0(r2)
  803f48:	e0bfff03 	ldbu	r2,-4(fp)
  803f4c:	108007cc 	andi	r2,r2,31
  803f50:	e0bfff05 	stb	r2,-4(fp)
  803f54:	e0bfff03 	ldbu	r2,-4(fp)
  803f58:	10803f8c 	andi	r2,r2,254
  803f5c:	e13ffe04 	addi	r4,fp,-8
  803f60:	e0fff304 	addi	r3,fp,-52
  803f64:	180b883a 	mov	r5,r3
  803f68:	100d883a 	mov	r6,r2
  803f6c:	08034c00 	call	8034c0 <chk_mounted>
  803f70:	e0bfef15 	stw	r2,-68(fp)
  803f74:	e0bffa04 	addi	r2,fp,-24
  803f78:	e0bff915 	stw	r2,-28(fp)
  803f7c:	e0bfef17 	ldw	r2,-68(fp)
  803f80:	1000061e 	bne	r2,zero,803f9c <f_open+0x7c>
  803f84:	e0bffe17 	ldw	r2,-8(fp)
  803f88:	e0fff304 	addi	r3,fp,-52
  803f8c:	1809883a 	mov	r4,r3
  803f90:	100b883a 	mov	r5,r2
  803f94:	080317c0 	call	80317c <follow_path>
  803f98:	e0bfef15 	stw	r2,-68(fp)
  803f9c:	e0bff817 	ldw	r2,-32(fp)
  803fa0:	e0bff015 	stw	r2,-64(fp)
  803fa4:	e0bfef17 	ldw	r2,-68(fp)
  803fa8:	1000041e 	bne	r2,zero,803fbc <f_open+0x9c>
  803fac:	e0bff017 	ldw	r2,-64(fp)
  803fb0:	1000021e 	bne	r2,zero,803fbc <f_open+0x9c>
  803fb4:	00800184 	movi	r2,6
  803fb8:	e0bfef15 	stw	r2,-68(fp)
  803fbc:	e0bfff03 	ldbu	r2,-4(fp)
  803fc0:	1080070c 	andi	r2,r2,28
  803fc4:	10008826 	beq	r2,zero,8041e8 <f_open+0x2c8>
  803fc8:	e0bfef17 	ldw	r2,-68(fp)
  803fcc:	10000d26 	beq	r2,zero,804004 <f_open+0xe4>
  803fd0:	e0bfef17 	ldw	r2,-68(fp)
  803fd4:	10800118 	cmpnei	r2,r2,4
  803fd8:	1000041e 	bne	r2,zero,803fec <f_open+0xcc>
  803fdc:	e0bff304 	addi	r2,fp,-52
  803fe0:	1009883a 	mov	r4,r2
  803fe4:	0802aa80 	call	802aa8 <dir_register>
  803fe8:	e0bfef15 	stw	r2,-68(fp)
  803fec:	e0bfff03 	ldbu	r2,-4(fp)
  803ff0:	10800214 	ori	r2,r2,8
  803ff4:	e0bfff05 	stb	r2,-4(fp)
  803ff8:	e0bff817 	ldw	r2,-32(fp)
  803ffc:	e0bff015 	stw	r2,-64(fp)
  804000:	00000e06 	br	80403c <f_open+0x11c>
  804004:	e0bff017 	ldw	r2,-64(fp)
  804008:	108002c4 	addi	r2,r2,11
  80400c:	10800003 	ldbu	r2,0(r2)
  804010:	10803fcc 	andi	r2,r2,255
  804014:	1080044c 	andi	r2,r2,17
  804018:	10000326 	beq	r2,zero,804028 <f_open+0x108>
  80401c:	008001c4 	movi	r2,7
  804020:	e0bfef15 	stw	r2,-68(fp)
  804024:	00000506 	br	80403c <f_open+0x11c>
  804028:	e0bfff03 	ldbu	r2,-4(fp)
  80402c:	1080010c 	andi	r2,r2,4
  804030:	10000226 	beq	r2,zero,80403c <f_open+0x11c>
  804034:	00800204 	movi	r2,8
  804038:	e0bfef15 	stw	r2,-68(fp)
  80403c:	e0bfef17 	ldw	r2,-68(fp)
  804040:	1000681e 	bne	r2,zero,8041e4 <f_open+0x2c4>
  804044:	e0bfff03 	ldbu	r2,-4(fp)
  804048:	1080020c 	andi	r2,r2,8
  80404c:	10006526 	beq	r2,zero,8041e4 <f_open+0x2c4>
  804050:	080151c0 	call	80151c <get_fattime>
  804054:	e0bff115 	stw	r2,-60(fp)
  804058:	e0bff017 	ldw	r2,-64(fp)
  80405c:	10800384 	addi	r2,r2,14
  804060:	e0fff117 	ldw	r3,-60(fp)
  804064:	10c00005 	stb	r3,0(r2)
  804068:	e0bff017 	ldw	r2,-64(fp)
  80406c:	108003c4 	addi	r2,r2,15
  804070:	e0fff117 	ldw	r3,-60(fp)
  804074:	18ffffcc 	andi	r3,r3,65535
  804078:	1806d23a 	srli	r3,r3,8
  80407c:	10c00005 	stb	r3,0(r2)
  804080:	e0bff017 	ldw	r2,-64(fp)
  804084:	10800404 	addi	r2,r2,16
  804088:	e0fff117 	ldw	r3,-60(fp)
  80408c:	1806d43a 	srli	r3,r3,16
  804090:	10c00005 	stb	r3,0(r2)
  804094:	e0bff017 	ldw	r2,-64(fp)
  804098:	10800444 	addi	r2,r2,17
  80409c:	e0fff117 	ldw	r3,-60(fp)
  8040a0:	1806d63a 	srli	r3,r3,24
  8040a4:	10c00005 	stb	r3,0(r2)
  8040a8:	e0bff017 	ldw	r2,-64(fp)
  8040ac:	108002c4 	addi	r2,r2,11
  8040b0:	10000005 	stb	zero,0(r2)
  8040b4:	e0bff017 	ldw	r2,-64(fp)
  8040b8:	10800704 	addi	r2,r2,28
  8040bc:	10000005 	stb	zero,0(r2)
  8040c0:	e0bff017 	ldw	r2,-64(fp)
  8040c4:	10800744 	addi	r2,r2,29
  8040c8:	10000005 	stb	zero,0(r2)
  8040cc:	e0bff017 	ldw	r2,-64(fp)
  8040d0:	10800784 	addi	r2,r2,30
  8040d4:	10000005 	stb	zero,0(r2)
  8040d8:	e0bff017 	ldw	r2,-64(fp)
  8040dc:	108007c4 	addi	r2,r2,31
  8040e0:	10000005 	stb	zero,0(r2)
  8040e4:	e0bff017 	ldw	r2,-64(fp)
  8040e8:	10800544 	addi	r2,r2,21
  8040ec:	10800003 	ldbu	r2,0(r2)
  8040f0:	10803fcc 	andi	r2,r2,255
  8040f4:	1004923a 	slli	r2,r2,8
  8040f8:	1007883a 	mov	r3,r2
  8040fc:	e0bff017 	ldw	r2,-64(fp)
  804100:	10800504 	addi	r2,r2,20
  804104:	10800003 	ldbu	r2,0(r2)
  804108:	10803fcc 	andi	r2,r2,255
  80410c:	1884b03a 	or	r2,r3,r2
  804110:	10bfffcc 	andi	r2,r2,65535
  804114:	1006943a 	slli	r3,r2,16
  804118:	e0bff017 	ldw	r2,-64(fp)
  80411c:	108006c4 	addi	r2,r2,27
  804120:	10800003 	ldbu	r2,0(r2)
  804124:	10803fcc 	andi	r2,r2,255
  804128:	1004923a 	slli	r2,r2,8
  80412c:	1009883a 	mov	r4,r2
  804130:	e0bff017 	ldw	r2,-64(fp)
  804134:	10800684 	addi	r2,r2,26
  804138:	10800003 	ldbu	r2,0(r2)
  80413c:	10803fcc 	andi	r2,r2,255
  804140:	2084b03a 	or	r2,r4,r2
  804144:	10bfffcc 	andi	r2,r2,65535
  804148:	1884b03a 	or	r2,r3,r2
  80414c:	e0bff215 	stw	r2,-56(fp)
  804150:	e0bff017 	ldw	r2,-64(fp)
  804154:	10800684 	addi	r2,r2,26
  804158:	10000005 	stb	zero,0(r2)
  80415c:	e0bff017 	ldw	r2,-64(fp)
  804160:	108006c4 	addi	r2,r2,27
  804164:	10000005 	stb	zero,0(r2)
  804168:	e0bff017 	ldw	r2,-64(fp)
  80416c:	10800504 	addi	r2,r2,20
  804170:	10000005 	stb	zero,0(r2)
  804174:	e0bff017 	ldw	r2,-64(fp)
  804178:	10800544 	addi	r2,r2,21
  80417c:	10000005 	stb	zero,0(r2)
  804180:	e0bff317 	ldw	r2,-52(fp)
  804184:	00c00044 	movi	r3,1
  804188:	10c00105 	stb	r3,4(r2)
  80418c:	e0bff217 	ldw	r2,-56(fp)
  804190:	10001426 	beq	r2,zero,8041e4 <f_open+0x2c4>
  804194:	e0bff317 	ldw	r2,-52(fp)
  804198:	10800b17 	ldw	r2,44(r2)
  80419c:	e0bff115 	stw	r2,-60(fp)
  8041a0:	e0bff317 	ldw	r2,-52(fp)
  8041a4:	1009883a 	mov	r4,r2
  8041a8:	e17ff217 	ldw	r5,-56(fp)
  8041ac:	08020ec0 	call	8020ec <remove_chain>
  8041b0:	e0bfef15 	stw	r2,-68(fp)
  8041b4:	e0bfef17 	ldw	r2,-68(fp)
  8041b8:	10000a1e 	bne	r2,zero,8041e4 <f_open+0x2c4>
  8041bc:	e0bff317 	ldw	r2,-52(fp)
  8041c0:	e0fff217 	ldw	r3,-56(fp)
  8041c4:	18ffffc4 	addi	r3,r3,-1
  8041c8:	10c00315 	stw	r3,12(r2)
  8041cc:	e0bff317 	ldw	r2,-52(fp)
  8041d0:	1009883a 	mov	r4,r2
  8041d4:	e17ff117 	ldw	r5,-60(fp)
  8041d8:	08017140 	call	801714 <move_window>
  8041dc:	e0bfef15 	stw	r2,-68(fp)
  8041e0:	00001706 	br	804240 <f_open+0x320>
  8041e4:	00001606 	br	804240 <f_open+0x320>
  8041e8:	e0bfef17 	ldw	r2,-68(fp)
  8041ec:	1000141e 	bne	r2,zero,804240 <f_open+0x320>
  8041f0:	e0bff017 	ldw	r2,-64(fp)
  8041f4:	108002c4 	addi	r2,r2,11
  8041f8:	10800003 	ldbu	r2,0(r2)
  8041fc:	10803fcc 	andi	r2,r2,255
  804200:	1080040c 	andi	r2,r2,16
  804204:	10000326 	beq	r2,zero,804214 <f_open+0x2f4>
  804208:	00800104 	movi	r2,4
  80420c:	e0bfef15 	stw	r2,-68(fp)
  804210:	00000b06 	br	804240 <f_open+0x320>
  804214:	e0bfff03 	ldbu	r2,-4(fp)
  804218:	1080008c 	andi	r2,r2,2
  80421c:	10000826 	beq	r2,zero,804240 <f_open+0x320>
  804220:	e0bff017 	ldw	r2,-64(fp)
  804224:	108002c4 	addi	r2,r2,11
  804228:	10800003 	ldbu	r2,0(r2)
  80422c:	10803fcc 	andi	r2,r2,255
  804230:	1080004c 	andi	r2,r2,1
  804234:	10000226 	beq	r2,zero,804240 <f_open+0x320>
  804238:	008001c4 	movi	r2,7
  80423c:	e0bfef15 	stw	r2,-68(fp)
  804240:	e0bfef17 	ldw	r2,-68(fp)
  804244:	10000d1e 	bne	r2,zero,80427c <f_open+0x35c>
  804248:	e0bfff03 	ldbu	r2,-4(fp)
  80424c:	1080020c 	andi	r2,r2,8
  804250:	10000326 	beq	r2,zero,804260 <f_open+0x340>
  804254:	e0bfff03 	ldbu	r2,-4(fp)
  804258:	10800814 	ori	r2,r2,32
  80425c:	e0bfff05 	stb	r2,-4(fp)
  804260:	e0bff317 	ldw	r2,-52(fp)
  804264:	10c00b17 	ldw	r3,44(r2)
  804268:	e0bffd17 	ldw	r2,-12(fp)
  80426c:	10c00715 	stw	r3,28(r2)
  804270:	e0bffd17 	ldw	r2,-12(fp)
  804274:	e0fff017 	ldw	r3,-64(fp)
  804278:	10c00815 	stw	r3,32(r2)
  80427c:	e0bfef17 	ldw	r2,-68(fp)
  804280:	1000421e 	bne	r2,zero,80438c <f_open+0x46c>
  804284:	e0bffd17 	ldw	r2,-12(fp)
  804288:	e0ffff03 	ldbu	r3,-4(fp)
  80428c:	10c00185 	stb	r3,6(r2)
  804290:	e0bff017 	ldw	r2,-64(fp)
  804294:	10800544 	addi	r2,r2,21
  804298:	10800003 	ldbu	r2,0(r2)
  80429c:	10803fcc 	andi	r2,r2,255
  8042a0:	1004923a 	slli	r2,r2,8
  8042a4:	1007883a 	mov	r3,r2
  8042a8:	e0bff017 	ldw	r2,-64(fp)
  8042ac:	10800504 	addi	r2,r2,20
  8042b0:	10800003 	ldbu	r2,0(r2)
  8042b4:	10803fcc 	andi	r2,r2,255
  8042b8:	1884b03a 	or	r2,r3,r2
  8042bc:	10bfffcc 	andi	r2,r2,65535
  8042c0:	1006943a 	slli	r3,r2,16
  8042c4:	e0bff017 	ldw	r2,-64(fp)
  8042c8:	108006c4 	addi	r2,r2,27
  8042cc:	10800003 	ldbu	r2,0(r2)
  8042d0:	10803fcc 	andi	r2,r2,255
  8042d4:	1004923a 	slli	r2,r2,8
  8042d8:	1009883a 	mov	r4,r2
  8042dc:	e0bff017 	ldw	r2,-64(fp)
  8042e0:	10800684 	addi	r2,r2,26
  8042e4:	10800003 	ldbu	r2,0(r2)
  8042e8:	10803fcc 	andi	r2,r2,255
  8042ec:	2084b03a 	or	r2,r4,r2
  8042f0:	10bfffcc 	andi	r2,r2,65535
  8042f4:	1886b03a 	or	r3,r3,r2
  8042f8:	e0bffd17 	ldw	r2,-12(fp)
  8042fc:	10c00415 	stw	r3,16(r2)
  804300:	e0bff017 	ldw	r2,-64(fp)
  804304:	108007c4 	addi	r2,r2,31
  804308:	10800003 	ldbu	r2,0(r2)
  80430c:	10803fcc 	andi	r2,r2,255
  804310:	1006963a 	slli	r3,r2,24
  804314:	e0bff017 	ldw	r2,-64(fp)
  804318:	10800784 	addi	r2,r2,30
  80431c:	10800003 	ldbu	r2,0(r2)
  804320:	10803fcc 	andi	r2,r2,255
  804324:	1004943a 	slli	r2,r2,16
  804328:	1884b03a 	or	r2,r3,r2
  80432c:	e0fff017 	ldw	r3,-64(fp)
  804330:	18c00744 	addi	r3,r3,29
  804334:	18c00003 	ldbu	r3,0(r3)
  804338:	18c03fcc 	andi	r3,r3,255
  80433c:	1806923a 	slli	r3,r3,8
  804340:	10c6b03a 	or	r3,r2,r3
  804344:	e0bff017 	ldw	r2,-64(fp)
  804348:	10800704 	addi	r2,r2,28
  80434c:	10800003 	ldbu	r2,0(r2)
  804350:	10803fcc 	andi	r2,r2,255
  804354:	1886b03a 	or	r3,r3,r2
  804358:	e0bffd17 	ldw	r2,-12(fp)
  80435c:	10c00315 	stw	r3,12(r2)
  804360:	e0bffd17 	ldw	r2,-12(fp)
  804364:	10000215 	stw	zero,8(r2)
  804368:	e0bffd17 	ldw	r2,-12(fp)
  80436c:	10000615 	stw	zero,24(r2)
  804370:	e0fff317 	ldw	r3,-52(fp)
  804374:	e0bffd17 	ldw	r2,-12(fp)
  804378:	10c00015 	stw	r3,0(r2)
  80437c:	e0bff317 	ldw	r2,-52(fp)
  804380:	10c0018b 	ldhu	r3,6(r2)
  804384:	e0bffd17 	ldw	r2,-12(fp)
  804388:	10c0010d 	sth	r3,4(r2)
  80438c:	e0bfef17 	ldw	r2,-68(fp)
  804390:	e037883a 	mov	sp,fp
  804394:	dfc00117 	ldw	ra,4(sp)
  804398:	df000017 	ldw	fp,0(sp)
  80439c:	dec00204 	addi	sp,sp,8
  8043a0:	f800283a 	ret

008043a4 <f_read>:
  8043a4:	defff204 	addi	sp,sp,-56
  8043a8:	dfc00d15 	stw	ra,52(sp)
  8043ac:	df000c15 	stw	fp,48(sp)
  8043b0:	df000c04 	addi	fp,sp,48
  8043b4:	e13ffc15 	stw	r4,-16(fp)
  8043b8:	e17ffd15 	stw	r5,-12(fp)
  8043bc:	e1bffe15 	stw	r6,-8(fp)
  8043c0:	e1ffff15 	stw	r7,-4(fp)
  8043c4:	e0bffd17 	ldw	r2,-12(fp)
  8043c8:	e0bff715 	stw	r2,-36(fp)
  8043cc:	e0bfff17 	ldw	r2,-4(fp)
  8043d0:	10000015 	stw	zero,0(r2)
  8043d4:	e0bffc17 	ldw	r2,-16(fp)
  8043d8:	10c00017 	ldw	r3,0(r2)
  8043dc:	e0bffc17 	ldw	r2,-16(fp)
  8043e0:	1080010b 	ldhu	r2,4(r2)
  8043e4:	10bfffcc 	andi	r2,r2,65535
  8043e8:	1809883a 	mov	r4,r3
  8043ec:	100b883a 	mov	r5,r2
  8043f0:	0803dfc0 	call	803dfc <validate>
  8043f4:	e0bff815 	stw	r2,-32(fp)
  8043f8:	e0bff817 	ldw	r2,-32(fp)
  8043fc:	10000226 	beq	r2,zero,804408 <f_read+0x64>
  804400:	e0bff817 	ldw	r2,-32(fp)
  804404:	00011b06 	br	804874 <f_read+0x4d0>
  804408:	e0bffc17 	ldw	r2,-16(fp)
  80440c:	10800183 	ldbu	r2,6(r2)
  804410:	10803fcc 	andi	r2,r2,255
  804414:	1080201c 	xori	r2,r2,128
  804418:	10bfe004 	addi	r2,r2,-128
  80441c:	1000020e 	bge	r2,zero,804428 <f_read+0x84>
  804420:	00800084 	movi	r2,2
  804424:	00011306 	br	804874 <f_read+0x4d0>
  804428:	e0bffc17 	ldw	r2,-16(fp)
  80442c:	10800183 	ldbu	r2,6(r2)
  804430:	10803fcc 	andi	r2,r2,255
  804434:	1080004c 	andi	r2,r2,1
  804438:	1000021e 	bne	r2,zero,804444 <f_read+0xa0>
  80443c:	008001c4 	movi	r2,7
  804440:	00010c06 	br	804874 <f_read+0x4d0>
  804444:	e0bffc17 	ldw	r2,-16(fp)
  804448:	10c00317 	ldw	r3,12(r2)
  80444c:	e0bffc17 	ldw	r2,-16(fp)
  804450:	10800217 	ldw	r2,8(r2)
  804454:	1885c83a 	sub	r2,r3,r2
  804458:	e0bff915 	stw	r2,-28(fp)
  80445c:	e0bffe17 	ldw	r2,-8(fp)
  804460:	e0fff917 	ldw	r3,-28(fp)
  804464:	1880022e 	bgeu	r3,r2,804470 <f_read+0xcc>
  804468:	e0bff917 	ldw	r2,-28(fp)
  80446c:	e0bffe15 	stw	r2,-8(fp)
  804470:	0000fd06 	br	804868 <f_read+0x4c4>
  804474:	e0bffc17 	ldw	r2,-16(fp)
  804478:	10800217 	ldw	r2,8(r2)
  80447c:	10807fcc 	andi	r2,r2,511
  804480:	1000d01e 	bne	r2,zero,8047c4 <f_read+0x420>
  804484:	e0bffc17 	ldw	r2,-16(fp)
  804488:	10800217 	ldw	r2,8(r2)
  80448c:	1004d27a 	srli	r2,r2,9
  804490:	1007883a 	mov	r3,r2
  804494:	e0bffc17 	ldw	r2,-16(fp)
  804498:	10800017 	ldw	r2,0(r2)
  80449c:	10800083 	ldbu	r2,2(r2)
  8044a0:	10bfffc4 	addi	r2,r2,-1
  8044a4:	1884703a 	and	r2,r3,r2
  8044a8:	e0bffa05 	stb	r2,-24(fp)
  8044ac:	e0bffa03 	ldbu	r2,-24(fp)
  8044b0:	10002a1e 	bne	r2,zero,80455c <f_read+0x1b8>
  8044b4:	e0bffc17 	ldw	r2,-16(fp)
  8044b8:	10800217 	ldw	r2,8(r2)
  8044bc:	1000041e 	bne	r2,zero,8044d0 <f_read+0x12c>
  8044c0:	e0bffc17 	ldw	r2,-16(fp)
  8044c4:	10800417 	ldw	r2,16(r2)
  8044c8:	e0bff415 	stw	r2,-48(fp)
  8044cc:	00000806 	br	8044f0 <f_read+0x14c>
  8044d0:	e0bffc17 	ldw	r2,-16(fp)
  8044d4:	10c00017 	ldw	r3,0(r2)
  8044d8:	e0bffc17 	ldw	r2,-16(fp)
  8044dc:	10800517 	ldw	r2,20(r2)
  8044e0:	1809883a 	mov	r4,r3
  8044e4:	100b883a 	mov	r5,r2
  8044e8:	0801af80 	call	801af8 <get_fat>
  8044ec:	e0bff415 	stw	r2,-48(fp)
  8044f0:	e0bff417 	ldw	r2,-48(fp)
  8044f4:	108000a8 	cmpgeui	r2,r2,2
  8044f8:	1000091e 	bne	r2,zero,804520 <f_read+0x17c>
  8044fc:	e0bffc17 	ldw	r2,-16(fp)
  804500:	10c00183 	ldbu	r3,6(r2)
  804504:	00bfe004 	movi	r2,-128
  804508:	1884b03a 	or	r2,r3,r2
  80450c:	1007883a 	mov	r3,r2
  804510:	e0bffc17 	ldw	r2,-16(fp)
  804514:	10c00185 	stb	r3,6(r2)
  804518:	00800084 	movi	r2,2
  80451c:	0000d506 	br	804874 <f_read+0x4d0>
  804520:	e0bff417 	ldw	r2,-48(fp)
  804524:	10bfffd8 	cmpnei	r2,r2,-1
  804528:	1000091e 	bne	r2,zero,804550 <f_read+0x1ac>
  80452c:	e0bffc17 	ldw	r2,-16(fp)
  804530:	10c00183 	ldbu	r3,6(r2)
  804534:	00bfe004 	movi	r2,-128
  804538:	1884b03a 	or	r2,r3,r2
  80453c:	1007883a 	mov	r3,r2
  804540:	e0bffc17 	ldw	r2,-16(fp)
  804544:	10c00185 	stb	r3,6(r2)
  804548:	00800044 	movi	r2,1
  80454c:	0000c906 	br	804874 <f_read+0x4d0>
  804550:	e0bffc17 	ldw	r2,-16(fp)
  804554:	e0fff417 	ldw	r3,-48(fp)
  804558:	10c00515 	stw	r3,20(r2)
  80455c:	e0bffc17 	ldw	r2,-16(fp)
  804560:	10c00017 	ldw	r3,0(r2)
  804564:	e0bffc17 	ldw	r2,-16(fp)
  804568:	10800517 	ldw	r2,20(r2)
  80456c:	1809883a 	mov	r4,r3
  804570:	100b883a 	mov	r5,r2
  804574:	0801a8c0 	call	801a8c <clust2sect>
  804578:	e0bffb15 	stw	r2,-20(fp)
  80457c:	e0bffb17 	ldw	r2,-20(fp)
  804580:	1000091e 	bne	r2,zero,8045a8 <f_read+0x204>
  804584:	e0bffc17 	ldw	r2,-16(fp)
  804588:	10c00183 	ldbu	r3,6(r2)
  80458c:	00bfe004 	movi	r2,-128
  804590:	1884b03a 	or	r2,r3,r2
  804594:	1007883a 	mov	r3,r2
  804598:	e0bffc17 	ldw	r2,-16(fp)
  80459c:	10c00185 	stb	r3,6(r2)
  8045a0:	00800084 	movi	r2,2
  8045a4:	0000b306 	br	804874 <f_read+0x4d0>
  8045a8:	e0bffa03 	ldbu	r2,-24(fp)
  8045ac:	e0fffb17 	ldw	r3,-20(fp)
  8045b0:	1885883a 	add	r2,r3,r2
  8045b4:	e0bffb15 	stw	r2,-20(fp)
  8045b8:	e0bffe17 	ldw	r2,-8(fp)
  8045bc:	1004d27a 	srli	r2,r2,9
  8045c0:	e0bff615 	stw	r2,-40(fp)
  8045c4:	e0bff617 	ldw	r2,-40(fp)
  8045c8:	10004026 	beq	r2,zero,8046cc <f_read+0x328>
  8045cc:	e0fffa03 	ldbu	r3,-24(fp)
  8045d0:	e0bff617 	ldw	r2,-40(fp)
  8045d4:	1885883a 	add	r2,r3,r2
  8045d8:	e0fffc17 	ldw	r3,-16(fp)
  8045dc:	18c00017 	ldw	r3,0(r3)
  8045e0:	18c00083 	ldbu	r3,2(r3)
  8045e4:	18c03fcc 	andi	r3,r3,255
  8045e8:	1880072e 	bgeu	r3,r2,804608 <f_read+0x264>
  8045ec:	e0bffc17 	ldw	r2,-16(fp)
  8045f0:	10800017 	ldw	r2,0(r2)
  8045f4:	10800083 	ldbu	r2,2(r2)
  8045f8:	10c03fcc 	andi	r3,r2,255
  8045fc:	e0bffa03 	ldbu	r2,-24(fp)
  804600:	1885c83a 	sub	r2,r3,r2
  804604:	e0bff615 	stw	r2,-40(fp)
  804608:	e0bffc17 	ldw	r2,-16(fp)
  80460c:	10800017 	ldw	r2,0(r2)
  804610:	10800043 	ldbu	r2,1(r2)
  804614:	10c03fcc 	andi	r3,r2,255
  804618:	e0bff617 	ldw	r2,-40(fp)
  80461c:	10803fcc 	andi	r2,r2,255
  804620:	1809883a 	mov	r4,r3
  804624:	e17ff717 	ldw	r5,-36(fp)
  804628:	e1bffb17 	ldw	r6,-20(fp)
  80462c:	100f883a 	mov	r7,r2
  804630:	0800dec0 	call	800dec <ffs_DiskIORead>
  804634:	10000926 	beq	r2,zero,80465c <f_read+0x2b8>
  804638:	e0bffc17 	ldw	r2,-16(fp)
  80463c:	10c00183 	ldbu	r3,6(r2)
  804640:	00bfe004 	movi	r2,-128
  804644:	1884b03a 	or	r2,r3,r2
  804648:	1007883a 	mov	r3,r2
  80464c:	e0bffc17 	ldw	r2,-16(fp)
  804650:	10c00185 	stb	r3,6(r2)
  804654:	00800044 	movi	r2,1
  804658:	00008606 	br	804874 <f_read+0x4d0>
  80465c:	e0bffc17 	ldw	r2,-16(fp)
  804660:	10800183 	ldbu	r2,6(r2)
  804664:	10803fcc 	andi	r2,r2,255
  804668:	1080100c 	andi	r2,r2,64
  80466c:	10001326 	beq	r2,zero,8046bc <f_read+0x318>
  804670:	e0bffc17 	ldw	r2,-16(fp)
  804674:	10c00617 	ldw	r3,24(r2)
  804678:	e0bffb17 	ldw	r2,-20(fp)
  80467c:	1887c83a 	sub	r3,r3,r2
  804680:	e0bff617 	ldw	r2,-40(fp)
  804684:	18800d2e 	bgeu	r3,r2,8046bc <f_read+0x318>
  804688:	e0bffc17 	ldw	r2,-16(fp)
  80468c:	10c00617 	ldw	r3,24(r2)
  804690:	e0bffb17 	ldw	r2,-20(fp)
  804694:	1885c83a 	sub	r2,r3,r2
  804698:	1004927a 	slli	r2,r2,9
  80469c:	e0fff717 	ldw	r3,-36(fp)
  8046a0:	1887883a 	add	r3,r3,r2
  8046a4:	e0bffc17 	ldw	r2,-16(fp)
  8046a8:	10800904 	addi	r2,r2,36
  8046ac:	1809883a 	mov	r4,r3
  8046b0:	100b883a 	mov	r5,r2
  8046b4:	01808004 	movi	r6,512
  8046b8:	08015480 	call	801548 <mem_cpy>
  8046bc:	e0bff617 	ldw	r2,-40(fp)
  8046c0:	1004927a 	slli	r2,r2,9
  8046c4:	e0bff515 	stw	r2,-44(fp)
  8046c8:	00005306 	br	804818 <f_read+0x474>
  8046cc:	e0bffc17 	ldw	r2,-16(fp)
  8046d0:	10c00617 	ldw	r3,24(r2)
  8046d4:	e0bffb17 	ldw	r2,-20(fp)
  8046d8:	18803726 	beq	r3,r2,8047b8 <f_read+0x414>
  8046dc:	e0bffc17 	ldw	r2,-16(fp)
  8046e0:	10800183 	ldbu	r2,6(r2)
  8046e4:	10803fcc 	andi	r2,r2,255
  8046e8:	1080100c 	andi	r2,r2,64
  8046ec:	10001d26 	beq	r2,zero,804764 <f_read+0x3c0>
  8046f0:	e0bffc17 	ldw	r2,-16(fp)
  8046f4:	10800017 	ldw	r2,0(r2)
  8046f8:	10800043 	ldbu	r2,1(r2)
  8046fc:	11003fcc 	andi	r4,r2,255
  804700:	e0bffc17 	ldw	r2,-16(fp)
  804704:	10c00904 	addi	r3,r2,36
  804708:	e0bffc17 	ldw	r2,-16(fp)
  80470c:	10800617 	ldw	r2,24(r2)
  804710:	180b883a 	mov	r5,r3
  804714:	100d883a 	mov	r6,r2
  804718:	01c00044 	movi	r7,1
  80471c:	0800f080 	call	800f08 <ffs_DiskIOWrite>
  804720:	10000926 	beq	r2,zero,804748 <f_read+0x3a4>
  804724:	e0bffc17 	ldw	r2,-16(fp)
  804728:	10c00183 	ldbu	r3,6(r2)
  80472c:	00bfe004 	movi	r2,-128
  804730:	1884b03a 	or	r2,r3,r2
  804734:	1007883a 	mov	r3,r2
  804738:	e0bffc17 	ldw	r2,-16(fp)
  80473c:	10c00185 	stb	r3,6(r2)
  804740:	00800044 	movi	r2,1
  804744:	00004b06 	br	804874 <f_read+0x4d0>
  804748:	e0bffc17 	ldw	r2,-16(fp)
  80474c:	10c00183 	ldbu	r3,6(r2)
  804750:	00bfefc4 	movi	r2,-65
  804754:	1884703a 	and	r2,r3,r2
  804758:	1007883a 	mov	r3,r2
  80475c:	e0bffc17 	ldw	r2,-16(fp)
  804760:	10c00185 	stb	r3,6(r2)
  804764:	e0bffc17 	ldw	r2,-16(fp)
  804768:	10800017 	ldw	r2,0(r2)
  80476c:	10800043 	ldbu	r2,1(r2)
  804770:	10c03fcc 	andi	r3,r2,255
  804774:	e0bffc17 	ldw	r2,-16(fp)
  804778:	10800904 	addi	r2,r2,36
  80477c:	1809883a 	mov	r4,r3
  804780:	100b883a 	mov	r5,r2
  804784:	e1bffb17 	ldw	r6,-20(fp)
  804788:	01c00044 	movi	r7,1
  80478c:	0800dec0 	call	800dec <ffs_DiskIORead>
  804790:	10000926 	beq	r2,zero,8047b8 <f_read+0x414>
  804794:	e0bffc17 	ldw	r2,-16(fp)
  804798:	10c00183 	ldbu	r3,6(r2)
  80479c:	00bfe004 	movi	r2,-128
  8047a0:	1884b03a 	or	r2,r3,r2
  8047a4:	1007883a 	mov	r3,r2
  8047a8:	e0bffc17 	ldw	r2,-16(fp)
  8047ac:	10c00185 	stb	r3,6(r2)
  8047b0:	00800044 	movi	r2,1
  8047b4:	00002f06 	br	804874 <f_read+0x4d0>
  8047b8:	e0bffc17 	ldw	r2,-16(fp)
  8047bc:	e0fffb17 	ldw	r3,-20(fp)
  8047c0:	10c00615 	stw	r3,24(r2)
  8047c4:	e0bffc17 	ldw	r2,-16(fp)
  8047c8:	10800217 	ldw	r2,8(r2)
  8047cc:	10807fcc 	andi	r2,r2,511
  8047d0:	00c08004 	movi	r3,512
  8047d4:	1885c83a 	sub	r2,r3,r2
  8047d8:	e0bff515 	stw	r2,-44(fp)
  8047dc:	e0bff517 	ldw	r2,-44(fp)
  8047e0:	e0fffe17 	ldw	r3,-8(fp)
  8047e4:	1880022e 	bgeu	r3,r2,8047f0 <f_read+0x44c>
  8047e8:	e0bffe17 	ldw	r2,-8(fp)
  8047ec:	e0bff515 	stw	r2,-44(fp)
  8047f0:	e0bffc17 	ldw	r2,-16(fp)
  8047f4:	10800217 	ldw	r2,8(r2)
  8047f8:	10807fcc 	andi	r2,r2,511
  8047fc:	10800904 	addi	r2,r2,36
  804800:	e0fffc17 	ldw	r3,-16(fp)
  804804:	1885883a 	add	r2,r3,r2
  804808:	e13ff717 	ldw	r4,-36(fp)
  80480c:	100b883a 	mov	r5,r2
  804810:	e1bff517 	ldw	r6,-44(fp)
  804814:	08015480 	call	801548 <mem_cpy>
  804818:	e0fff717 	ldw	r3,-36(fp)
  80481c:	e0bff517 	ldw	r2,-44(fp)
  804820:	1885883a 	add	r2,r3,r2
  804824:	e0bff715 	stw	r2,-36(fp)
  804828:	e0bffc17 	ldw	r2,-16(fp)
  80482c:	10c00217 	ldw	r3,8(r2)
  804830:	e0bff517 	ldw	r2,-44(fp)
  804834:	1887883a 	add	r3,r3,r2
  804838:	e0bffc17 	ldw	r2,-16(fp)
  80483c:	10c00215 	stw	r3,8(r2)
  804840:	e0bfff17 	ldw	r2,-4(fp)
  804844:	10c00017 	ldw	r3,0(r2)
  804848:	e0bff517 	ldw	r2,-44(fp)
  80484c:	1887883a 	add	r3,r3,r2
  804850:	e0bfff17 	ldw	r2,-4(fp)
  804854:	10c00015 	stw	r3,0(r2)
  804858:	e0fffe17 	ldw	r3,-8(fp)
  80485c:	e0bff517 	ldw	r2,-44(fp)
  804860:	1885c83a 	sub	r2,r3,r2
  804864:	e0bffe15 	stw	r2,-8(fp)
  804868:	e0bffe17 	ldw	r2,-8(fp)
  80486c:	103f011e 	bne	r2,zero,804474 <__alt_data_end+0xff804474>
  804870:	0005883a 	mov	r2,zero
  804874:	e037883a 	mov	sp,fp
  804878:	dfc00117 	ldw	ra,4(sp)
  80487c:	df000017 	ldw	fp,0(sp)
  804880:	dec00204 	addi	sp,sp,8
  804884:	f800283a 	ret

00804888 <f_write>:
  804888:	defff304 	addi	sp,sp,-52
  80488c:	dfc00c15 	stw	ra,48(sp)
  804890:	df000b15 	stw	fp,44(sp)
  804894:	df000b04 	addi	fp,sp,44
  804898:	e13ffc15 	stw	r4,-16(fp)
  80489c:	e17ffd15 	stw	r5,-12(fp)
  8048a0:	e1bffe15 	stw	r6,-8(fp)
  8048a4:	e1ffff15 	stw	r7,-4(fp)
  8048a8:	e0bffd17 	ldw	r2,-12(fp)
  8048ac:	e0bff815 	stw	r2,-32(fp)
  8048b0:	e0bfff17 	ldw	r2,-4(fp)
  8048b4:	10000015 	stw	zero,0(r2)
  8048b8:	e0bffc17 	ldw	r2,-16(fp)
  8048bc:	10c00017 	ldw	r3,0(r2)
  8048c0:	e0bffc17 	ldw	r2,-16(fp)
  8048c4:	1080010b 	ldhu	r2,4(r2)
  8048c8:	10bfffcc 	andi	r2,r2,65535
  8048cc:	1809883a 	mov	r4,r3
  8048d0:	100b883a 	mov	r5,r2
  8048d4:	0803dfc0 	call	803dfc <validate>
  8048d8:	e0bff915 	stw	r2,-28(fp)
  8048dc:	e0bff917 	ldw	r2,-28(fp)
  8048e0:	10000226 	beq	r2,zero,8048ec <f_write+0x64>
  8048e4:	e0bff917 	ldw	r2,-28(fp)
  8048e8:	00014106 	br	804df0 <f_write+0x568>
  8048ec:	e0bffc17 	ldw	r2,-16(fp)
  8048f0:	10800183 	ldbu	r2,6(r2)
  8048f4:	10803fcc 	andi	r2,r2,255
  8048f8:	1080201c 	xori	r2,r2,128
  8048fc:	10bfe004 	addi	r2,r2,-128
  804900:	1000020e 	bge	r2,zero,80490c <f_write+0x84>
  804904:	00800084 	movi	r2,2
  804908:	00013906 	br	804df0 <f_write+0x568>
  80490c:	e0bffc17 	ldw	r2,-16(fp)
  804910:	10800183 	ldbu	r2,6(r2)
  804914:	10803fcc 	andi	r2,r2,255
  804918:	1080008c 	andi	r2,r2,2
  80491c:	1000021e 	bne	r2,zero,804928 <f_write+0xa0>
  804920:	008001c4 	movi	r2,7
  804924:	00013206 	br	804df0 <f_write+0x568>
  804928:	e0bffc17 	ldw	r2,-16(fp)
  80492c:	10c00317 	ldw	r3,12(r2)
  804930:	e0bffe17 	ldw	r2,-8(fp)
  804934:	1887883a 	add	r3,r3,r2
  804938:	e0bffc17 	ldw	r2,-16(fp)
  80493c:	10800317 	ldw	r2,12(r2)
  804940:	1880012e 	bgeu	r3,r2,804948 <f_write+0xc0>
  804944:	e03ffe15 	stw	zero,-8(fp)
  804948:	00011706 	br	804da8 <f_write+0x520>
  80494c:	e0bffc17 	ldw	r2,-16(fp)
  804950:	10800217 	ldw	r2,8(r2)
  804954:	10807fcc 	andi	r2,r2,511
  804958:	1000e41e 	bne	r2,zero,804cec <f_write+0x464>
  80495c:	e0bffc17 	ldw	r2,-16(fp)
  804960:	10800217 	ldw	r2,8(r2)
  804964:	1004d27a 	srli	r2,r2,9
  804968:	1007883a 	mov	r3,r2
  80496c:	e0bffc17 	ldw	r2,-16(fp)
  804970:	10800017 	ldw	r2,0(r2)
  804974:	10800083 	ldbu	r2,2(r2)
  804978:	10bfffc4 	addi	r2,r2,-1
  80497c:	1884703a 	and	r2,r3,r2
  804980:	e0bffa05 	stb	r2,-24(fp)
  804984:	e0bffa03 	ldbu	r2,-24(fp)
  804988:	1000381e 	bne	r2,zero,804a6c <f_write+0x1e4>
  80498c:	e0bffc17 	ldw	r2,-16(fp)
  804990:	10800217 	ldw	r2,8(r2)
  804994:	10000f1e 	bne	r2,zero,8049d4 <f_write+0x14c>
  804998:	e0bffc17 	ldw	r2,-16(fp)
  80499c:	10800417 	ldw	r2,16(r2)
  8049a0:	e0bff515 	stw	r2,-44(fp)
  8049a4:	e0bff517 	ldw	r2,-44(fp)
  8049a8:	1000121e 	bne	r2,zero,8049f4 <f_write+0x16c>
  8049ac:	e0bffc17 	ldw	r2,-16(fp)
  8049b0:	10800017 	ldw	r2,0(r2)
  8049b4:	1009883a 	mov	r4,r2
  8049b8:	000b883a 	mov	r5,zero
  8049bc:	08022000 	call	802200 <create_chain>
  8049c0:	e0bff515 	stw	r2,-44(fp)
  8049c4:	e0bffc17 	ldw	r2,-16(fp)
  8049c8:	e0fff517 	ldw	r3,-44(fp)
  8049cc:	10c00415 	stw	r3,16(r2)
  8049d0:	00000806 	br	8049f4 <f_write+0x16c>
  8049d4:	e0bffc17 	ldw	r2,-16(fp)
  8049d8:	10c00017 	ldw	r3,0(r2)
  8049dc:	e0bffc17 	ldw	r2,-16(fp)
  8049e0:	10800517 	ldw	r2,20(r2)
  8049e4:	1809883a 	mov	r4,r3
  8049e8:	100b883a 	mov	r5,r2
  8049ec:	08022000 	call	802200 <create_chain>
  8049f0:	e0bff515 	stw	r2,-44(fp)
  8049f4:	e0bff517 	ldw	r2,-44(fp)
  8049f8:	1000011e 	bne	r2,zero,804a00 <f_write+0x178>
  8049fc:	0000ec06 	br	804db0 <f_write+0x528>
  804a00:	e0bff517 	ldw	r2,-44(fp)
  804a04:	10800058 	cmpnei	r2,r2,1
  804a08:	1000091e 	bne	r2,zero,804a30 <f_write+0x1a8>
  804a0c:	e0bffc17 	ldw	r2,-16(fp)
  804a10:	10c00183 	ldbu	r3,6(r2)
  804a14:	00bfe004 	movi	r2,-128
  804a18:	1884b03a 	or	r2,r3,r2
  804a1c:	1007883a 	mov	r3,r2
  804a20:	e0bffc17 	ldw	r2,-16(fp)
  804a24:	10c00185 	stb	r3,6(r2)
  804a28:	00800084 	movi	r2,2
  804a2c:	0000f006 	br	804df0 <f_write+0x568>
  804a30:	e0bff517 	ldw	r2,-44(fp)
  804a34:	10bfffd8 	cmpnei	r2,r2,-1
  804a38:	1000091e 	bne	r2,zero,804a60 <f_write+0x1d8>
  804a3c:	e0bffc17 	ldw	r2,-16(fp)
  804a40:	10c00183 	ldbu	r3,6(r2)
  804a44:	00bfe004 	movi	r2,-128
  804a48:	1884b03a 	or	r2,r3,r2
  804a4c:	1007883a 	mov	r3,r2
  804a50:	e0bffc17 	ldw	r2,-16(fp)
  804a54:	10c00185 	stb	r3,6(r2)
  804a58:	00800044 	movi	r2,1
  804a5c:	0000e406 	br	804df0 <f_write+0x568>
  804a60:	e0bffc17 	ldw	r2,-16(fp)
  804a64:	e0fff517 	ldw	r3,-44(fp)
  804a68:	10c00515 	stw	r3,20(r2)
  804a6c:	e0bffc17 	ldw	r2,-16(fp)
  804a70:	10800183 	ldbu	r2,6(r2)
  804a74:	10803fcc 	andi	r2,r2,255
  804a78:	1080100c 	andi	r2,r2,64
  804a7c:	10001d26 	beq	r2,zero,804af4 <f_write+0x26c>
  804a80:	e0bffc17 	ldw	r2,-16(fp)
  804a84:	10800017 	ldw	r2,0(r2)
  804a88:	10800043 	ldbu	r2,1(r2)
  804a8c:	11003fcc 	andi	r4,r2,255
  804a90:	e0bffc17 	ldw	r2,-16(fp)
  804a94:	10c00904 	addi	r3,r2,36
  804a98:	e0bffc17 	ldw	r2,-16(fp)
  804a9c:	10800617 	ldw	r2,24(r2)
  804aa0:	180b883a 	mov	r5,r3
  804aa4:	100d883a 	mov	r6,r2
  804aa8:	01c00044 	movi	r7,1
  804aac:	0800f080 	call	800f08 <ffs_DiskIOWrite>
  804ab0:	10000926 	beq	r2,zero,804ad8 <f_write+0x250>
  804ab4:	e0bffc17 	ldw	r2,-16(fp)
  804ab8:	10c00183 	ldbu	r3,6(r2)
  804abc:	00bfe004 	movi	r2,-128
  804ac0:	1884b03a 	or	r2,r3,r2
  804ac4:	1007883a 	mov	r3,r2
  804ac8:	e0bffc17 	ldw	r2,-16(fp)
  804acc:	10c00185 	stb	r3,6(r2)
  804ad0:	00800044 	movi	r2,1
  804ad4:	0000c606 	br	804df0 <f_write+0x568>
  804ad8:	e0bffc17 	ldw	r2,-16(fp)
  804adc:	10c00183 	ldbu	r3,6(r2)
  804ae0:	00bfefc4 	movi	r2,-65
  804ae4:	1884703a 	and	r2,r3,r2
  804ae8:	1007883a 	mov	r3,r2
  804aec:	e0bffc17 	ldw	r2,-16(fp)
  804af0:	10c00185 	stb	r3,6(r2)
  804af4:	e0bffc17 	ldw	r2,-16(fp)
  804af8:	10c00017 	ldw	r3,0(r2)
  804afc:	e0bffc17 	ldw	r2,-16(fp)
  804b00:	10800517 	ldw	r2,20(r2)
  804b04:	1809883a 	mov	r4,r3
  804b08:	100b883a 	mov	r5,r2
  804b0c:	0801a8c0 	call	801a8c <clust2sect>
  804b10:	e0bffb15 	stw	r2,-20(fp)
  804b14:	e0bffb17 	ldw	r2,-20(fp)
  804b18:	1000091e 	bne	r2,zero,804b40 <f_write+0x2b8>
  804b1c:	e0bffc17 	ldw	r2,-16(fp)
  804b20:	10c00183 	ldbu	r3,6(r2)
  804b24:	00bfe004 	movi	r2,-128
  804b28:	1884b03a 	or	r2,r3,r2
  804b2c:	1007883a 	mov	r3,r2
  804b30:	e0bffc17 	ldw	r2,-16(fp)
  804b34:	10c00185 	stb	r3,6(r2)
  804b38:	00800084 	movi	r2,2
  804b3c:	0000ac06 	br	804df0 <f_write+0x568>
  804b40:	e0bffa03 	ldbu	r2,-24(fp)
  804b44:	e0fffb17 	ldw	r3,-20(fp)
  804b48:	1885883a 	add	r2,r3,r2
  804b4c:	e0bffb15 	stw	r2,-20(fp)
  804b50:	e0bffe17 	ldw	r2,-8(fp)
  804b54:	1004d27a 	srli	r2,r2,9
  804b58:	e0bff715 	stw	r2,-36(fp)
  804b5c:	e0bff717 	ldw	r2,-36(fp)
  804b60:	10004126 	beq	r2,zero,804c68 <f_write+0x3e0>
  804b64:	e0fffa03 	ldbu	r3,-24(fp)
  804b68:	e0bff717 	ldw	r2,-36(fp)
  804b6c:	1885883a 	add	r2,r3,r2
  804b70:	e0fffc17 	ldw	r3,-16(fp)
  804b74:	18c00017 	ldw	r3,0(r3)
  804b78:	18c00083 	ldbu	r3,2(r3)
  804b7c:	18c03fcc 	andi	r3,r3,255
  804b80:	1880072e 	bgeu	r3,r2,804ba0 <f_write+0x318>
  804b84:	e0bffc17 	ldw	r2,-16(fp)
  804b88:	10800017 	ldw	r2,0(r2)
  804b8c:	10800083 	ldbu	r2,2(r2)
  804b90:	10c03fcc 	andi	r3,r2,255
  804b94:	e0bffa03 	ldbu	r2,-24(fp)
  804b98:	1885c83a 	sub	r2,r3,r2
  804b9c:	e0bff715 	stw	r2,-36(fp)
  804ba0:	e0bffc17 	ldw	r2,-16(fp)
  804ba4:	10800017 	ldw	r2,0(r2)
  804ba8:	10800043 	ldbu	r2,1(r2)
  804bac:	10c03fcc 	andi	r3,r2,255
  804bb0:	e0bff717 	ldw	r2,-36(fp)
  804bb4:	10803fcc 	andi	r2,r2,255
  804bb8:	1809883a 	mov	r4,r3
  804bbc:	e17ff817 	ldw	r5,-32(fp)
  804bc0:	e1bffb17 	ldw	r6,-20(fp)
  804bc4:	100f883a 	mov	r7,r2
  804bc8:	0800f080 	call	800f08 <ffs_DiskIOWrite>
  804bcc:	10000926 	beq	r2,zero,804bf4 <f_write+0x36c>
  804bd0:	e0bffc17 	ldw	r2,-16(fp)
  804bd4:	10c00183 	ldbu	r3,6(r2)
  804bd8:	00bfe004 	movi	r2,-128
  804bdc:	1884b03a 	or	r2,r3,r2
  804be0:	1007883a 	mov	r3,r2
  804be4:	e0bffc17 	ldw	r2,-16(fp)
  804be8:	10c00185 	stb	r3,6(r2)
  804bec:	00800044 	movi	r2,1
  804bf0:	00007f06 	br	804df0 <f_write+0x568>
  804bf4:	e0bffc17 	ldw	r2,-16(fp)
  804bf8:	10c00617 	ldw	r3,24(r2)
  804bfc:	e0bffb17 	ldw	r2,-20(fp)
  804c00:	1887c83a 	sub	r3,r3,r2
  804c04:	e0bff717 	ldw	r2,-36(fp)
  804c08:	1880132e 	bgeu	r3,r2,804c58 <f_write+0x3d0>
  804c0c:	e0bffc17 	ldw	r2,-16(fp)
  804c10:	11000904 	addi	r4,r2,36
  804c14:	e0bffc17 	ldw	r2,-16(fp)
  804c18:	10c00617 	ldw	r3,24(r2)
  804c1c:	e0bffb17 	ldw	r2,-20(fp)
  804c20:	1885c83a 	sub	r2,r3,r2
  804c24:	1004927a 	slli	r2,r2,9
  804c28:	e0fff817 	ldw	r3,-32(fp)
  804c2c:	1885883a 	add	r2,r3,r2
  804c30:	100b883a 	mov	r5,r2
  804c34:	01808004 	movi	r6,512
  804c38:	08015480 	call	801548 <mem_cpy>
  804c3c:	e0bffc17 	ldw	r2,-16(fp)
  804c40:	10c00183 	ldbu	r3,6(r2)
  804c44:	00bfefc4 	movi	r2,-65
  804c48:	1884703a 	and	r2,r3,r2
  804c4c:	1007883a 	mov	r3,r2
  804c50:	e0bffc17 	ldw	r2,-16(fp)
  804c54:	10c00185 	stb	r3,6(r2)
  804c58:	e0bff717 	ldw	r2,-36(fp)
  804c5c:	1004927a 	slli	r2,r2,9
  804c60:	e0bff615 	stw	r2,-40(fp)
  804c64:	00003c06 	br	804d58 <f_write+0x4d0>
  804c68:	e0bffc17 	ldw	r2,-16(fp)
  804c6c:	10c00617 	ldw	r3,24(r2)
  804c70:	e0bffb17 	ldw	r2,-20(fp)
  804c74:	18801a26 	beq	r3,r2,804ce0 <f_write+0x458>
  804c78:	e0bffc17 	ldw	r2,-16(fp)
  804c7c:	10c00217 	ldw	r3,8(r2)
  804c80:	e0bffc17 	ldw	r2,-16(fp)
  804c84:	10800317 	ldw	r2,12(r2)
  804c88:	1880152e 	bgeu	r3,r2,804ce0 <f_write+0x458>
  804c8c:	e0bffc17 	ldw	r2,-16(fp)
  804c90:	10800017 	ldw	r2,0(r2)
  804c94:	10800043 	ldbu	r2,1(r2)
  804c98:	10c03fcc 	andi	r3,r2,255
  804c9c:	e0bffc17 	ldw	r2,-16(fp)
  804ca0:	10800904 	addi	r2,r2,36
  804ca4:	1809883a 	mov	r4,r3
  804ca8:	100b883a 	mov	r5,r2
  804cac:	e1bffb17 	ldw	r6,-20(fp)
  804cb0:	01c00044 	movi	r7,1
  804cb4:	0800dec0 	call	800dec <ffs_DiskIORead>
  804cb8:	10000926 	beq	r2,zero,804ce0 <f_write+0x458>
  804cbc:	e0bffc17 	ldw	r2,-16(fp)
  804cc0:	10c00183 	ldbu	r3,6(r2)
  804cc4:	00bfe004 	movi	r2,-128
  804cc8:	1884b03a 	or	r2,r3,r2
  804ccc:	1007883a 	mov	r3,r2
  804cd0:	e0bffc17 	ldw	r2,-16(fp)
  804cd4:	10c00185 	stb	r3,6(r2)
  804cd8:	00800044 	movi	r2,1
  804cdc:	00004406 	br	804df0 <f_write+0x568>
  804ce0:	e0bffc17 	ldw	r2,-16(fp)
  804ce4:	e0fffb17 	ldw	r3,-20(fp)
  804ce8:	10c00615 	stw	r3,24(r2)
  804cec:	e0bffc17 	ldw	r2,-16(fp)
  804cf0:	10800217 	ldw	r2,8(r2)
  804cf4:	10807fcc 	andi	r2,r2,511
  804cf8:	00c08004 	movi	r3,512
  804cfc:	1885c83a 	sub	r2,r3,r2
  804d00:	e0bff615 	stw	r2,-40(fp)
  804d04:	e0bff617 	ldw	r2,-40(fp)
  804d08:	e0fffe17 	ldw	r3,-8(fp)
  804d0c:	1880022e 	bgeu	r3,r2,804d18 <f_write+0x490>
  804d10:	e0bffe17 	ldw	r2,-8(fp)
  804d14:	e0bff615 	stw	r2,-40(fp)
  804d18:	e0bffc17 	ldw	r2,-16(fp)
  804d1c:	10800217 	ldw	r2,8(r2)
  804d20:	10807fcc 	andi	r2,r2,511
  804d24:	10800904 	addi	r2,r2,36
  804d28:	e0fffc17 	ldw	r3,-16(fp)
  804d2c:	1885883a 	add	r2,r3,r2
  804d30:	1009883a 	mov	r4,r2
  804d34:	e17ff817 	ldw	r5,-32(fp)
  804d38:	e1bff617 	ldw	r6,-40(fp)
  804d3c:	08015480 	call	801548 <mem_cpy>
  804d40:	e0bffc17 	ldw	r2,-16(fp)
  804d44:	10800183 	ldbu	r2,6(r2)
  804d48:	10801014 	ori	r2,r2,64
  804d4c:	1007883a 	mov	r3,r2
  804d50:	e0bffc17 	ldw	r2,-16(fp)
  804d54:	10c00185 	stb	r3,6(r2)
  804d58:	e0fff817 	ldw	r3,-32(fp)
  804d5c:	e0bff617 	ldw	r2,-40(fp)
  804d60:	1885883a 	add	r2,r3,r2
  804d64:	e0bff815 	stw	r2,-32(fp)
  804d68:	e0bffc17 	ldw	r2,-16(fp)
  804d6c:	10c00217 	ldw	r3,8(r2)
  804d70:	e0bff617 	ldw	r2,-40(fp)
  804d74:	1887883a 	add	r3,r3,r2
  804d78:	e0bffc17 	ldw	r2,-16(fp)
  804d7c:	10c00215 	stw	r3,8(r2)
  804d80:	e0bfff17 	ldw	r2,-4(fp)
  804d84:	10c00017 	ldw	r3,0(r2)
  804d88:	e0bff617 	ldw	r2,-40(fp)
  804d8c:	1887883a 	add	r3,r3,r2
  804d90:	e0bfff17 	ldw	r2,-4(fp)
  804d94:	10c00015 	stw	r3,0(r2)
  804d98:	e0fffe17 	ldw	r3,-8(fp)
  804d9c:	e0bff617 	ldw	r2,-40(fp)
  804da0:	1885c83a 	sub	r2,r3,r2
  804da4:	e0bffe15 	stw	r2,-8(fp)
  804da8:	e0bffe17 	ldw	r2,-8(fp)
  804dac:	103ee71e 	bne	r2,zero,80494c <__alt_data_end+0xff80494c>
  804db0:	e0bffc17 	ldw	r2,-16(fp)
  804db4:	10800217 	ldw	r2,8(r2)
  804db8:	e0fffc17 	ldw	r3,-16(fp)
  804dbc:	18c00317 	ldw	r3,12(r3)
  804dc0:	1880042e 	bgeu	r3,r2,804dd4 <f_write+0x54c>
  804dc4:	e0bffc17 	ldw	r2,-16(fp)
  804dc8:	10c00217 	ldw	r3,8(r2)
  804dcc:	e0bffc17 	ldw	r2,-16(fp)
  804dd0:	10c00315 	stw	r3,12(r2)
  804dd4:	e0bffc17 	ldw	r2,-16(fp)
  804dd8:	10800183 	ldbu	r2,6(r2)
  804ddc:	10800814 	ori	r2,r2,32
  804de0:	1007883a 	mov	r3,r2
  804de4:	e0bffc17 	ldw	r2,-16(fp)
  804de8:	10c00185 	stb	r3,6(r2)
  804dec:	0005883a 	mov	r2,zero
  804df0:	e037883a 	mov	sp,fp
  804df4:	dfc00117 	ldw	ra,4(sp)
  804df8:	df000017 	ldw	fp,0(sp)
  804dfc:	dec00204 	addi	sp,sp,8
  804e00:	f800283a 	ret

00804e04 <f_sync>:
  804e04:	defffa04 	addi	sp,sp,-24
  804e08:	dfc00515 	stw	ra,20(sp)
  804e0c:	df000415 	stw	fp,16(sp)
  804e10:	df000404 	addi	fp,sp,16
  804e14:	e13fff15 	stw	r4,-4(fp)
  804e18:	e0bfff17 	ldw	r2,-4(fp)
  804e1c:	10c00017 	ldw	r3,0(r2)
  804e20:	e0bfff17 	ldw	r2,-4(fp)
  804e24:	1080010b 	ldhu	r2,4(r2)
  804e28:	10bfffcc 	andi	r2,r2,65535
  804e2c:	1809883a 	mov	r4,r3
  804e30:	100b883a 	mov	r5,r2
  804e34:	0803dfc0 	call	803dfc <validate>
  804e38:	e0bffc15 	stw	r2,-16(fp)
  804e3c:	e0bffc17 	ldw	r2,-16(fp)
  804e40:	10008c1e 	bne	r2,zero,805074 <f_sync+0x270>
  804e44:	e0bfff17 	ldw	r2,-4(fp)
  804e48:	10800183 	ldbu	r2,6(r2)
  804e4c:	10803fcc 	andi	r2,r2,255
  804e50:	1080080c 	andi	r2,r2,32
  804e54:	10008726 	beq	r2,zero,805074 <f_sync+0x270>
  804e58:	e0bfff17 	ldw	r2,-4(fp)
  804e5c:	10800183 	ldbu	r2,6(r2)
  804e60:	10803fcc 	andi	r2,r2,255
  804e64:	1080100c 	andi	r2,r2,64
  804e68:	10001626 	beq	r2,zero,804ec4 <f_sync+0xc0>
  804e6c:	e0bfff17 	ldw	r2,-4(fp)
  804e70:	10800017 	ldw	r2,0(r2)
  804e74:	10800043 	ldbu	r2,1(r2)
  804e78:	11003fcc 	andi	r4,r2,255
  804e7c:	e0bfff17 	ldw	r2,-4(fp)
  804e80:	10c00904 	addi	r3,r2,36
  804e84:	e0bfff17 	ldw	r2,-4(fp)
  804e88:	10800617 	ldw	r2,24(r2)
  804e8c:	180b883a 	mov	r5,r3
  804e90:	100d883a 	mov	r6,r2
  804e94:	01c00044 	movi	r7,1
  804e98:	0800f080 	call	800f08 <ffs_DiskIOWrite>
  804e9c:	10000226 	beq	r2,zero,804ea8 <f_sync+0xa4>
  804ea0:	00800044 	movi	r2,1
  804ea4:	00007406 	br	805078 <f_sync+0x274>
  804ea8:	e0bfff17 	ldw	r2,-4(fp)
  804eac:	10c00183 	ldbu	r3,6(r2)
  804eb0:	00bfefc4 	movi	r2,-65
  804eb4:	1884703a 	and	r2,r3,r2
  804eb8:	1007883a 	mov	r3,r2
  804ebc:	e0bfff17 	ldw	r2,-4(fp)
  804ec0:	10c00185 	stb	r3,6(r2)
  804ec4:	e0bfff17 	ldw	r2,-4(fp)
  804ec8:	10c00017 	ldw	r3,0(r2)
  804ecc:	e0bfff17 	ldw	r2,-4(fp)
  804ed0:	10800717 	ldw	r2,28(r2)
  804ed4:	1809883a 	mov	r4,r3
  804ed8:	100b883a 	mov	r5,r2
  804edc:	08017140 	call	801714 <move_window>
  804ee0:	e0bffc15 	stw	r2,-16(fp)
  804ee4:	e0bffc17 	ldw	r2,-16(fp)
  804ee8:	1000621e 	bne	r2,zero,805074 <f_sync+0x270>
  804eec:	e0bfff17 	ldw	r2,-4(fp)
  804ef0:	10800817 	ldw	r2,32(r2)
  804ef4:	e0bffd15 	stw	r2,-12(fp)
  804ef8:	e0bffd17 	ldw	r2,-12(fp)
  804efc:	108002c4 	addi	r2,r2,11
  804f00:	e0fffd17 	ldw	r3,-12(fp)
  804f04:	18c002c4 	addi	r3,r3,11
  804f08:	18c00003 	ldbu	r3,0(r3)
  804f0c:	18c00814 	ori	r3,r3,32
  804f10:	10c00005 	stb	r3,0(r2)
  804f14:	e0bffd17 	ldw	r2,-12(fp)
  804f18:	10800704 	addi	r2,r2,28
  804f1c:	e0ffff17 	ldw	r3,-4(fp)
  804f20:	18c00317 	ldw	r3,12(r3)
  804f24:	10c00005 	stb	r3,0(r2)
  804f28:	e0bffd17 	ldw	r2,-12(fp)
  804f2c:	10800744 	addi	r2,r2,29
  804f30:	e0ffff17 	ldw	r3,-4(fp)
  804f34:	18c00317 	ldw	r3,12(r3)
  804f38:	18ffffcc 	andi	r3,r3,65535
  804f3c:	1806d23a 	srli	r3,r3,8
  804f40:	10c00005 	stb	r3,0(r2)
  804f44:	e0bffd17 	ldw	r2,-12(fp)
  804f48:	10800784 	addi	r2,r2,30
  804f4c:	e0ffff17 	ldw	r3,-4(fp)
  804f50:	18c00317 	ldw	r3,12(r3)
  804f54:	1806d43a 	srli	r3,r3,16
  804f58:	10c00005 	stb	r3,0(r2)
  804f5c:	e0bffd17 	ldw	r2,-12(fp)
  804f60:	108007c4 	addi	r2,r2,31
  804f64:	e0ffff17 	ldw	r3,-4(fp)
  804f68:	18c00317 	ldw	r3,12(r3)
  804f6c:	1806d63a 	srli	r3,r3,24
  804f70:	10c00005 	stb	r3,0(r2)
  804f74:	e0bffd17 	ldw	r2,-12(fp)
  804f78:	10800684 	addi	r2,r2,26
  804f7c:	e0ffff17 	ldw	r3,-4(fp)
  804f80:	18c00417 	ldw	r3,16(r3)
  804f84:	10c00005 	stb	r3,0(r2)
  804f88:	e0bffd17 	ldw	r2,-12(fp)
  804f8c:	108006c4 	addi	r2,r2,27
  804f90:	e0ffff17 	ldw	r3,-4(fp)
  804f94:	18c00417 	ldw	r3,16(r3)
  804f98:	18ffffcc 	andi	r3,r3,65535
  804f9c:	1806d23a 	srli	r3,r3,8
  804fa0:	10c00005 	stb	r3,0(r2)
  804fa4:	e0bffd17 	ldw	r2,-12(fp)
  804fa8:	10800504 	addi	r2,r2,20
  804fac:	e0ffff17 	ldw	r3,-4(fp)
  804fb0:	18c00417 	ldw	r3,16(r3)
  804fb4:	1806d43a 	srli	r3,r3,16
  804fb8:	10c00005 	stb	r3,0(r2)
  804fbc:	e0bffd17 	ldw	r2,-12(fp)
  804fc0:	10800544 	addi	r2,r2,21
  804fc4:	e0ffff17 	ldw	r3,-4(fp)
  804fc8:	18c00417 	ldw	r3,16(r3)
  804fcc:	1806d43a 	srli	r3,r3,16
  804fd0:	18ffffcc 	andi	r3,r3,65535
  804fd4:	1806d23a 	srli	r3,r3,8
  804fd8:	10c00005 	stb	r3,0(r2)
  804fdc:	080151c0 	call	80151c <get_fattime>
  804fe0:	e0bffe15 	stw	r2,-8(fp)
  804fe4:	e0bffd17 	ldw	r2,-12(fp)
  804fe8:	10800584 	addi	r2,r2,22
  804fec:	e0fffe17 	ldw	r3,-8(fp)
  804ff0:	10c00005 	stb	r3,0(r2)
  804ff4:	e0bffd17 	ldw	r2,-12(fp)
  804ff8:	108005c4 	addi	r2,r2,23
  804ffc:	e0fffe17 	ldw	r3,-8(fp)
  805000:	18ffffcc 	andi	r3,r3,65535
  805004:	1806d23a 	srli	r3,r3,8
  805008:	10c00005 	stb	r3,0(r2)
  80500c:	e0bffd17 	ldw	r2,-12(fp)
  805010:	10800604 	addi	r2,r2,24
  805014:	e0fffe17 	ldw	r3,-8(fp)
  805018:	1806d43a 	srli	r3,r3,16
  80501c:	10c00005 	stb	r3,0(r2)
  805020:	e0bffd17 	ldw	r2,-12(fp)
  805024:	10800644 	addi	r2,r2,25
  805028:	e0fffe17 	ldw	r3,-8(fp)
  80502c:	1806d63a 	srli	r3,r3,24
  805030:	10c00005 	stb	r3,0(r2)
  805034:	e0bfff17 	ldw	r2,-4(fp)
  805038:	10c00183 	ldbu	r3,6(r2)
  80503c:	00bff7c4 	movi	r2,-33
  805040:	1884703a 	and	r2,r3,r2
  805044:	1007883a 	mov	r3,r2
  805048:	e0bfff17 	ldw	r2,-4(fp)
  80504c:	10c00185 	stb	r3,6(r2)
  805050:	e0bfff17 	ldw	r2,-4(fp)
  805054:	10800017 	ldw	r2,0(r2)
  805058:	00c00044 	movi	r3,1
  80505c:	10c00105 	stb	r3,4(r2)
  805060:	e0bfff17 	ldw	r2,-4(fp)
  805064:	10800017 	ldw	r2,0(r2)
  805068:	1009883a 	mov	r4,r2
  80506c:	08018700 	call	801870 <sync>
  805070:	e0bffc15 	stw	r2,-16(fp)
  805074:	e0bffc17 	ldw	r2,-16(fp)
  805078:	e037883a 	mov	sp,fp
  80507c:	dfc00117 	ldw	ra,4(sp)
  805080:	df000017 	ldw	fp,0(sp)
  805084:	dec00204 	addi	sp,sp,8
  805088:	f800283a 	ret

0080508c <f_close>:
  80508c:	defffc04 	addi	sp,sp,-16
  805090:	dfc00315 	stw	ra,12(sp)
  805094:	df000215 	stw	fp,8(sp)
  805098:	df000204 	addi	fp,sp,8
  80509c:	e13fff15 	stw	r4,-4(fp)
  8050a0:	e13fff17 	ldw	r4,-4(fp)
  8050a4:	0804e040 	call	804e04 <f_sync>
  8050a8:	e0bffe15 	stw	r2,-8(fp)
  8050ac:	e0bffe17 	ldw	r2,-8(fp)
  8050b0:	1000021e 	bne	r2,zero,8050bc <f_close+0x30>
  8050b4:	e0bfff17 	ldw	r2,-4(fp)
  8050b8:	10000015 	stw	zero,0(r2)
  8050bc:	e0bffe17 	ldw	r2,-8(fp)
  8050c0:	e037883a 	mov	sp,fp
  8050c4:	dfc00117 	ldw	ra,4(sp)
  8050c8:	df000017 	ldw	fp,0(sp)
  8050cc:	dec00204 	addi	sp,sp,8
  8050d0:	f800283a 	ret

008050d4 <f_lseek>:
  8050d4:	defff604 	addi	sp,sp,-40
  8050d8:	dfc00915 	stw	ra,36(sp)
  8050dc:	df000815 	stw	fp,32(sp)
  8050e0:	dc000715 	stw	r16,28(sp)
  8050e4:	df000804 	addi	fp,sp,32
  8050e8:	e13ffd15 	stw	r4,-12(fp)
  8050ec:	e17ffe15 	stw	r5,-8(fp)
  8050f0:	e0bffd17 	ldw	r2,-12(fp)
  8050f4:	10c00017 	ldw	r3,0(r2)
  8050f8:	e0bffd17 	ldw	r2,-12(fp)
  8050fc:	1080010b 	ldhu	r2,4(r2)
  805100:	10bfffcc 	andi	r2,r2,65535
  805104:	1809883a 	mov	r4,r3
  805108:	100b883a 	mov	r5,r2
  80510c:	0803dfc0 	call	803dfc <validate>
  805110:	e0bffa15 	stw	r2,-24(fp)
  805114:	e0bffa17 	ldw	r2,-24(fp)
  805118:	10000226 	beq	r2,zero,805124 <f_lseek+0x50>
  80511c:	e0bffa17 	ldw	r2,-24(fp)
  805120:	00012106 	br	8055a8 <f_lseek+0x4d4>
  805124:	e0bffd17 	ldw	r2,-12(fp)
  805128:	10800183 	ldbu	r2,6(r2)
  80512c:	10803fcc 	andi	r2,r2,255
  805130:	1080201c 	xori	r2,r2,128
  805134:	10bfe004 	addi	r2,r2,-128
  805138:	1000020e 	bge	r2,zero,805144 <f_lseek+0x70>
  80513c:	00800084 	movi	r2,2
  805140:	00011906 	br	8055a8 <f_lseek+0x4d4>
  805144:	e0bffd17 	ldw	r2,-12(fp)
  805148:	10c00317 	ldw	r3,12(r2)
  80514c:	e0bffe17 	ldw	r2,-8(fp)
  805150:	1880082e 	bgeu	r3,r2,805174 <f_lseek+0xa0>
  805154:	e0bffd17 	ldw	r2,-12(fp)
  805158:	10800183 	ldbu	r2,6(r2)
  80515c:	10803fcc 	andi	r2,r2,255
  805160:	1080008c 	andi	r2,r2,2
  805164:	1000031e 	bne	r2,zero,805174 <f_lseek+0xa0>
  805168:	e0bffd17 	ldw	r2,-12(fp)
  80516c:	10800317 	ldw	r2,12(r2)
  805170:	e0bffe15 	stw	r2,-8(fp)
  805174:	e0bffd17 	ldw	r2,-12(fp)
  805178:	10800217 	ldw	r2,8(r2)
  80517c:	e0bffb15 	stw	r2,-20(fp)
  805180:	e03ff915 	stw	zero,-28(fp)
  805184:	e0bffd17 	ldw	r2,-12(fp)
  805188:	e0fff917 	ldw	r3,-28(fp)
  80518c:	10c00215 	stw	r3,8(r2)
  805190:	e0bffe17 	ldw	r2,-8(fp)
  805194:	1000b226 	beq	r2,zero,805460 <f_lseek+0x38c>
  805198:	e0bffd17 	ldw	r2,-12(fp)
  80519c:	10800017 	ldw	r2,0(r2)
  8051a0:	10800083 	ldbu	r2,2(r2)
  8051a4:	10803fcc 	andi	r2,r2,255
  8051a8:	1004927a 	slli	r2,r2,9
  8051ac:	e0bffc15 	stw	r2,-16(fp)
  8051b0:	e0bffb17 	ldw	r2,-20(fp)
  8051b4:	10001c26 	beq	r2,zero,805228 <f_lseek+0x154>
  8051b8:	e0bffe17 	ldw	r2,-8(fp)
  8051bc:	10bfffc4 	addi	r2,r2,-1
  8051c0:	1009883a 	mov	r4,r2
  8051c4:	e17ffc17 	ldw	r5,-16(fp)
  8051c8:	080a2500 	call	80a250 <__udivsi3>
  8051cc:	1021883a 	mov	r16,r2
  8051d0:	e0bffb17 	ldw	r2,-20(fp)
  8051d4:	10bfffc4 	addi	r2,r2,-1
  8051d8:	1009883a 	mov	r4,r2
  8051dc:	e17ffc17 	ldw	r5,-16(fp)
  8051e0:	080a2500 	call	80a250 <__udivsi3>
  8051e4:	80801036 	bltu	r16,r2,805228 <f_lseek+0x154>
  8051e8:	e0bffb17 	ldw	r2,-20(fp)
  8051ec:	10ffffc4 	addi	r3,r2,-1
  8051f0:	e0bffc17 	ldw	r2,-16(fp)
  8051f4:	0085c83a 	sub	r2,zero,r2
  8051f8:	1886703a 	and	r3,r3,r2
  8051fc:	e0bffd17 	ldw	r2,-12(fp)
  805200:	10c00215 	stw	r3,8(r2)
  805204:	e0bffd17 	ldw	r2,-12(fp)
  805208:	10800217 	ldw	r2,8(r2)
  80520c:	e0fffe17 	ldw	r3,-8(fp)
  805210:	1885c83a 	sub	r2,r3,r2
  805214:	e0bffe15 	stw	r2,-8(fp)
  805218:	e0bffd17 	ldw	r2,-12(fp)
  80521c:	10800517 	ldw	r2,20(r2)
  805220:	e0bff815 	stw	r2,-32(fp)
  805224:	00002906 	br	8052cc <f_lseek+0x1f8>
  805228:	e0bffd17 	ldw	r2,-12(fp)
  80522c:	10800417 	ldw	r2,16(r2)
  805230:	e0bff815 	stw	r2,-32(fp)
  805234:	e0bff817 	ldw	r2,-32(fp)
  805238:	1000211e 	bne	r2,zero,8052c0 <f_lseek+0x1ec>
  80523c:	e0bffd17 	ldw	r2,-12(fp)
  805240:	10800017 	ldw	r2,0(r2)
  805244:	1009883a 	mov	r4,r2
  805248:	000b883a 	mov	r5,zero
  80524c:	08022000 	call	802200 <create_chain>
  805250:	e0bff815 	stw	r2,-32(fp)
  805254:	e0bff817 	ldw	r2,-32(fp)
  805258:	10800058 	cmpnei	r2,r2,1
  80525c:	1000091e 	bne	r2,zero,805284 <f_lseek+0x1b0>
  805260:	e0bffd17 	ldw	r2,-12(fp)
  805264:	10c00183 	ldbu	r3,6(r2)
  805268:	00bfe004 	movi	r2,-128
  80526c:	1884b03a 	or	r2,r3,r2
  805270:	1007883a 	mov	r3,r2
  805274:	e0bffd17 	ldw	r2,-12(fp)
  805278:	10c00185 	stb	r3,6(r2)
  80527c:	00800084 	movi	r2,2
  805280:	0000c906 	br	8055a8 <f_lseek+0x4d4>
  805284:	e0bff817 	ldw	r2,-32(fp)
  805288:	10bfffd8 	cmpnei	r2,r2,-1
  80528c:	1000091e 	bne	r2,zero,8052b4 <f_lseek+0x1e0>
  805290:	e0bffd17 	ldw	r2,-12(fp)
  805294:	10c00183 	ldbu	r3,6(r2)
  805298:	00bfe004 	movi	r2,-128
  80529c:	1884b03a 	or	r2,r3,r2
  8052a0:	1007883a 	mov	r3,r2
  8052a4:	e0bffd17 	ldw	r2,-12(fp)
  8052a8:	10c00185 	stb	r3,6(r2)
  8052ac:	00800044 	movi	r2,1
  8052b0:	0000bd06 	br	8055a8 <f_lseek+0x4d4>
  8052b4:	e0bffd17 	ldw	r2,-12(fp)
  8052b8:	e0fff817 	ldw	r3,-32(fp)
  8052bc:	10c00415 	stw	r3,16(r2)
  8052c0:	e0bffd17 	ldw	r2,-12(fp)
  8052c4:	e0fff817 	ldw	r3,-32(fp)
  8052c8:	10c00515 	stw	r3,20(r2)
  8052cc:	e0bff817 	ldw	r2,-32(fp)
  8052d0:	10006326 	beq	r2,zero,805460 <f_lseek+0x38c>
  8052d4:	00004006 	br	8053d8 <f_lseek+0x304>
  8052d8:	e0bffd17 	ldw	r2,-12(fp)
  8052dc:	10800183 	ldbu	r2,6(r2)
  8052e0:	10803fcc 	andi	r2,r2,255
  8052e4:	1080008c 	andi	r2,r2,2
  8052e8:	10000b26 	beq	r2,zero,805318 <f_lseek+0x244>
  8052ec:	e0bffd17 	ldw	r2,-12(fp)
  8052f0:	10800017 	ldw	r2,0(r2)
  8052f4:	1009883a 	mov	r4,r2
  8052f8:	e17ff817 	ldw	r5,-32(fp)
  8052fc:	08022000 	call	802200 <create_chain>
  805300:	e0bff815 	stw	r2,-32(fp)
  805304:	e0bff817 	ldw	r2,-32(fp)
  805308:	1000091e 	bne	r2,zero,805330 <f_lseek+0x25c>
  80530c:	e0bffc17 	ldw	r2,-16(fp)
  805310:	e0bffe15 	stw	r2,-8(fp)
  805314:	00003306 	br	8053e4 <f_lseek+0x310>
  805318:	e0bffd17 	ldw	r2,-12(fp)
  80531c:	10800017 	ldw	r2,0(r2)
  805320:	1009883a 	mov	r4,r2
  805324:	e17ff817 	ldw	r5,-32(fp)
  805328:	0801af80 	call	801af8 <get_fat>
  80532c:	e0bff815 	stw	r2,-32(fp)
  805330:	e0bff817 	ldw	r2,-32(fp)
  805334:	10bfffd8 	cmpnei	r2,r2,-1
  805338:	1000091e 	bne	r2,zero,805360 <f_lseek+0x28c>
  80533c:	e0bffd17 	ldw	r2,-12(fp)
  805340:	10c00183 	ldbu	r3,6(r2)
  805344:	00bfe004 	movi	r2,-128
  805348:	1884b03a 	or	r2,r3,r2
  80534c:	1007883a 	mov	r3,r2
  805350:	e0bffd17 	ldw	r2,-12(fp)
  805354:	10c00185 	stb	r3,6(r2)
  805358:	00800044 	movi	r2,1
  80535c:	00009206 	br	8055a8 <f_lseek+0x4d4>
  805360:	e0bff817 	ldw	r2,-32(fp)
  805364:	108000b0 	cmpltui	r2,r2,2
  805368:	1000051e 	bne	r2,zero,805380 <f_lseek+0x2ac>
  80536c:	e0bffd17 	ldw	r2,-12(fp)
  805370:	10800017 	ldw	r2,0(r2)
  805374:	10800617 	ldw	r2,24(r2)
  805378:	e0fff817 	ldw	r3,-32(fp)
  80537c:	18800936 	bltu	r3,r2,8053a4 <f_lseek+0x2d0>
  805380:	e0bffd17 	ldw	r2,-12(fp)
  805384:	10c00183 	ldbu	r3,6(r2)
  805388:	00bfe004 	movi	r2,-128
  80538c:	1884b03a 	or	r2,r3,r2
  805390:	1007883a 	mov	r3,r2
  805394:	e0bffd17 	ldw	r2,-12(fp)
  805398:	10c00185 	stb	r3,6(r2)
  80539c:	00800084 	movi	r2,2
  8053a0:	00008106 	br	8055a8 <f_lseek+0x4d4>
  8053a4:	e0bffd17 	ldw	r2,-12(fp)
  8053a8:	e0fff817 	ldw	r3,-32(fp)
  8053ac:	10c00515 	stw	r3,20(r2)
  8053b0:	e0bffd17 	ldw	r2,-12(fp)
  8053b4:	10c00217 	ldw	r3,8(r2)
  8053b8:	e0bffc17 	ldw	r2,-16(fp)
  8053bc:	1887883a 	add	r3,r3,r2
  8053c0:	e0bffd17 	ldw	r2,-12(fp)
  8053c4:	10c00215 	stw	r3,8(r2)
  8053c8:	e0fffe17 	ldw	r3,-8(fp)
  8053cc:	e0bffc17 	ldw	r2,-16(fp)
  8053d0:	1885c83a 	sub	r2,r3,r2
  8053d4:	e0bffe15 	stw	r2,-8(fp)
  8053d8:	e0bffe17 	ldw	r2,-8(fp)
  8053dc:	e0fffc17 	ldw	r3,-16(fp)
  8053e0:	18bfbd36 	bltu	r3,r2,8052d8 <__alt_data_end+0xff8052d8>
  8053e4:	e0bffd17 	ldw	r2,-12(fp)
  8053e8:	10c00217 	ldw	r3,8(r2)
  8053ec:	e0bffe17 	ldw	r2,-8(fp)
  8053f0:	1887883a 	add	r3,r3,r2
  8053f4:	e0bffd17 	ldw	r2,-12(fp)
  8053f8:	10c00215 	stw	r3,8(r2)
  8053fc:	e0bffe17 	ldw	r2,-8(fp)
  805400:	10807fcc 	andi	r2,r2,511
  805404:	10001626 	beq	r2,zero,805460 <f_lseek+0x38c>
  805408:	e0bffd17 	ldw	r2,-12(fp)
  80540c:	10800017 	ldw	r2,0(r2)
  805410:	1009883a 	mov	r4,r2
  805414:	e17ff817 	ldw	r5,-32(fp)
  805418:	0801a8c0 	call	801a8c <clust2sect>
  80541c:	e0bff915 	stw	r2,-28(fp)
  805420:	e0bff917 	ldw	r2,-28(fp)
  805424:	1000091e 	bne	r2,zero,80544c <f_lseek+0x378>
  805428:	e0bffd17 	ldw	r2,-12(fp)
  80542c:	10c00183 	ldbu	r3,6(r2)
  805430:	00bfe004 	movi	r2,-128
  805434:	1884b03a 	or	r2,r3,r2
  805438:	1007883a 	mov	r3,r2
  80543c:	e0bffd17 	ldw	r2,-12(fp)
  805440:	10c00185 	stb	r3,6(r2)
  805444:	00800084 	movi	r2,2
  805448:	00005706 	br	8055a8 <f_lseek+0x4d4>
  80544c:	e0bffe17 	ldw	r2,-8(fp)
  805450:	1004d27a 	srli	r2,r2,9
  805454:	e0fff917 	ldw	r3,-28(fp)
  805458:	1885883a 	add	r2,r3,r2
  80545c:	e0bff915 	stw	r2,-28(fp)
  805460:	e0bffd17 	ldw	r2,-12(fp)
  805464:	10800217 	ldw	r2,8(r2)
  805468:	10807fcc 	andi	r2,r2,511
  80546c:	10003e26 	beq	r2,zero,805568 <f_lseek+0x494>
  805470:	e0bffd17 	ldw	r2,-12(fp)
  805474:	10c00617 	ldw	r3,24(r2)
  805478:	e0bff917 	ldw	r2,-28(fp)
  80547c:	18803a26 	beq	r3,r2,805568 <f_lseek+0x494>
  805480:	e0bffd17 	ldw	r2,-12(fp)
  805484:	10800183 	ldbu	r2,6(r2)
  805488:	10803fcc 	andi	r2,r2,255
  80548c:	1080100c 	andi	r2,r2,64
  805490:	10001d26 	beq	r2,zero,805508 <f_lseek+0x434>
  805494:	e0bffd17 	ldw	r2,-12(fp)
  805498:	10800017 	ldw	r2,0(r2)
  80549c:	10800043 	ldbu	r2,1(r2)
  8054a0:	11003fcc 	andi	r4,r2,255
  8054a4:	e0bffd17 	ldw	r2,-12(fp)
  8054a8:	10c00904 	addi	r3,r2,36
  8054ac:	e0bffd17 	ldw	r2,-12(fp)
  8054b0:	10800617 	ldw	r2,24(r2)
  8054b4:	180b883a 	mov	r5,r3
  8054b8:	100d883a 	mov	r6,r2
  8054bc:	01c00044 	movi	r7,1
  8054c0:	0800f080 	call	800f08 <ffs_DiskIOWrite>
  8054c4:	10000926 	beq	r2,zero,8054ec <f_lseek+0x418>
  8054c8:	e0bffd17 	ldw	r2,-12(fp)
  8054cc:	10c00183 	ldbu	r3,6(r2)
  8054d0:	00bfe004 	movi	r2,-128
  8054d4:	1884b03a 	or	r2,r3,r2
  8054d8:	1007883a 	mov	r3,r2
  8054dc:	e0bffd17 	ldw	r2,-12(fp)
  8054e0:	10c00185 	stb	r3,6(r2)
  8054e4:	00800044 	movi	r2,1
  8054e8:	00002f06 	br	8055a8 <f_lseek+0x4d4>
  8054ec:	e0bffd17 	ldw	r2,-12(fp)
  8054f0:	10c00183 	ldbu	r3,6(r2)
  8054f4:	00bfefc4 	movi	r2,-65
  8054f8:	1884703a 	and	r2,r3,r2
  8054fc:	1007883a 	mov	r3,r2
  805500:	e0bffd17 	ldw	r2,-12(fp)
  805504:	10c00185 	stb	r3,6(r2)
  805508:	e0bffd17 	ldw	r2,-12(fp)
  80550c:	10800017 	ldw	r2,0(r2)
  805510:	10800043 	ldbu	r2,1(r2)
  805514:	10c03fcc 	andi	r3,r2,255
  805518:	e0bffd17 	ldw	r2,-12(fp)
  80551c:	10800904 	addi	r2,r2,36
  805520:	1809883a 	mov	r4,r3
  805524:	100b883a 	mov	r5,r2
  805528:	e1bff917 	ldw	r6,-28(fp)
  80552c:	01c00044 	movi	r7,1
  805530:	0800dec0 	call	800dec <ffs_DiskIORead>
  805534:	10000926 	beq	r2,zero,80555c <f_lseek+0x488>
  805538:	e0bffd17 	ldw	r2,-12(fp)
  80553c:	10c00183 	ldbu	r3,6(r2)
  805540:	00bfe004 	movi	r2,-128
  805544:	1884b03a 	or	r2,r3,r2
  805548:	1007883a 	mov	r3,r2
  80554c:	e0bffd17 	ldw	r2,-12(fp)
  805550:	10c00185 	stb	r3,6(r2)
  805554:	00800044 	movi	r2,1
  805558:	00001306 	br	8055a8 <f_lseek+0x4d4>
  80555c:	e0bffd17 	ldw	r2,-12(fp)
  805560:	e0fff917 	ldw	r3,-28(fp)
  805564:	10c00615 	stw	r3,24(r2)
  805568:	e0bffd17 	ldw	r2,-12(fp)
  80556c:	10800217 	ldw	r2,8(r2)
  805570:	e0fffd17 	ldw	r3,-12(fp)
  805574:	18c00317 	ldw	r3,12(r3)
  805578:	18800a2e 	bgeu	r3,r2,8055a4 <f_lseek+0x4d0>
  80557c:	e0bffd17 	ldw	r2,-12(fp)
  805580:	10c00217 	ldw	r3,8(r2)
  805584:	e0bffd17 	ldw	r2,-12(fp)
  805588:	10c00315 	stw	r3,12(r2)
  80558c:	e0bffd17 	ldw	r2,-12(fp)
  805590:	10800183 	ldbu	r2,6(r2)
  805594:	10800814 	ori	r2,r2,32
  805598:	1007883a 	mov	r3,r2
  80559c:	e0bffd17 	ldw	r2,-12(fp)
  8055a0:	10c00185 	stb	r3,6(r2)
  8055a4:	e0bffa17 	ldw	r2,-24(fp)
  8055a8:	e6ffff04 	addi	sp,fp,-4
  8055ac:	dfc00217 	ldw	ra,8(sp)
  8055b0:	df000117 	ldw	fp,4(sp)
  8055b4:	dc000017 	ldw	r16,0(sp)
  8055b8:	dec00304 	addi	sp,sp,12
  8055bc:	f800283a 	ret

008055c0 <f_opendir>:
  8055c0:	defff804 	addi	sp,sp,-32
  8055c4:	dfc00715 	stw	ra,28(sp)
  8055c8:	df000615 	stw	fp,24(sp)
  8055cc:	df000604 	addi	fp,sp,24
  8055d0:	e13ffe15 	stw	r4,-8(fp)
  8055d4:	e17fff15 	stw	r5,-4(fp)
  8055d8:	e0bffe17 	ldw	r2,-8(fp)
  8055dc:	e0ffff04 	addi	r3,fp,-4
  8055e0:	1809883a 	mov	r4,r3
  8055e4:	100b883a 	mov	r5,r2
  8055e8:	000d883a 	mov	r6,zero
  8055ec:	08034c00 	call	8034c0 <chk_mounted>
  8055f0:	e0bffa15 	stw	r2,-24(fp)
  8055f4:	e0bffa17 	ldw	r2,-24(fp)
  8055f8:	1000471e 	bne	r2,zero,805718 <f_opendir+0x158>
  8055fc:	e0bffe17 	ldw	r2,-8(fp)
  805600:	e0fffb04 	addi	r3,fp,-20
  805604:	10c00615 	stw	r3,24(r2)
  805608:	e0bfff17 	ldw	r2,-4(fp)
  80560c:	e13ffe17 	ldw	r4,-8(fp)
  805610:	100b883a 	mov	r5,r2
  805614:	080317c0 	call	80317c <follow_path>
  805618:	e0bffa15 	stw	r2,-24(fp)
  80561c:	e0bffa17 	ldw	r2,-24(fp)
  805620:	1000381e 	bne	r2,zero,805704 <f_opendir+0x144>
  805624:	e0bffe17 	ldw	r2,-8(fp)
  805628:	10800517 	ldw	r2,20(r2)
  80562c:	10002a26 	beq	r2,zero,8056d8 <f_opendir+0x118>
  805630:	e0bffe17 	ldw	r2,-8(fp)
  805634:	10800517 	ldw	r2,20(r2)
  805638:	108002c4 	addi	r2,r2,11
  80563c:	10800003 	ldbu	r2,0(r2)
  805640:	10803fcc 	andi	r2,r2,255
  805644:	1080040c 	andi	r2,r2,16
  805648:	10002126 	beq	r2,zero,8056d0 <f_opendir+0x110>
  80564c:	e0bffe17 	ldw	r2,-8(fp)
  805650:	10800517 	ldw	r2,20(r2)
  805654:	10800544 	addi	r2,r2,21
  805658:	10800003 	ldbu	r2,0(r2)
  80565c:	10803fcc 	andi	r2,r2,255
  805660:	1004923a 	slli	r2,r2,8
  805664:	1007883a 	mov	r3,r2
  805668:	e0bffe17 	ldw	r2,-8(fp)
  80566c:	10800517 	ldw	r2,20(r2)
  805670:	10800504 	addi	r2,r2,20
  805674:	10800003 	ldbu	r2,0(r2)
  805678:	10803fcc 	andi	r2,r2,255
  80567c:	1884b03a 	or	r2,r3,r2
  805680:	10bfffcc 	andi	r2,r2,65535
  805684:	1006943a 	slli	r3,r2,16
  805688:	e0bffe17 	ldw	r2,-8(fp)
  80568c:	10800517 	ldw	r2,20(r2)
  805690:	108006c4 	addi	r2,r2,27
  805694:	10800003 	ldbu	r2,0(r2)
  805698:	10803fcc 	andi	r2,r2,255
  80569c:	1004923a 	slli	r2,r2,8
  8056a0:	1009883a 	mov	r4,r2
  8056a4:	e0bffe17 	ldw	r2,-8(fp)
  8056a8:	10800517 	ldw	r2,20(r2)
  8056ac:	10800684 	addi	r2,r2,26
  8056b0:	10800003 	ldbu	r2,0(r2)
  8056b4:	10803fcc 	andi	r2,r2,255
  8056b8:	2084b03a 	or	r2,r4,r2
  8056bc:	10bfffcc 	andi	r2,r2,65535
  8056c0:	1886b03a 	or	r3,r3,r2
  8056c4:	e0bffe17 	ldw	r2,-8(fp)
  8056c8:	10c00215 	stw	r3,8(r2)
  8056cc:	00000206 	br	8056d8 <f_opendir+0x118>
  8056d0:	00800144 	movi	r2,5
  8056d4:	e0bffa15 	stw	r2,-24(fp)
  8056d8:	e0bffa17 	ldw	r2,-24(fp)
  8056dc:	1000091e 	bne	r2,zero,805704 <f_opendir+0x144>
  8056e0:	e0bffe17 	ldw	r2,-8(fp)
  8056e4:	10800017 	ldw	r2,0(r2)
  8056e8:	10c0018b 	ldhu	r3,6(r2)
  8056ec:	e0bffe17 	ldw	r2,-8(fp)
  8056f0:	10c0010d 	sth	r3,4(r2)
  8056f4:	e13ffe17 	ldw	r4,-8(fp)
  8056f8:	000b883a 	mov	r5,zero
  8056fc:	08023e40 	call	8023e4 <dir_sdi>
  805700:	e0bffa15 	stw	r2,-24(fp)
  805704:	e0bffa17 	ldw	r2,-24(fp)
  805708:	10800118 	cmpnei	r2,r2,4
  80570c:	1000021e 	bne	r2,zero,805718 <f_opendir+0x158>
  805710:	00800144 	movi	r2,5
  805714:	e0bffa15 	stw	r2,-24(fp)
  805718:	e0bffa17 	ldw	r2,-24(fp)
  80571c:	e037883a 	mov	sp,fp
  805720:	dfc00117 	ldw	ra,4(sp)
  805724:	df000017 	ldw	fp,0(sp)
  805728:	dec00204 	addi	sp,sp,8
  80572c:	f800283a 	ret

00805730 <f_readdir>:
  805730:	defff804 	addi	sp,sp,-32
  805734:	dfc00715 	stw	ra,28(sp)
  805738:	df000615 	stw	fp,24(sp)
  80573c:	df000604 	addi	fp,sp,24
  805740:	e13ffe15 	stw	r4,-8(fp)
  805744:	e17fff15 	stw	r5,-4(fp)
  805748:	e0bffe17 	ldw	r2,-8(fp)
  80574c:	10c00017 	ldw	r3,0(r2)
  805750:	e0bffe17 	ldw	r2,-8(fp)
  805754:	1080010b 	ldhu	r2,4(r2)
  805758:	10bfffcc 	andi	r2,r2,65535
  80575c:	1809883a 	mov	r4,r3
  805760:	100b883a 	mov	r5,r2
  805764:	0803dfc0 	call	803dfc <validate>
  805768:	e0bffa15 	stw	r2,-24(fp)
  80576c:	e0bffa17 	ldw	r2,-24(fp)
  805770:	1000221e 	bne	r2,zero,8057fc <f_readdir+0xcc>
  805774:	e0bfff17 	ldw	r2,-4(fp)
  805778:	1000051e 	bne	r2,zero,805790 <f_readdir+0x60>
  80577c:	e13ffe17 	ldw	r4,-8(fp)
  805780:	000b883a 	mov	r5,zero
  805784:	08023e40 	call	8023e4 <dir_sdi>
  805788:	e0bffa15 	stw	r2,-24(fp)
  80578c:	00001b06 	br	8057fc <f_readdir+0xcc>
  805790:	e0bffe17 	ldw	r2,-8(fp)
  805794:	e0fffb04 	addi	r3,fp,-20
  805798:	10c00615 	stw	r3,24(r2)
  80579c:	e13ffe17 	ldw	r4,-8(fp)
  8057a0:	08029ac0 	call	8029ac <dir_read>
  8057a4:	e0bffa15 	stw	r2,-24(fp)
  8057a8:	e0bffa17 	ldw	r2,-24(fp)
  8057ac:	10800118 	cmpnei	r2,r2,4
  8057b0:	1000031e 	bne	r2,zero,8057c0 <f_readdir+0x90>
  8057b4:	e0bffe17 	ldw	r2,-8(fp)
  8057b8:	10000415 	stw	zero,16(r2)
  8057bc:	e03ffa15 	stw	zero,-24(fp)
  8057c0:	e0bffa17 	ldw	r2,-24(fp)
  8057c4:	10000d1e 	bne	r2,zero,8057fc <f_readdir+0xcc>
  8057c8:	e13ffe17 	ldw	r4,-8(fp)
  8057cc:	e17fff17 	ldw	r5,-4(fp)
  8057d0:	0802f4c0 	call	802f4c <get_fileinfo>
  8057d4:	e13ffe17 	ldw	r4,-8(fp)
  8057d8:	000b883a 	mov	r5,zero
  8057dc:	08025d00 	call	8025d0 <dir_next>
  8057e0:	e0bffa15 	stw	r2,-24(fp)
  8057e4:	e0bffa17 	ldw	r2,-24(fp)
  8057e8:	10800118 	cmpnei	r2,r2,4
  8057ec:	1000031e 	bne	r2,zero,8057fc <f_readdir+0xcc>
  8057f0:	e0bffe17 	ldw	r2,-8(fp)
  8057f4:	10000415 	stw	zero,16(r2)
  8057f8:	e03ffa15 	stw	zero,-24(fp)
  8057fc:	e0bffa17 	ldw	r2,-24(fp)
  805800:	e037883a 	mov	sp,fp
  805804:	dfc00117 	ldw	ra,4(sp)
  805808:	df000017 	ldw	fp,0(sp)
  80580c:	dec00204 	addi	sp,sp,8
  805810:	f800283a 	ret

00805814 <f_stat>:
  805814:	defff104 	addi	sp,sp,-60
  805818:	dfc00e15 	stw	ra,56(sp)
  80581c:	df000d15 	stw	fp,52(sp)
  805820:	df000d04 	addi	fp,sp,52
  805824:	e13ffe15 	stw	r4,-8(fp)
  805828:	e17fff15 	stw	r5,-4(fp)
  80582c:	e0fffe04 	addi	r3,fp,-8
  805830:	e0bff404 	addi	r2,fp,-48
  805834:	1809883a 	mov	r4,r3
  805838:	100b883a 	mov	r5,r2
  80583c:	000d883a 	mov	r6,zero
  805840:	08034c00 	call	8034c0 <chk_mounted>
  805844:	e0bff315 	stw	r2,-52(fp)
  805848:	e0bff317 	ldw	r2,-52(fp)
  80584c:	1000131e 	bne	r2,zero,80589c <f_stat+0x88>
  805850:	e0bffb04 	addi	r2,fp,-20
  805854:	e0bffa15 	stw	r2,-24(fp)
  805858:	e0bffe17 	ldw	r2,-8(fp)
  80585c:	e0fff404 	addi	r3,fp,-48
  805860:	1809883a 	mov	r4,r3
  805864:	100b883a 	mov	r5,r2
  805868:	080317c0 	call	80317c <follow_path>
  80586c:	e0bff315 	stw	r2,-52(fp)
  805870:	e0bff317 	ldw	r2,-52(fp)
  805874:	1000091e 	bne	r2,zero,80589c <f_stat+0x88>
  805878:	e0bff917 	ldw	r2,-28(fp)
  80587c:	10000526 	beq	r2,zero,805894 <f_stat+0x80>
  805880:	e0bff404 	addi	r2,fp,-48
  805884:	1009883a 	mov	r4,r2
  805888:	e17fff17 	ldw	r5,-4(fp)
  80588c:	0802f4c0 	call	802f4c <get_fileinfo>
  805890:	00000206 	br	80589c <f_stat+0x88>
  805894:	00800184 	movi	r2,6
  805898:	e0bff315 	stw	r2,-52(fp)
  80589c:	e0bff317 	ldw	r2,-52(fp)
  8058a0:	e037883a 	mov	sp,fp
  8058a4:	dfc00117 	ldw	ra,4(sp)
  8058a8:	df000017 	ldw	fp,0(sp)
  8058ac:	dec00204 	addi	sp,sp,8
  8058b0:	f800283a 	ret

008058b4 <f_getfree>:
  8058b4:	defff304 	addi	sp,sp,-52
  8058b8:	dfc00c15 	stw	ra,48(sp)
  8058bc:	df000b15 	stw	fp,44(sp)
  8058c0:	df000b04 	addi	fp,sp,44
  8058c4:	e13ffd15 	stw	r4,-12(fp)
  8058c8:	e17ffe15 	stw	r5,-8(fp)
  8058cc:	e1bfff15 	stw	r6,-4(fp)
  8058d0:	e0bffd04 	addi	r2,fp,-12
  8058d4:	1009883a 	mov	r4,r2
  8058d8:	e17fff17 	ldw	r5,-4(fp)
  8058dc:	000d883a 	mov	r6,zero
  8058e0:	08034c00 	call	8034c0 <chk_mounted>
  8058e4:	e0bff515 	stw	r2,-44(fp)
  8058e8:	e0bff517 	ldw	r2,-44(fp)
  8058ec:	1000a61e 	bne	r2,zero,805b88 <f_getfree+0x2d4>
  8058f0:	e0bfff17 	ldw	r2,-4(fp)
  8058f4:	10800017 	ldw	r2,0(r2)
  8058f8:	10800417 	ldw	r2,16(r2)
  8058fc:	e0ffff17 	ldw	r3,-4(fp)
  805900:	18c00017 	ldw	r3,0(r3)
  805904:	18c00617 	ldw	r3,24(r3)
  805908:	18ffff84 	addi	r3,r3,-2
  80590c:	18800636 	bltu	r3,r2,805928 <f_getfree+0x74>
  805910:	e0bfff17 	ldw	r2,-4(fp)
  805914:	10800017 	ldw	r2,0(r2)
  805918:	10c00417 	ldw	r3,16(r2)
  80591c:	e0bffe17 	ldw	r2,-8(fp)
  805920:	10c00015 	stw	r3,0(r2)
  805924:	00009806 	br	805b88 <f_getfree+0x2d4>
  805928:	e0bfff17 	ldw	r2,-4(fp)
  80592c:	10800017 	ldw	r2,0(r2)
  805930:	10800003 	ldbu	r2,0(r2)
  805934:	e0bffb05 	stb	r2,-20(fp)
  805938:	e03ff615 	stw	zero,-40(fp)
  80593c:	e0bffb03 	ldbu	r2,-20(fp)
  805940:	10800058 	cmpnei	r2,r2,1
  805944:	1000231e 	bne	r2,zero,8059d4 <f_getfree+0x120>
  805948:	00800084 	movi	r2,2
  80594c:	e0bff715 	stw	r2,-36(fp)
  805950:	e0bfff17 	ldw	r2,-4(fp)
  805954:	10800017 	ldw	r2,0(r2)
  805958:	1009883a 	mov	r4,r2
  80595c:	e17ff717 	ldw	r5,-36(fp)
  805960:	0801af80 	call	801af8 <get_fat>
  805964:	e0bffc15 	stw	r2,-16(fp)
  805968:	e0bffc17 	ldw	r2,-16(fp)
  80596c:	10bfffd8 	cmpnei	r2,r2,-1
  805970:	1000031e 	bne	r2,zero,805980 <f_getfree+0xcc>
  805974:	00800044 	movi	r2,1
  805978:	e0bff515 	stw	r2,-44(fp)
  80597c:	00001406 	br	8059d0 <f_getfree+0x11c>
  805980:	e0bffc17 	ldw	r2,-16(fp)
  805984:	10800058 	cmpnei	r2,r2,1
  805988:	1000031e 	bne	r2,zero,805998 <f_getfree+0xe4>
  80598c:	00800084 	movi	r2,2
  805990:	e0bff515 	stw	r2,-44(fp)
  805994:	00000e06 	br	8059d0 <f_getfree+0x11c>
  805998:	e0bffc17 	ldw	r2,-16(fp)
  80599c:	1000031e 	bne	r2,zero,8059ac <f_getfree+0xf8>
  8059a0:	e0bff617 	ldw	r2,-40(fp)
  8059a4:	10800044 	addi	r2,r2,1
  8059a8:	e0bff615 	stw	r2,-40(fp)
  8059ac:	e0bff717 	ldw	r2,-36(fp)
  8059b0:	10800044 	addi	r2,r2,1
  8059b4:	e0bff715 	stw	r2,-36(fp)
  8059b8:	e0bfff17 	ldw	r2,-4(fp)
  8059bc:	10800017 	ldw	r2,0(r2)
  8059c0:	10800617 	ldw	r2,24(r2)
  8059c4:	e0fff717 	ldw	r3,-36(fp)
  8059c8:	18bfe136 	bltu	r3,r2,805950 <__alt_data_end+0xff805950>
  8059cc:	00006006 	br	805b50 <f_getfree+0x29c>
  8059d0:	00005f06 	br	805b50 <f_getfree+0x29c>
  8059d4:	e0bfff17 	ldw	r2,-4(fp)
  8059d8:	10800017 	ldw	r2,0(r2)
  8059dc:	10800617 	ldw	r2,24(r2)
  8059e0:	e0bff715 	stw	r2,-36(fp)
  8059e4:	e0bfff17 	ldw	r2,-4(fp)
  8059e8:	10800017 	ldw	r2,0(r2)
  8059ec:	10800817 	ldw	r2,32(r2)
  8059f0:	e0bff815 	stw	r2,-32(fp)
  8059f4:	e03ff915 	stw	zero,-28(fp)
  8059f8:	e03ffa15 	stw	zero,-24(fp)
  8059fc:	e0bff917 	ldw	r2,-28(fp)
  805a00:	1000111e 	bne	r2,zero,805a48 <f_getfree+0x194>
  805a04:	e0bfff17 	ldw	r2,-4(fp)
  805a08:	11000017 	ldw	r4,0(r2)
  805a0c:	e0bff817 	ldw	r2,-32(fp)
  805a10:	10c00044 	addi	r3,r2,1
  805a14:	e0fff815 	stw	r3,-32(fp)
  805a18:	100b883a 	mov	r5,r2
  805a1c:	08017140 	call	801714 <move_window>
  805a20:	e0bff515 	stw	r2,-44(fp)
  805a24:	e0bff517 	ldw	r2,-44(fp)
  805a28:	10000126 	beq	r2,zero,805a30 <f_getfree+0x17c>
  805a2c:	00004806 	br	805b50 <f_getfree+0x29c>
  805a30:	e0bfff17 	ldw	r2,-4(fp)
  805a34:	10800017 	ldw	r2,0(r2)
  805a38:	10800c04 	addi	r2,r2,48
  805a3c:	e0bffa15 	stw	r2,-24(fp)
  805a40:	00808004 	movi	r2,512
  805a44:	e0bff915 	stw	r2,-28(fp)
  805a48:	e0bffb03 	ldbu	r2,-20(fp)
  805a4c:	10800098 	cmpnei	r2,r2,2
  805a50:	1000181e 	bne	r2,zero,805ab4 <f_getfree+0x200>
  805a54:	e0bffa17 	ldw	r2,-24(fp)
  805a58:	10800044 	addi	r2,r2,1
  805a5c:	10800003 	ldbu	r2,0(r2)
  805a60:	10803fcc 	andi	r2,r2,255
  805a64:	1004923a 	slli	r2,r2,8
  805a68:	1007883a 	mov	r3,r2
  805a6c:	e0bffa17 	ldw	r2,-24(fp)
  805a70:	10800003 	ldbu	r2,0(r2)
  805a74:	10803fcc 	andi	r2,r2,255
  805a78:	1884b03a 	or	r2,r3,r2
  805a7c:	10bfffcc 	andi	r2,r2,65535
  805a80:	10a0001c 	xori	r2,r2,32768
  805a84:	10a00004 	addi	r2,r2,-32768
  805a88:	1000031e 	bne	r2,zero,805a98 <f_getfree+0x1e4>
  805a8c:	e0bff617 	ldw	r2,-40(fp)
  805a90:	10800044 	addi	r2,r2,1
  805a94:	e0bff615 	stw	r2,-40(fp)
  805a98:	e0bffa17 	ldw	r2,-24(fp)
  805a9c:	10800084 	addi	r2,r2,2
  805aa0:	e0bffa15 	stw	r2,-24(fp)
  805aa4:	e0bff917 	ldw	r2,-28(fp)
  805aa8:	10bfff84 	addi	r2,r2,-2
  805aac:	e0bff915 	stw	r2,-28(fp)
  805ab0:	00002206 	br	805b3c <f_getfree+0x288>
  805ab4:	e0bffa17 	ldw	r2,-24(fp)
  805ab8:	108000c4 	addi	r2,r2,3
  805abc:	10800003 	ldbu	r2,0(r2)
  805ac0:	10803fcc 	andi	r2,r2,255
  805ac4:	1006963a 	slli	r3,r2,24
  805ac8:	e0bffa17 	ldw	r2,-24(fp)
  805acc:	10800084 	addi	r2,r2,2
  805ad0:	10800003 	ldbu	r2,0(r2)
  805ad4:	10803fcc 	andi	r2,r2,255
  805ad8:	1004943a 	slli	r2,r2,16
  805adc:	1884b03a 	or	r2,r3,r2
  805ae0:	e0fffa17 	ldw	r3,-24(fp)
  805ae4:	18c00044 	addi	r3,r3,1
  805ae8:	18c00003 	ldbu	r3,0(r3)
  805aec:	18c03fcc 	andi	r3,r3,255
  805af0:	1806923a 	slli	r3,r3,8
  805af4:	10c6b03a 	or	r3,r2,r3
  805af8:	e0bffa17 	ldw	r2,-24(fp)
  805afc:	10800003 	ldbu	r2,0(r2)
  805b00:	10803fcc 	andi	r2,r2,255
  805b04:	1886b03a 	or	r3,r3,r2
  805b08:	00840034 	movhi	r2,4096
  805b0c:	10bfffc4 	addi	r2,r2,-1
  805b10:	1884703a 	and	r2,r3,r2
  805b14:	1000031e 	bne	r2,zero,805b24 <f_getfree+0x270>
  805b18:	e0bff617 	ldw	r2,-40(fp)
  805b1c:	10800044 	addi	r2,r2,1
  805b20:	e0bff615 	stw	r2,-40(fp)
  805b24:	e0bffa17 	ldw	r2,-24(fp)
  805b28:	10800104 	addi	r2,r2,4
  805b2c:	e0bffa15 	stw	r2,-24(fp)
  805b30:	e0bff917 	ldw	r2,-28(fp)
  805b34:	10bfff04 	addi	r2,r2,-4
  805b38:	e0bff915 	stw	r2,-28(fp)
  805b3c:	e0bff717 	ldw	r2,-36(fp)
  805b40:	10bfffc4 	addi	r2,r2,-1
  805b44:	e0bff715 	stw	r2,-36(fp)
  805b48:	e0bff717 	ldw	r2,-36(fp)
  805b4c:	103fab1e 	bne	r2,zero,8059fc <__alt_data_end+0xff8059fc>
  805b50:	e0bfff17 	ldw	r2,-4(fp)
  805b54:	10800017 	ldw	r2,0(r2)
  805b58:	e0fff617 	ldw	r3,-40(fp)
  805b5c:	10c00415 	stw	r3,16(r2)
  805b60:	e0bffb03 	ldbu	r2,-20(fp)
  805b64:	108000d8 	cmpnei	r2,r2,3
  805b68:	1000041e 	bne	r2,zero,805b7c <f_getfree+0x2c8>
  805b6c:	e0bfff17 	ldw	r2,-4(fp)
  805b70:	10800017 	ldw	r2,0(r2)
  805b74:	00c00044 	movi	r3,1
  805b78:	10c00145 	stb	r3,5(r2)
  805b7c:	e0bffe17 	ldw	r2,-8(fp)
  805b80:	e0fff617 	ldw	r3,-40(fp)
  805b84:	10c00015 	stw	r3,0(r2)
  805b88:	e0bff517 	ldw	r2,-44(fp)
  805b8c:	e037883a 	mov	sp,fp
  805b90:	dfc00117 	ldw	ra,4(sp)
  805b94:	df000017 	ldw	fp,0(sp)
  805b98:	dec00204 	addi	sp,sp,8
  805b9c:	f800283a 	ret

00805ba0 <f_truncate>:
  805ba0:	defffb04 	addi	sp,sp,-20
  805ba4:	dfc00415 	stw	ra,16(sp)
  805ba8:	df000315 	stw	fp,12(sp)
  805bac:	df000304 	addi	fp,sp,12
  805bb0:	e13fff15 	stw	r4,-4(fp)
  805bb4:	e0bfff17 	ldw	r2,-4(fp)
  805bb8:	10c00017 	ldw	r3,0(r2)
  805bbc:	e0bfff17 	ldw	r2,-4(fp)
  805bc0:	1080010b 	ldhu	r2,4(r2)
  805bc4:	10bfffcc 	andi	r2,r2,65535
  805bc8:	1809883a 	mov	r4,r3
  805bcc:	100b883a 	mov	r5,r2
  805bd0:	0803dfc0 	call	803dfc <validate>
  805bd4:	e0bffd15 	stw	r2,-12(fp)
  805bd8:	e0bffd17 	ldw	r2,-12(fp)
  805bdc:	1000101e 	bne	r2,zero,805c20 <f_truncate+0x80>
  805be0:	e0bfff17 	ldw	r2,-4(fp)
  805be4:	10800183 	ldbu	r2,6(r2)
  805be8:	10803fcc 	andi	r2,r2,255
  805bec:	1080201c 	xori	r2,r2,128
  805bf0:	10bfe004 	addi	r2,r2,-128
  805bf4:	1000030e 	bge	r2,zero,805c04 <f_truncate+0x64>
  805bf8:	00800084 	movi	r2,2
  805bfc:	e0bffd15 	stw	r2,-12(fp)
  805c00:	00000706 	br	805c20 <f_truncate+0x80>
  805c04:	e0bfff17 	ldw	r2,-4(fp)
  805c08:	10800183 	ldbu	r2,6(r2)
  805c0c:	10803fcc 	andi	r2,r2,255
  805c10:	1080008c 	andi	r2,r2,2
  805c14:	1000021e 	bne	r2,zero,805c20 <f_truncate+0x80>
  805c18:	008001c4 	movi	r2,7
  805c1c:	e0bffd15 	stw	r2,-12(fp)
  805c20:	e0bffd17 	ldw	r2,-12(fp)
  805c24:	1000521e 	bne	r2,zero,805d70 <f_truncate+0x1d0>
  805c28:	e0bfff17 	ldw	r2,-4(fp)
  805c2c:	10800317 	ldw	r2,12(r2)
  805c30:	e0ffff17 	ldw	r3,-4(fp)
  805c34:	18c00217 	ldw	r3,8(r3)
  805c38:	1880442e 	bgeu	r3,r2,805d4c <f_truncate+0x1ac>
  805c3c:	e0bfff17 	ldw	r2,-4(fp)
  805c40:	10c00217 	ldw	r3,8(r2)
  805c44:	e0bfff17 	ldw	r2,-4(fp)
  805c48:	10c00315 	stw	r3,12(r2)
  805c4c:	e0bfff17 	ldw	r2,-4(fp)
  805c50:	10800183 	ldbu	r2,6(r2)
  805c54:	10800814 	ori	r2,r2,32
  805c58:	1007883a 	mov	r3,r2
  805c5c:	e0bfff17 	ldw	r2,-4(fp)
  805c60:	10c00185 	stb	r3,6(r2)
  805c64:	e0bfff17 	ldw	r2,-4(fp)
  805c68:	10800217 	ldw	r2,8(r2)
  805c6c:	10000b1e 	bne	r2,zero,805c9c <f_truncate+0xfc>
  805c70:	e0bfff17 	ldw	r2,-4(fp)
  805c74:	10c00017 	ldw	r3,0(r2)
  805c78:	e0bfff17 	ldw	r2,-4(fp)
  805c7c:	10800417 	ldw	r2,16(r2)
  805c80:	1809883a 	mov	r4,r3
  805c84:	100b883a 	mov	r5,r2
  805c88:	08020ec0 	call	8020ec <remove_chain>
  805c8c:	e0bffd15 	stw	r2,-12(fp)
  805c90:	e0bfff17 	ldw	r2,-4(fp)
  805c94:	10000415 	stw	zero,16(r2)
  805c98:	00002c06 	br	805d4c <f_truncate+0x1ac>
  805c9c:	e0bfff17 	ldw	r2,-4(fp)
  805ca0:	10c00017 	ldw	r3,0(r2)
  805ca4:	e0bfff17 	ldw	r2,-4(fp)
  805ca8:	10800517 	ldw	r2,20(r2)
  805cac:	1809883a 	mov	r4,r3
  805cb0:	100b883a 	mov	r5,r2
  805cb4:	0801af80 	call	801af8 <get_fat>
  805cb8:	e0bffe15 	stw	r2,-8(fp)
  805cbc:	e03ffd15 	stw	zero,-12(fp)
  805cc0:	e0bffe17 	ldw	r2,-8(fp)
  805cc4:	10bfffd8 	cmpnei	r2,r2,-1
  805cc8:	1000021e 	bne	r2,zero,805cd4 <f_truncate+0x134>
  805ccc:	00800044 	movi	r2,1
  805cd0:	e0bffd15 	stw	r2,-12(fp)
  805cd4:	e0bffe17 	ldw	r2,-8(fp)
  805cd8:	10800058 	cmpnei	r2,r2,1
  805cdc:	1000021e 	bne	r2,zero,805ce8 <f_truncate+0x148>
  805ce0:	00800084 	movi	r2,2
  805ce4:	e0bffd15 	stw	r2,-12(fp)
  805ce8:	e0bffd17 	ldw	r2,-12(fp)
  805cec:	1000171e 	bne	r2,zero,805d4c <f_truncate+0x1ac>
  805cf0:	e0bfff17 	ldw	r2,-4(fp)
  805cf4:	10800017 	ldw	r2,0(r2)
  805cf8:	10800617 	ldw	r2,24(r2)
  805cfc:	e0fffe17 	ldw	r3,-8(fp)
  805d00:	1880122e 	bgeu	r3,r2,805d4c <f_truncate+0x1ac>
  805d04:	e0bfff17 	ldw	r2,-4(fp)
  805d08:	10c00017 	ldw	r3,0(r2)
  805d0c:	e0bfff17 	ldw	r2,-4(fp)
  805d10:	10800517 	ldw	r2,20(r2)
  805d14:	1809883a 	mov	r4,r3
  805d18:	100b883a 	mov	r5,r2
  805d1c:	01840034 	movhi	r6,4096
  805d20:	31bfffc4 	addi	r6,r6,-1
  805d24:	0801d7c0 	call	801d7c <put_fat>
  805d28:	e0bffd15 	stw	r2,-12(fp)
  805d2c:	e0bffd17 	ldw	r2,-12(fp)
  805d30:	1000061e 	bne	r2,zero,805d4c <f_truncate+0x1ac>
  805d34:	e0bfff17 	ldw	r2,-4(fp)
  805d38:	10800017 	ldw	r2,0(r2)
  805d3c:	1009883a 	mov	r4,r2
  805d40:	e17ffe17 	ldw	r5,-8(fp)
  805d44:	08020ec0 	call	8020ec <remove_chain>
  805d48:	e0bffd15 	stw	r2,-12(fp)
  805d4c:	e0bffd17 	ldw	r2,-12(fp)
  805d50:	10000726 	beq	r2,zero,805d70 <f_truncate+0x1d0>
  805d54:	e0bfff17 	ldw	r2,-4(fp)
  805d58:	10c00183 	ldbu	r3,6(r2)
  805d5c:	00bfe004 	movi	r2,-128
  805d60:	1884b03a 	or	r2,r3,r2
  805d64:	1007883a 	mov	r3,r2
  805d68:	e0bfff17 	ldw	r2,-4(fp)
  805d6c:	10c00185 	stb	r3,6(r2)
  805d70:	e0bffd17 	ldw	r2,-12(fp)
  805d74:	e037883a 	mov	sp,fp
  805d78:	dfc00117 	ldw	ra,4(sp)
  805d7c:	df000017 	ldw	fp,0(sp)
  805d80:	dec00204 	addi	sp,sp,8
  805d84:	f800283a 	ret

00805d88 <f_unlink>:
  805d88:	deffe904 	addi	sp,sp,-92
  805d8c:	dfc01615 	stw	ra,88(sp)
  805d90:	df001515 	stw	fp,84(sp)
  805d94:	df001504 	addi	fp,sp,84
  805d98:	e13fff15 	stw	r4,-4(fp)
  805d9c:	e0ffff04 	addi	r3,fp,-4
  805da0:	e0bfee04 	addi	r2,fp,-72
  805da4:	1809883a 	mov	r4,r3
  805da8:	100b883a 	mov	r5,r2
  805dac:	01800044 	movi	r6,1
  805db0:	08034c00 	call	8034c0 <chk_mounted>
  805db4:	e0bfeb15 	stw	r2,-84(fp)
  805db8:	e0bfeb17 	ldw	r2,-84(fp)
  805dbc:	1000721e 	bne	r2,zero,805f88 <f_unlink+0x200>
  805dc0:	e0bffc04 	addi	r2,fp,-16
  805dc4:	e0bff415 	stw	r2,-48(fp)
  805dc8:	e0bfff17 	ldw	r2,-4(fp)
  805dcc:	e0ffee04 	addi	r3,fp,-72
  805dd0:	1809883a 	mov	r4,r3
  805dd4:	100b883a 	mov	r5,r2
  805dd8:	080317c0 	call	80317c <follow_path>
  805ddc:	e0bfeb15 	stw	r2,-84(fp)
  805de0:	e0bfeb17 	ldw	r2,-84(fp)
  805de4:	1000681e 	bne	r2,zero,805f88 <f_unlink+0x200>
  805de8:	e0bff317 	ldw	r2,-52(fp)
  805dec:	e0bfec15 	stw	r2,-80(fp)
  805df0:	e0bfec17 	ldw	r2,-80(fp)
  805df4:	1000031e 	bne	r2,zero,805e04 <f_unlink+0x7c>
  805df8:	00800184 	movi	r2,6
  805dfc:	e0bfeb15 	stw	r2,-84(fp)
  805e00:	00000806 	br	805e24 <f_unlink+0x9c>
  805e04:	e0bfec17 	ldw	r2,-80(fp)
  805e08:	108002c4 	addi	r2,r2,11
  805e0c:	10800003 	ldbu	r2,0(r2)
  805e10:	10803fcc 	andi	r2,r2,255
  805e14:	1080004c 	andi	r2,r2,1
  805e18:	10000226 	beq	r2,zero,805e24 <f_unlink+0x9c>
  805e1c:	008001c4 	movi	r2,7
  805e20:	e0bfeb15 	stw	r2,-84(fp)
  805e24:	e0bfec17 	ldw	r2,-80(fp)
  805e28:	10800544 	addi	r2,r2,21
  805e2c:	10800003 	ldbu	r2,0(r2)
  805e30:	10803fcc 	andi	r2,r2,255
  805e34:	1004923a 	slli	r2,r2,8
  805e38:	1007883a 	mov	r3,r2
  805e3c:	e0bfec17 	ldw	r2,-80(fp)
  805e40:	10800504 	addi	r2,r2,20
  805e44:	10800003 	ldbu	r2,0(r2)
  805e48:	10803fcc 	andi	r2,r2,255
  805e4c:	1884b03a 	or	r2,r3,r2
  805e50:	10bfffcc 	andi	r2,r2,65535
  805e54:	1006943a 	slli	r3,r2,16
  805e58:	e0bfec17 	ldw	r2,-80(fp)
  805e5c:	108006c4 	addi	r2,r2,27
  805e60:	10800003 	ldbu	r2,0(r2)
  805e64:	10803fcc 	andi	r2,r2,255
  805e68:	1004923a 	slli	r2,r2,8
  805e6c:	1009883a 	mov	r4,r2
  805e70:	e0bfec17 	ldw	r2,-80(fp)
  805e74:	10800684 	addi	r2,r2,26
  805e78:	10800003 	ldbu	r2,0(r2)
  805e7c:	10803fcc 	andi	r2,r2,255
  805e80:	2084b03a 	or	r2,r4,r2
  805e84:	10bfffcc 	andi	r2,r2,65535
  805e88:	1884b03a 	or	r2,r3,r2
  805e8c:	e0bfed15 	stw	r2,-76(fp)
  805e90:	e0bfeb17 	ldw	r2,-84(fp)
  805e94:	1000271e 	bne	r2,zero,805f34 <f_unlink+0x1ac>
  805e98:	e0bfec17 	ldw	r2,-80(fp)
  805e9c:	108002c4 	addi	r2,r2,11
  805ea0:	10800003 	ldbu	r2,0(r2)
  805ea4:	10803fcc 	andi	r2,r2,255
  805ea8:	1080040c 	andi	r2,r2,16
  805eac:	10002126 	beq	r2,zero,805f34 <f_unlink+0x1ac>
  805eb0:	e0bfed17 	ldw	r2,-76(fp)
  805eb4:	108000a8 	cmpgeui	r2,r2,2
  805eb8:	1000031e 	bne	r2,zero,805ec8 <f_unlink+0x140>
  805ebc:	00800084 	movi	r2,2
  805ec0:	e0bfeb15 	stw	r2,-84(fp)
  805ec4:	00001b06 	br	805f34 <f_unlink+0x1ac>
  805ec8:	e0fff504 	addi	r3,fp,-44
  805ecc:	e0bfee04 	addi	r2,fp,-72
  805ed0:	1809883a 	mov	r4,r3
  805ed4:	100b883a 	mov	r5,r2
  805ed8:	01800704 	movi	r6,28
  805edc:	08015480 	call	801548 <mem_cpy>
  805ee0:	e0bfed17 	ldw	r2,-76(fp)
  805ee4:	e0bff715 	stw	r2,-36(fp)
  805ee8:	e0bff504 	addi	r2,fp,-44
  805eec:	1009883a 	mov	r4,r2
  805ef0:	01400084 	movi	r5,2
  805ef4:	08023e40 	call	8023e4 <dir_sdi>
  805ef8:	e0bfeb15 	stw	r2,-84(fp)
  805efc:	e0bfeb17 	ldw	r2,-84(fp)
  805f00:	10000c1e 	bne	r2,zero,805f34 <f_unlink+0x1ac>
  805f04:	e0bff504 	addi	r2,fp,-44
  805f08:	1009883a 	mov	r4,r2
  805f0c:	08029ac0 	call	8029ac <dir_read>
  805f10:	e0bfeb15 	stw	r2,-84(fp)
  805f14:	e0bfeb17 	ldw	r2,-84(fp)
  805f18:	1000021e 	bne	r2,zero,805f24 <f_unlink+0x19c>
  805f1c:	008001c4 	movi	r2,7
  805f20:	e0bfeb15 	stw	r2,-84(fp)
  805f24:	e0bfeb17 	ldw	r2,-84(fp)
  805f28:	10800118 	cmpnei	r2,r2,4
  805f2c:	1000011e 	bne	r2,zero,805f34 <f_unlink+0x1ac>
  805f30:	e03feb15 	stw	zero,-84(fp)
  805f34:	e0bfeb17 	ldw	r2,-84(fp)
  805f38:	1000131e 	bne	r2,zero,805f88 <f_unlink+0x200>
  805f3c:	e0bfee04 	addi	r2,fp,-72
  805f40:	1009883a 	mov	r4,r2
  805f44:	0802bc80 	call	802bc8 <dir_remove>
  805f48:	e0bfeb15 	stw	r2,-84(fp)
  805f4c:	e0bfeb17 	ldw	r2,-84(fp)
  805f50:	10000d1e 	bne	r2,zero,805f88 <f_unlink+0x200>
  805f54:	e0bfed17 	ldw	r2,-76(fp)
  805f58:	10000526 	beq	r2,zero,805f70 <f_unlink+0x1e8>
  805f5c:	e0bfee17 	ldw	r2,-72(fp)
  805f60:	1009883a 	mov	r4,r2
  805f64:	e17fed17 	ldw	r5,-76(fp)
  805f68:	08020ec0 	call	8020ec <remove_chain>
  805f6c:	e0bfeb15 	stw	r2,-84(fp)
  805f70:	e0bfeb17 	ldw	r2,-84(fp)
  805f74:	1000041e 	bne	r2,zero,805f88 <f_unlink+0x200>
  805f78:	e0bfee17 	ldw	r2,-72(fp)
  805f7c:	1009883a 	mov	r4,r2
  805f80:	08018700 	call	801870 <sync>
  805f84:	e0bfeb15 	stw	r2,-84(fp)
  805f88:	e0bfeb17 	ldw	r2,-84(fp)
  805f8c:	e037883a 	mov	sp,fp
  805f90:	dfc00117 	ldw	ra,4(sp)
  805f94:	df000017 	ldw	fp,0(sp)
  805f98:	dec00204 	addi	sp,sp,8
  805f9c:	f800283a 	ret

00805fa0 <f_mkdir>:
  805fa0:	deffec04 	addi	sp,sp,-80
  805fa4:	dfc01315 	stw	ra,76(sp)
  805fa8:	df001215 	stw	fp,72(sp)
  805fac:	df001204 	addi	fp,sp,72
  805fb0:	e13fff15 	stw	r4,-4(fp)
  805fb4:	080151c0 	call	80151c <get_fattime>
  805fb8:	e0bff215 	stw	r2,-56(fp)
  805fbc:	e0ffff04 	addi	r3,fp,-4
  805fc0:	e0bff504 	addi	r2,fp,-44
  805fc4:	1809883a 	mov	r4,r3
  805fc8:	100b883a 	mov	r5,r2
  805fcc:	01800044 	movi	r6,1
  805fd0:	08034c00 	call	8034c0 <chk_mounted>
  805fd4:	e0bfee15 	stw	r2,-72(fp)
  805fd8:	e0bfee17 	ldw	r2,-72(fp)
  805fdc:	1000fa1e 	bne	r2,zero,8063c8 <f_mkdir+0x428>
  805fe0:	e0bffc04 	addi	r2,fp,-16
  805fe4:	e0bffb15 	stw	r2,-20(fp)
  805fe8:	e0bfff17 	ldw	r2,-4(fp)
  805fec:	e0fff504 	addi	r3,fp,-44
  805ff0:	1809883a 	mov	r4,r3
  805ff4:	100b883a 	mov	r5,r2
  805ff8:	080317c0 	call	80317c <follow_path>
  805ffc:	e0bfee15 	stw	r2,-72(fp)
  806000:	e0bfee17 	ldw	r2,-72(fp)
  806004:	1000021e 	bne	r2,zero,806010 <f_mkdir+0x70>
  806008:	00800204 	movi	r2,8
  80600c:	e0bfee15 	stw	r2,-72(fp)
  806010:	e0bfee17 	ldw	r2,-72(fp)
  806014:	10800118 	cmpnei	r2,r2,4
  806018:	1000eb1e 	bne	r2,zero,8063c8 <f_mkdir+0x428>
  80601c:	e0bff517 	ldw	r2,-44(fp)
  806020:	1009883a 	mov	r4,r2
  806024:	000b883a 	mov	r5,zero
  806028:	08022000 	call	802200 <create_chain>
  80602c:	e0bff315 	stw	r2,-52(fp)
  806030:	e03fee15 	stw	zero,-72(fp)
  806034:	e0bff317 	ldw	r2,-52(fp)
  806038:	1000021e 	bne	r2,zero,806044 <f_mkdir+0xa4>
  80603c:	008001c4 	movi	r2,7
  806040:	e0bfee15 	stw	r2,-72(fp)
  806044:	e0bff317 	ldw	r2,-52(fp)
  806048:	10800058 	cmpnei	r2,r2,1
  80604c:	1000021e 	bne	r2,zero,806058 <f_mkdir+0xb8>
  806050:	00800084 	movi	r2,2
  806054:	e0bfee15 	stw	r2,-72(fp)
  806058:	e0bff317 	ldw	r2,-52(fp)
  80605c:	10bfffd8 	cmpnei	r2,r2,-1
  806060:	1000021e 	bne	r2,zero,80606c <f_mkdir+0xcc>
  806064:	00800044 	movi	r2,1
  806068:	e0bfee15 	stw	r2,-72(fp)
  80606c:	e0bfee17 	ldw	r2,-72(fp)
  806070:	1000051e 	bne	r2,zero,806088 <f_mkdir+0xe8>
  806074:	e0bff517 	ldw	r2,-44(fp)
  806078:	1009883a 	mov	r4,r2
  80607c:	000b883a 	mov	r5,zero
  806080:	08017140 	call	801714 <move_window>
  806084:	e0bfee15 	stw	r2,-72(fp)
  806088:	e0bfee17 	ldw	r2,-72(fp)
  80608c:	10008a1e 	bne	r2,zero,8062b8 <f_mkdir+0x318>
  806090:	e0bff517 	ldw	r2,-44(fp)
  806094:	1009883a 	mov	r4,r2
  806098:	e17ff317 	ldw	r5,-52(fp)
  80609c:	0801a8c0 	call	801a8c <clust2sect>
  8060a0:	e0bff015 	stw	r2,-64(fp)
  8060a4:	e0bff517 	ldw	r2,-44(fp)
  8060a8:	10800c04 	addi	r2,r2,48
  8060ac:	e0bff415 	stw	r2,-48(fp)
  8060b0:	e13ff417 	ldw	r4,-48(fp)
  8060b4:	000b883a 	mov	r5,zero
  8060b8:	01808004 	movi	r6,512
  8060bc:	08015b40 	call	8015b4 <mem_set>
  8060c0:	e13ff417 	ldw	r4,-48(fp)
  8060c4:	01400804 	movi	r5,32
  8060c8:	018002c4 	movi	r6,11
  8060cc:	08015b40 	call	8015b4 <mem_set>
  8060d0:	e0bff417 	ldw	r2,-48(fp)
  8060d4:	00c00b84 	movi	r3,46
  8060d8:	10c00005 	stb	r3,0(r2)
  8060dc:	e0bff417 	ldw	r2,-48(fp)
  8060e0:	108002c4 	addi	r2,r2,11
  8060e4:	00c00404 	movi	r3,16
  8060e8:	10c00005 	stb	r3,0(r2)
  8060ec:	e0bff417 	ldw	r2,-48(fp)
  8060f0:	10800584 	addi	r2,r2,22
  8060f4:	e0fff217 	ldw	r3,-56(fp)
  8060f8:	10c00005 	stb	r3,0(r2)
  8060fc:	e0bff417 	ldw	r2,-48(fp)
  806100:	108005c4 	addi	r2,r2,23
  806104:	e0fff217 	ldw	r3,-56(fp)
  806108:	18ffffcc 	andi	r3,r3,65535
  80610c:	1806d23a 	srli	r3,r3,8
  806110:	10c00005 	stb	r3,0(r2)
  806114:	e0bff417 	ldw	r2,-48(fp)
  806118:	10800604 	addi	r2,r2,24
  80611c:	e0fff217 	ldw	r3,-56(fp)
  806120:	1806d43a 	srli	r3,r3,16
  806124:	10c00005 	stb	r3,0(r2)
  806128:	e0bff417 	ldw	r2,-48(fp)
  80612c:	10800644 	addi	r2,r2,25
  806130:	e0fff217 	ldw	r3,-56(fp)
  806134:	1806d63a 	srli	r3,r3,24
  806138:	10c00005 	stb	r3,0(r2)
  80613c:	e0bff417 	ldw	r2,-48(fp)
  806140:	10800684 	addi	r2,r2,26
  806144:	e0fff317 	ldw	r3,-52(fp)
  806148:	10c00005 	stb	r3,0(r2)
  80614c:	e0bff417 	ldw	r2,-48(fp)
  806150:	108006c4 	addi	r2,r2,27
  806154:	e0fff317 	ldw	r3,-52(fp)
  806158:	18ffffcc 	andi	r3,r3,65535
  80615c:	1806d23a 	srli	r3,r3,8
  806160:	10c00005 	stb	r3,0(r2)
  806164:	e0bff417 	ldw	r2,-48(fp)
  806168:	10800504 	addi	r2,r2,20
  80616c:	e0fff317 	ldw	r3,-52(fp)
  806170:	1806d43a 	srli	r3,r3,16
  806174:	10c00005 	stb	r3,0(r2)
  806178:	e0bff417 	ldw	r2,-48(fp)
  80617c:	10800544 	addi	r2,r2,21
  806180:	e0fff317 	ldw	r3,-52(fp)
  806184:	1806d43a 	srli	r3,r3,16
  806188:	18ffffcc 	andi	r3,r3,65535
  80618c:	1806d23a 	srli	r3,r3,8
  806190:	10c00005 	stb	r3,0(r2)
  806194:	e0bff417 	ldw	r2,-48(fp)
  806198:	10800804 	addi	r2,r2,32
  80619c:	1009883a 	mov	r4,r2
  8061a0:	e17ff417 	ldw	r5,-48(fp)
  8061a4:	01800804 	movi	r6,32
  8061a8:	08015480 	call	801548 <mem_cpy>
  8061ac:	e0bff417 	ldw	r2,-48(fp)
  8061b0:	10800844 	addi	r2,r2,33
  8061b4:	00c00b84 	movi	r3,46
  8061b8:	10c00005 	stb	r3,0(r2)
  8061bc:	e0bff717 	ldw	r2,-36(fp)
  8061c0:	e0bff115 	stw	r2,-60(fp)
  8061c4:	e0bff517 	ldw	r2,-44(fp)
  8061c8:	10800003 	ldbu	r2,0(r2)
  8061cc:	10803fcc 	andi	r2,r2,255
  8061d0:	108000d8 	cmpnei	r2,r2,3
  8061d4:	1000051e 	bne	r2,zero,8061ec <f_mkdir+0x24c>
  8061d8:	e0bff517 	ldw	r2,-44(fp)
  8061dc:	10c00917 	ldw	r3,36(r2)
  8061e0:	e0bff117 	ldw	r2,-60(fp)
  8061e4:	1880011e 	bne	r3,r2,8061ec <f_mkdir+0x24c>
  8061e8:	e03ff115 	stw	zero,-60(fp)
  8061ec:	e0bff417 	ldw	r2,-48(fp)
  8061f0:	10800e84 	addi	r2,r2,58
  8061f4:	e0fff117 	ldw	r3,-60(fp)
  8061f8:	10c00005 	stb	r3,0(r2)
  8061fc:	e0bff417 	ldw	r2,-48(fp)
  806200:	10800ec4 	addi	r2,r2,59
  806204:	e0fff117 	ldw	r3,-60(fp)
  806208:	18ffffcc 	andi	r3,r3,65535
  80620c:	1806d23a 	srli	r3,r3,8
  806210:	10c00005 	stb	r3,0(r2)
  806214:	e0bff417 	ldw	r2,-48(fp)
  806218:	10800d04 	addi	r2,r2,52
  80621c:	e0fff117 	ldw	r3,-60(fp)
  806220:	1806d43a 	srli	r3,r3,16
  806224:	10c00005 	stb	r3,0(r2)
  806228:	e0bff417 	ldw	r2,-48(fp)
  80622c:	10800d44 	addi	r2,r2,53
  806230:	e0fff117 	ldw	r3,-60(fp)
  806234:	1806d43a 	srli	r3,r3,16
  806238:	18ffffcc 	andi	r3,r3,65535
  80623c:	1806d23a 	srli	r3,r3,8
  806240:	10c00005 	stb	r3,0(r2)
  806244:	e0bff517 	ldw	r2,-44(fp)
  806248:	10800083 	ldbu	r2,2(r2)
  80624c:	e0bfef05 	stb	r2,-68(fp)
  806250:	00001706 	br	8062b0 <f_mkdir+0x310>
  806254:	e0fff517 	ldw	r3,-44(fp)
  806258:	e0bff017 	ldw	r2,-64(fp)
  80625c:	11000044 	addi	r4,r2,1
  806260:	e13ff015 	stw	r4,-64(fp)
  806264:	18800b15 	stw	r2,44(r3)
  806268:	e0bff517 	ldw	r2,-44(fp)
  80626c:	00c00044 	movi	r3,1
  806270:	10c00105 	stb	r3,4(r2)
  806274:	e0bff517 	ldw	r2,-44(fp)
  806278:	1009883a 	mov	r4,r2
  80627c:	000b883a 	mov	r5,zero
  806280:	08017140 	call	801714 <move_window>
  806284:	e0bfee15 	stw	r2,-72(fp)
  806288:	e0bfee17 	ldw	r2,-72(fp)
  80628c:	10000126 	beq	r2,zero,806294 <f_mkdir+0x2f4>
  806290:	00000906 	br	8062b8 <f_mkdir+0x318>
  806294:	e13ff417 	ldw	r4,-48(fp)
  806298:	000b883a 	mov	r5,zero
  80629c:	01808004 	movi	r6,512
  8062a0:	08015b40 	call	8015b4 <mem_set>
  8062a4:	e0bfef03 	ldbu	r2,-68(fp)
  8062a8:	10bfffc4 	addi	r2,r2,-1
  8062ac:	e0bfef05 	stb	r2,-68(fp)
  8062b0:	e0bfef03 	ldbu	r2,-68(fp)
  8062b4:	103fe71e 	bne	r2,zero,806254 <__alt_data_end+0xff806254>
  8062b8:	e0bfee17 	ldw	r2,-72(fp)
  8062bc:	1000041e 	bne	r2,zero,8062d0 <f_mkdir+0x330>
  8062c0:	e0bff504 	addi	r2,fp,-44
  8062c4:	1009883a 	mov	r4,r2
  8062c8:	0802aa80 	call	802aa8 <dir_register>
  8062cc:	e0bfee15 	stw	r2,-72(fp)
  8062d0:	e0bfee17 	ldw	r2,-72(fp)
  8062d4:	10000526 	beq	r2,zero,8062ec <f_mkdir+0x34c>
  8062d8:	e0bff517 	ldw	r2,-44(fp)
  8062dc:	1009883a 	mov	r4,r2
  8062e0:	e17ff317 	ldw	r5,-52(fp)
  8062e4:	08020ec0 	call	8020ec <remove_chain>
  8062e8:	00003706 	br	8063c8 <f_mkdir+0x428>
  8062ec:	e0bffa17 	ldw	r2,-24(fp)
  8062f0:	e0bff415 	stw	r2,-48(fp)
  8062f4:	e0bff417 	ldw	r2,-48(fp)
  8062f8:	108002c4 	addi	r2,r2,11
  8062fc:	00c00404 	movi	r3,16
  806300:	10c00005 	stb	r3,0(r2)
  806304:	e0bff417 	ldw	r2,-48(fp)
  806308:	10800584 	addi	r2,r2,22
  80630c:	e0fff217 	ldw	r3,-56(fp)
  806310:	10c00005 	stb	r3,0(r2)
  806314:	e0bff417 	ldw	r2,-48(fp)
  806318:	108005c4 	addi	r2,r2,23
  80631c:	e0fff217 	ldw	r3,-56(fp)
  806320:	18ffffcc 	andi	r3,r3,65535
  806324:	1806d23a 	srli	r3,r3,8
  806328:	10c00005 	stb	r3,0(r2)
  80632c:	e0bff417 	ldw	r2,-48(fp)
  806330:	10800604 	addi	r2,r2,24
  806334:	e0fff217 	ldw	r3,-56(fp)
  806338:	1806d43a 	srli	r3,r3,16
  80633c:	10c00005 	stb	r3,0(r2)
  806340:	e0bff417 	ldw	r2,-48(fp)
  806344:	10800644 	addi	r2,r2,25
  806348:	e0fff217 	ldw	r3,-56(fp)
  80634c:	1806d63a 	srli	r3,r3,24
  806350:	10c00005 	stb	r3,0(r2)
  806354:	e0bff417 	ldw	r2,-48(fp)
  806358:	10800684 	addi	r2,r2,26
  80635c:	e0fff317 	ldw	r3,-52(fp)
  806360:	10c00005 	stb	r3,0(r2)
  806364:	e0bff417 	ldw	r2,-48(fp)
  806368:	108006c4 	addi	r2,r2,27
  80636c:	e0fff317 	ldw	r3,-52(fp)
  806370:	18ffffcc 	andi	r3,r3,65535
  806374:	1806d23a 	srli	r3,r3,8
  806378:	10c00005 	stb	r3,0(r2)
  80637c:	e0bff417 	ldw	r2,-48(fp)
  806380:	10800504 	addi	r2,r2,20
  806384:	e0fff317 	ldw	r3,-52(fp)
  806388:	1806d43a 	srli	r3,r3,16
  80638c:	10c00005 	stb	r3,0(r2)
  806390:	e0bff417 	ldw	r2,-48(fp)
  806394:	10800544 	addi	r2,r2,21
  806398:	e0fff317 	ldw	r3,-52(fp)
  80639c:	1806d43a 	srli	r3,r3,16
  8063a0:	18ffffcc 	andi	r3,r3,65535
  8063a4:	1806d23a 	srli	r3,r3,8
  8063a8:	10c00005 	stb	r3,0(r2)
  8063ac:	e0bff517 	ldw	r2,-44(fp)
  8063b0:	00c00044 	movi	r3,1
  8063b4:	10c00105 	stb	r3,4(r2)
  8063b8:	e0bff517 	ldw	r2,-44(fp)
  8063bc:	1009883a 	mov	r4,r2
  8063c0:	08018700 	call	801870 <sync>
  8063c4:	e0bfee15 	stw	r2,-72(fp)
  8063c8:	e0bfee17 	ldw	r2,-72(fp)
  8063cc:	e037883a 	mov	sp,fp
  8063d0:	dfc00117 	ldw	ra,4(sp)
  8063d4:	df000017 	ldw	fp,0(sp)
  8063d8:	dec00204 	addi	sp,sp,8
  8063dc:	f800283a 	ret

008063e0 <f_chmod>:
  8063e0:	deffef04 	addi	sp,sp,-68
  8063e4:	dfc01015 	stw	ra,64(sp)
  8063e8:	df000f15 	stw	fp,60(sp)
  8063ec:	df000f04 	addi	fp,sp,60
  8063f0:	e13ffd15 	stw	r4,-12(fp)
  8063f4:	2807883a 	mov	r3,r5
  8063f8:	3005883a 	mov	r2,r6
  8063fc:	e0fffe05 	stb	r3,-8(fp)
  806400:	e0bfff05 	stb	r2,-4(fp)
  806404:	e0fffd04 	addi	r3,fp,-12
  806408:	e0bff304 	addi	r2,fp,-52
  80640c:	1809883a 	mov	r4,r3
  806410:	100b883a 	mov	r5,r2
  806414:	01800044 	movi	r6,1
  806418:	08034c00 	call	8034c0 <chk_mounted>
  80641c:	e0bff115 	stw	r2,-60(fp)
  806420:	e0bff117 	ldw	r2,-60(fp)
  806424:	1000291e 	bne	r2,zero,8064cc <f_chmod+0xec>
  806428:	e0bffa04 	addi	r2,fp,-24
  80642c:	e0bff915 	stw	r2,-28(fp)
  806430:	e0bffd17 	ldw	r2,-12(fp)
  806434:	e0fff304 	addi	r3,fp,-52
  806438:	1809883a 	mov	r4,r3
  80643c:	100b883a 	mov	r5,r2
  806440:	080317c0 	call	80317c <follow_path>
  806444:	e0bff115 	stw	r2,-60(fp)
  806448:	e0bff117 	ldw	r2,-60(fp)
  80644c:	10001f1e 	bne	r2,zero,8064cc <f_chmod+0xec>
  806450:	e0bff817 	ldw	r2,-32(fp)
  806454:	e0bff215 	stw	r2,-56(fp)
  806458:	e0bff217 	ldw	r2,-56(fp)
  80645c:	1000031e 	bne	r2,zero,80646c <f_chmod+0x8c>
  806460:	00800184 	movi	r2,6
  806464:	e0bff115 	stw	r2,-60(fp)
  806468:	00001806 	br	8064cc <f_chmod+0xec>
  80646c:	e0bfff03 	ldbu	r2,-4(fp)
  806470:	108009cc 	andi	r2,r2,39
  806474:	e0bfff05 	stb	r2,-4(fp)
  806478:	e0bff217 	ldw	r2,-56(fp)
  80647c:	108002c4 	addi	r2,r2,11
  806480:	e13ffe03 	ldbu	r4,-8(fp)
  806484:	e0ffff03 	ldbu	r3,-4(fp)
  806488:	20c6703a 	and	r3,r4,r3
  80648c:	180b883a 	mov	r5,r3
  806490:	e0fff217 	ldw	r3,-56(fp)
  806494:	18c002c4 	addi	r3,r3,11
  806498:	18c00003 	ldbu	r3,0(r3)
  80649c:	e13fff03 	ldbu	r4,-4(fp)
  8064a0:	0108303a 	nor	r4,zero,r4
  8064a4:	1906703a 	and	r3,r3,r4
  8064a8:	28c6b03a 	or	r3,r5,r3
  8064ac:	10c00005 	stb	r3,0(r2)
  8064b0:	e0bff317 	ldw	r2,-52(fp)
  8064b4:	00c00044 	movi	r3,1
  8064b8:	10c00105 	stb	r3,4(r2)
  8064bc:	e0bff317 	ldw	r2,-52(fp)
  8064c0:	1009883a 	mov	r4,r2
  8064c4:	08018700 	call	801870 <sync>
  8064c8:	e0bff115 	stw	r2,-60(fp)
  8064cc:	e0bff117 	ldw	r2,-60(fp)
  8064d0:	e037883a 	mov	sp,fp
  8064d4:	dfc00117 	ldw	ra,4(sp)
  8064d8:	df000017 	ldw	fp,0(sp)
  8064dc:	dec00204 	addi	sp,sp,8
  8064e0:	f800283a 	ret

008064e4 <f_utime>:
  8064e4:	defff004 	addi	sp,sp,-64
  8064e8:	dfc00f15 	stw	ra,60(sp)
  8064ec:	df000e15 	stw	fp,56(sp)
  8064f0:	df000e04 	addi	fp,sp,56
  8064f4:	e13ffe15 	stw	r4,-8(fp)
  8064f8:	e17fff15 	stw	r5,-4(fp)
  8064fc:	e0fffe04 	addi	r3,fp,-8
  806500:	e0bff404 	addi	r2,fp,-48
  806504:	1809883a 	mov	r4,r3
  806508:	100b883a 	mov	r5,r2
  80650c:	01800044 	movi	r6,1
  806510:	08034c00 	call	8034c0 <chk_mounted>
  806514:	e0bff215 	stw	r2,-56(fp)
  806518:	e0bff217 	ldw	r2,-56(fp)
  80651c:	1000301e 	bne	r2,zero,8065e0 <f_utime+0xfc>
  806520:	e0bffb04 	addi	r2,fp,-20
  806524:	e0bffa15 	stw	r2,-24(fp)
  806528:	e0bffe17 	ldw	r2,-8(fp)
  80652c:	e0fff404 	addi	r3,fp,-48
  806530:	1809883a 	mov	r4,r3
  806534:	100b883a 	mov	r5,r2
  806538:	080317c0 	call	80317c <follow_path>
  80653c:	e0bff215 	stw	r2,-56(fp)
  806540:	e0bff217 	ldw	r2,-56(fp)
  806544:	1000261e 	bne	r2,zero,8065e0 <f_utime+0xfc>
  806548:	e0bff917 	ldw	r2,-28(fp)
  80654c:	e0bff315 	stw	r2,-52(fp)
  806550:	e0bff317 	ldw	r2,-52(fp)
  806554:	1000031e 	bne	r2,zero,806564 <f_utime+0x80>
  806558:	00800184 	movi	r2,6
  80655c:	e0bff215 	stw	r2,-56(fp)
  806560:	00001f06 	br	8065e0 <f_utime+0xfc>
  806564:	e0bff317 	ldw	r2,-52(fp)
  806568:	10800584 	addi	r2,r2,22
  80656c:	e0ffff17 	ldw	r3,-4(fp)
  806570:	18c0018b 	ldhu	r3,6(r3)
  806574:	10c00005 	stb	r3,0(r2)
  806578:	e0bff317 	ldw	r2,-52(fp)
  80657c:	108005c4 	addi	r2,r2,23
  806580:	e0ffff17 	ldw	r3,-4(fp)
  806584:	18c0018b 	ldhu	r3,6(r3)
  806588:	18ffffcc 	andi	r3,r3,65535
  80658c:	1806d23a 	srli	r3,r3,8
  806590:	10c00005 	stb	r3,0(r2)
  806594:	e0bff317 	ldw	r2,-52(fp)
  806598:	10800604 	addi	r2,r2,24
  80659c:	e0ffff17 	ldw	r3,-4(fp)
  8065a0:	18c0010b 	ldhu	r3,4(r3)
  8065a4:	10c00005 	stb	r3,0(r2)
  8065a8:	e0bff317 	ldw	r2,-52(fp)
  8065ac:	10800644 	addi	r2,r2,25
  8065b0:	e0ffff17 	ldw	r3,-4(fp)
  8065b4:	18c0010b 	ldhu	r3,4(r3)
  8065b8:	18ffffcc 	andi	r3,r3,65535
  8065bc:	1806d23a 	srli	r3,r3,8
  8065c0:	10c00005 	stb	r3,0(r2)
  8065c4:	e0bff417 	ldw	r2,-48(fp)
  8065c8:	00c00044 	movi	r3,1
  8065cc:	10c00105 	stb	r3,4(r2)
  8065d0:	e0bff417 	ldw	r2,-48(fp)
  8065d4:	1009883a 	mov	r4,r2
  8065d8:	08018700 	call	801870 <sync>
  8065dc:	e0bff215 	stw	r2,-56(fp)
  8065e0:	e0bff217 	ldw	r2,-56(fp)
  8065e4:	e037883a 	mov	sp,fp
  8065e8:	dfc00117 	ldw	ra,4(sp)
  8065ec:	df000017 	ldw	fp,0(sp)
  8065f0:	dec00204 	addi	sp,sp,8
  8065f4:	f800283a 	ret

008065f8 <f_rename>:
  8065f8:	deffe204 	addi	sp,sp,-120
  8065fc:	dfc01d15 	stw	ra,116(sp)
  806600:	df001c15 	stw	fp,112(sp)
  806604:	df001c04 	addi	fp,sp,112
  806608:	e13ffe15 	stw	r4,-8(fp)
  80660c:	e17fff15 	stw	r5,-4(fp)
  806610:	e0fffe04 	addi	r3,fp,-8
  806614:	e0bfe704 	addi	r2,fp,-100
  806618:	1809883a 	mov	r4,r3
  80661c:	100b883a 	mov	r5,r2
  806620:	01800044 	movi	r6,1
  806624:	08034c00 	call	8034c0 <chk_mounted>
  806628:	e0bfe415 	stw	r2,-112(fp)
  80662c:	e0bfe417 	ldw	r2,-112(fp)
  806630:	1000b01e 	bne	r2,zero,8068f4 <f_rename+0x2fc>
  806634:	e0bfe717 	ldw	r2,-100(fp)
  806638:	e0bfee15 	stw	r2,-72(fp)
  80663c:	e0bffa44 	addi	r2,fp,-23
  806640:	e0bfed15 	stw	r2,-76(fp)
  806644:	e0bffe17 	ldw	r2,-8(fp)
  806648:	e0ffe704 	addi	r3,fp,-100
  80664c:	1809883a 	mov	r4,r3
  806650:	100b883a 	mov	r5,r2
  806654:	080317c0 	call	80317c <follow_path>
  806658:	e0bfe415 	stw	r2,-112(fp)
  80665c:	e0bfe417 	ldw	r2,-112(fp)
  806660:	1000a41e 	bne	r2,zero,8068f4 <f_rename+0x2fc>
  806664:	e0bfec17 	ldw	r2,-80(fp)
  806668:	1000031e 	bne	r2,zero,806678 <f_rename+0x80>
  80666c:	00800104 	movi	r2,4
  806670:	e0bfe415 	stw	r2,-112(fp)
  806674:	00009f06 	br	8068f4 <f_rename+0x2fc>
  806678:	e0bfec17 	ldw	r2,-80(fp)
  80667c:	108002c4 	addi	r2,r2,11
  806680:	e0fff504 	addi	r3,fp,-44
  806684:	1809883a 	mov	r4,r3
  806688:	100b883a 	mov	r5,r2
  80668c:	01800544 	movi	r6,21
  806690:	08015480 	call	801548 <mem_cpy>
  806694:	e0ffee04 	addi	r3,fp,-72
  806698:	e0bfe704 	addi	r2,fp,-100
  80669c:	1809883a 	mov	r4,r3
  8066a0:	100b883a 	mov	r5,r2
  8066a4:	01800704 	movi	r6,28
  8066a8:	08015480 	call	801548 <mem_cpy>
  8066ac:	e0bfee04 	addi	r2,fp,-72
  8066b0:	1009883a 	mov	r4,r2
  8066b4:	e17fff17 	ldw	r5,-4(fp)
  8066b8:	080317c0 	call	80317c <follow_path>
  8066bc:	e0bfe415 	stw	r2,-112(fp)
  8066c0:	e0bfe417 	ldw	r2,-112(fp)
  8066c4:	1000021e 	bne	r2,zero,8066d0 <f_rename+0xd8>
  8066c8:	00800204 	movi	r2,8
  8066cc:	e0bfe415 	stw	r2,-112(fp)
  8066d0:	e0bfe417 	ldw	r2,-112(fp)
  8066d4:	10800118 	cmpnei	r2,r2,4
  8066d8:	1000861e 	bne	r2,zero,8068f4 <f_rename+0x2fc>
  8066dc:	e0bfee04 	addi	r2,fp,-72
  8066e0:	1009883a 	mov	r4,r2
  8066e4:	0802aa80 	call	802aa8 <dir_register>
  8066e8:	e0bfe415 	stw	r2,-112(fp)
  8066ec:	e0bfe417 	ldw	r2,-112(fp)
  8066f0:	1000801e 	bne	r2,zero,8068f4 <f_rename+0x2fc>
  8066f4:	e0bff317 	ldw	r2,-52(fp)
  8066f8:	e0bfe515 	stw	r2,-108(fp)
  8066fc:	e0bfe517 	ldw	r2,-108(fp)
  806700:	10c00344 	addi	r3,r2,13
  806704:	e0bff504 	addi	r2,fp,-44
  806708:	10800084 	addi	r2,r2,2
  80670c:	1809883a 	mov	r4,r3
  806710:	100b883a 	mov	r5,r2
  806714:	018004c4 	movi	r6,19
  806718:	08015480 	call	801548 <mem_cpy>
  80671c:	e0bfe517 	ldw	r2,-108(fp)
  806720:	108002c4 	addi	r2,r2,11
  806724:	e0fff503 	ldbu	r3,-44(fp)
  806728:	18c00814 	ori	r3,r3,32
  80672c:	10c00005 	stb	r3,0(r2)
  806730:	e0bfe717 	ldw	r2,-100(fp)
  806734:	00c00044 	movi	r3,1
  806738:	10c00105 	stb	r3,4(r2)
  80673c:	e0ffe917 	ldw	r3,-92(fp)
  806740:	e0bff017 	ldw	r2,-64(fp)
  806744:	18805f26 	beq	r3,r2,8068c4 <f_rename+0x2cc>
  806748:	e0bfe517 	ldw	r2,-108(fp)
  80674c:	108002c4 	addi	r2,r2,11
  806750:	10800003 	ldbu	r2,0(r2)
  806754:	10803fcc 	andi	r2,r2,255
  806758:	1080040c 	andi	r2,r2,16
  80675c:	10005926 	beq	r2,zero,8068c4 <f_rename+0x2cc>
  806760:	e13fee17 	ldw	r4,-72(fp)
  806764:	e0bfe517 	ldw	r2,-108(fp)
  806768:	10800544 	addi	r2,r2,21
  80676c:	10800003 	ldbu	r2,0(r2)
  806770:	10803fcc 	andi	r2,r2,255
  806774:	1004923a 	slli	r2,r2,8
  806778:	1007883a 	mov	r3,r2
  80677c:	e0bfe517 	ldw	r2,-108(fp)
  806780:	10800504 	addi	r2,r2,20
  806784:	10800003 	ldbu	r2,0(r2)
  806788:	10803fcc 	andi	r2,r2,255
  80678c:	1884b03a 	or	r2,r3,r2
  806790:	10bfffcc 	andi	r2,r2,65535
  806794:	1006943a 	slli	r3,r2,16
  806798:	e0bfe517 	ldw	r2,-108(fp)
  80679c:	108006c4 	addi	r2,r2,27
  8067a0:	10800003 	ldbu	r2,0(r2)
  8067a4:	10803fcc 	andi	r2,r2,255
  8067a8:	1004923a 	slli	r2,r2,8
  8067ac:	100b883a 	mov	r5,r2
  8067b0:	e0bfe517 	ldw	r2,-108(fp)
  8067b4:	10800684 	addi	r2,r2,26
  8067b8:	10800003 	ldbu	r2,0(r2)
  8067bc:	10803fcc 	andi	r2,r2,255
  8067c0:	2884b03a 	or	r2,r5,r2
  8067c4:	10bfffcc 	andi	r2,r2,65535
  8067c8:	1884b03a 	or	r2,r3,r2
  8067cc:	100b883a 	mov	r5,r2
  8067d0:	0801a8c0 	call	801a8c <clust2sect>
  8067d4:	e0bfe615 	stw	r2,-104(fp)
  8067d8:	e0bfe617 	ldw	r2,-104(fp)
  8067dc:	1000031e 	bne	r2,zero,8067ec <f_rename+0x1f4>
  8067e0:	00800084 	movi	r2,2
  8067e4:	e0bfe415 	stw	r2,-112(fp)
  8067e8:	00003606 	br	8068c4 <f_rename+0x2cc>
  8067ec:	e0bfee17 	ldw	r2,-72(fp)
  8067f0:	1009883a 	mov	r4,r2
  8067f4:	e17fe617 	ldw	r5,-104(fp)
  8067f8:	08017140 	call	801714 <move_window>
  8067fc:	e0bfe415 	stw	r2,-112(fp)
  806800:	e0bfee17 	ldw	r2,-72(fp)
  806804:	10801404 	addi	r2,r2,80
  806808:	e0bfe515 	stw	r2,-108(fp)
  80680c:	e0bfe417 	ldw	r2,-112(fp)
  806810:	10002c1e 	bne	r2,zero,8068c4 <f_rename+0x2cc>
  806814:	e0bfe517 	ldw	r2,-108(fp)
  806818:	10800044 	addi	r2,r2,1
  80681c:	10800003 	ldbu	r2,0(r2)
  806820:	10803fcc 	andi	r2,r2,255
  806824:	10800b98 	cmpnei	r2,r2,46
  806828:	1000261e 	bne	r2,zero,8068c4 <f_rename+0x2cc>
  80682c:	e0bfee17 	ldw	r2,-72(fp)
  806830:	10800003 	ldbu	r2,0(r2)
  806834:	10803fcc 	andi	r2,r2,255
  806838:	108000d8 	cmpnei	r2,r2,3
  80683c:	1000041e 	bne	r2,zero,806850 <f_rename+0x258>
  806840:	e0fff017 	ldw	r3,-64(fp)
  806844:	e0bfee17 	ldw	r2,-72(fp)
  806848:	10800917 	ldw	r2,36(r2)
  80684c:	18800226 	beq	r3,r2,806858 <f_rename+0x260>
  806850:	e0bff017 	ldw	r2,-64(fp)
  806854:	00000106 	br	80685c <f_rename+0x264>
  806858:	0005883a 	mov	r2,zero
  80685c:	e0bfe615 	stw	r2,-104(fp)
  806860:	e0bfe517 	ldw	r2,-108(fp)
  806864:	10800684 	addi	r2,r2,26
  806868:	e0ffe617 	ldw	r3,-104(fp)
  80686c:	10c00005 	stb	r3,0(r2)
  806870:	e0bfe517 	ldw	r2,-108(fp)
  806874:	108006c4 	addi	r2,r2,27
  806878:	e0ffe617 	ldw	r3,-104(fp)
  80687c:	18ffffcc 	andi	r3,r3,65535
  806880:	1806d23a 	srli	r3,r3,8
  806884:	10c00005 	stb	r3,0(r2)
  806888:	e0bfe517 	ldw	r2,-108(fp)
  80688c:	10800504 	addi	r2,r2,20
  806890:	e0ffe617 	ldw	r3,-104(fp)
  806894:	1806d43a 	srli	r3,r3,16
  806898:	10c00005 	stb	r3,0(r2)
  80689c:	e0bfe517 	ldw	r2,-108(fp)
  8068a0:	10800544 	addi	r2,r2,21
  8068a4:	e0ffe617 	ldw	r3,-104(fp)
  8068a8:	1806d43a 	srli	r3,r3,16
  8068ac:	18ffffcc 	andi	r3,r3,65535
  8068b0:	1806d23a 	srli	r3,r3,8
  8068b4:	10c00005 	stb	r3,0(r2)
  8068b8:	e0bfee17 	ldw	r2,-72(fp)
  8068bc:	00c00044 	movi	r3,1
  8068c0:	10c00105 	stb	r3,4(r2)
  8068c4:	e0bfe417 	ldw	r2,-112(fp)
  8068c8:	10000a1e 	bne	r2,zero,8068f4 <f_rename+0x2fc>
  8068cc:	e0bfe704 	addi	r2,fp,-100
  8068d0:	1009883a 	mov	r4,r2
  8068d4:	0802bc80 	call	802bc8 <dir_remove>
  8068d8:	e0bfe415 	stw	r2,-112(fp)
  8068dc:	e0bfe417 	ldw	r2,-112(fp)
  8068e0:	1000041e 	bne	r2,zero,8068f4 <f_rename+0x2fc>
  8068e4:	e0bfe717 	ldw	r2,-100(fp)
  8068e8:	1009883a 	mov	r4,r2
  8068ec:	08018700 	call	801870 <sync>
  8068f0:	e0bfe415 	stw	r2,-112(fp)
  8068f4:	e0bfe417 	ldw	r2,-112(fp)
  8068f8:	e037883a 	mov	sp,fp
  8068fc:	dfc00117 	ldw	ra,4(sp)
  806900:	df000017 	ldw	fp,0(sp)
  806904:	dec00204 	addi	sp,sp,8
  806908:	f800283a 	ret

0080690c <f_mkfs>:
  80690c:	deffea04 	addi	sp,sp,-88
  806910:	dfc01515 	stw	ra,84(sp)
  806914:	df001415 	stw	fp,80(sp)
  806918:	df001404 	addi	fp,sp,80
  80691c:	2007883a 	mov	r3,r4
  806920:	2805883a 	mov	r2,r5
  806924:	e1bfff15 	stw	r6,-4(fp)
  806928:	e0fffd05 	stb	r3,-12(fp)
  80692c:	e0bffe05 	stb	r2,-8(fp)
  806930:	e0bffd03 	ldbu	r2,-12(fp)
  806934:	10000226 	beq	r2,zero,806940 <f_mkfs+0x34>
  806938:	008002c4 	movi	r2,11
  80693c:	00039d06 	br	8077b4 <f_mkfs+0xea8>
  806940:	e0bffe03 	ldbu	r2,-8(fp)
  806944:	108000b0 	cmpltui	r2,r2,2
  806948:	1000021e 	bne	r2,zero,806954 <f_mkfs+0x48>
  80694c:	008004c4 	movi	r2,19
  806950:	00039806 	br	8077b4 <f_mkfs+0xea8>
  806954:	e0bfff17 	ldw	r2,-4(fp)
  806958:	10ffffc4 	addi	r3,r2,-1
  80695c:	e0bfff17 	ldw	r2,-4(fp)
  806960:	1884703a 	and	r2,r3,r2
  806964:	10000226 	beq	r2,zero,806970 <f_mkfs+0x64>
  806968:	008004c4 	movi	r2,19
  80696c:	00039106 	br	8077b4 <f_mkfs+0xea8>
  806970:	e0bffd03 	ldbu	r2,-12(fp)
  806974:	1085883a 	add	r2,r2,r2
  806978:	1087883a 	add	r3,r2,r2
  80697c:	d0a33904 	addi	r2,gp,-29468
  806980:	1885883a 	add	r2,r3,r2
  806984:	10800017 	ldw	r2,0(r2)
  806988:	e0bff315 	stw	r2,-52(fp)
  80698c:	e0bff317 	ldw	r2,-52(fp)
  806990:	1000021e 	bne	r2,zero,80699c <f_mkfs+0x90>
  806994:	00800304 	movi	r2,12
  806998:	00038606 	br	8077b4 <f_mkfs+0xea8>
  80699c:	e0bff317 	ldw	r2,-52(fp)
  8069a0:	10000005 	stb	zero,0(r2)
  8069a4:	e0bffd03 	ldbu	r2,-12(fp)
  8069a8:	e0bff405 	stb	r2,-48(fp)
  8069ac:	e03ff445 	stb	zero,-47(fp)
  8069b0:	e0bff403 	ldbu	r2,-48(fp)
  8069b4:	1009883a 	mov	r4,r2
  8069b8:	0800b680 	call	800b68 <ffs_DiskIOInitialize>
  8069bc:	e0bff485 	stb	r2,-46(fp)
  8069c0:	e0bff483 	ldbu	r2,-46(fp)
  8069c4:	1080004c 	andi	r2,r2,1
  8069c8:	10000226 	beq	r2,zero,8069d4 <f_mkfs+0xc8>
  8069cc:	008000c4 	movi	r2,3
  8069d0:	00037806 	br	8077b4 <f_mkfs+0xea8>
  8069d4:	e0bff483 	ldbu	r2,-46(fp)
  8069d8:	1080010c 	andi	r2,r2,4
  8069dc:	10000226 	beq	r2,zero,8069e8 <f_mkfs+0xdc>
  8069e0:	00800284 	movi	r2,10
  8069e4:	00037306 	br	8077b4 <f_mkfs+0xea8>
  8069e8:	e0fff403 	ldbu	r3,-48(fp)
  8069ec:	e0bffc04 	addi	r2,fp,-16
  8069f0:	1809883a 	mov	r4,r3
  8069f4:	01400044 	movi	r5,1
  8069f8:	100d883a 	mov	r6,r2
  8069fc:	08010740 	call	801074 <ffs_DiskIOIoctl>
  806a00:	1000031e 	bne	r2,zero,806a10 <f_mkfs+0x104>
  806a04:	e0bffc17 	ldw	r2,-16(fp)
  806a08:	10802028 	cmpgeui	r2,r2,128
  806a0c:	1000021e 	bne	r2,zero,806a18 <f_mkfs+0x10c>
  806a10:	00800044 	movi	r2,1
  806a14:	00036706 	br	8077b4 <f_mkfs+0xea8>
  806a18:	e0bffe03 	ldbu	r2,-8(fp)
  806a1c:	10000226 	beq	r2,zero,806a28 <f_mkfs+0x11c>
  806a20:	0005883a 	mov	r2,zero
  806a24:	00000106 	br	806a2c <f_mkfs+0x120>
  806a28:	00800fc4 	movi	r2,63
  806a2c:	e0bff515 	stw	r2,-44(fp)
  806a30:	e0fffc17 	ldw	r3,-16(fp)
  806a34:	e0bff517 	ldw	r2,-44(fp)
  806a38:	1885c83a 	sub	r2,r3,r2
  806a3c:	e0bffc15 	stw	r2,-16(fp)
  806a40:	e0bfff17 	ldw	r2,-4(fp)
  806a44:	10001b1e 	bne	r2,zero,806ab4 <f_mkfs+0x1a8>
  806a48:	e0bffc17 	ldw	r2,-16(fp)
  806a4c:	1009883a 	mov	r4,r2
  806a50:	0141f404 	movi	r5,2000
  806a54:	080a2500 	call	80a250 <__udivsi3>
  806a58:	e0bff615 	stw	r2,-40(fp)
  806a5c:	e03fee15 	stw	zero,-72(fp)
  806a60:	00000306 	br	806a70 <f_mkfs+0x164>
  806a64:	e0bfee17 	ldw	r2,-72(fp)
  806a68:	10800044 	addi	r2,r2,1
  806a6c:	e0bfee15 	stw	r2,-72(fp)
  806a70:	00802074 	movhi	r2,129
  806a74:	10831004 	addi	r2,r2,3136
  806a78:	e0ffee17 	ldw	r3,-72(fp)
  806a7c:	18c7883a 	add	r3,r3,r3
  806a80:	10c5883a 	add	r2,r2,r3
  806a84:	1080000b 	ldhu	r2,0(r2)
  806a88:	10bfffcc 	andi	r2,r2,65535
  806a8c:	e0fff617 	ldw	r3,-40(fp)
  806a90:	18bff436 	bltu	r3,r2,806a64 <__alt_data_end+0xff806a64>
  806a94:	00802074 	movhi	r2,129
  806a98:	10831584 	addi	r2,r2,3158
  806a9c:	e0ffee17 	ldw	r3,-72(fp)
  806aa0:	18c7883a 	add	r3,r3,r3
  806aa4:	10c5883a 	add	r2,r2,r3
  806aa8:	1080000b 	ldhu	r2,0(r2)
  806aac:	10bfffcc 	andi	r2,r2,65535
  806ab0:	e0bfff15 	stw	r2,-4(fp)
  806ab4:	e0bfff17 	ldw	r2,-4(fp)
  806ab8:	1004d27a 	srli	r2,r2,9
  806abc:	e0bfff15 	stw	r2,-4(fp)
  806ac0:	e0bfff17 	ldw	r2,-4(fp)
  806ac4:	1000021e 	bne	r2,zero,806ad0 <f_mkfs+0x1c4>
  806ac8:	00800044 	movi	r2,1
  806acc:	e0bfff15 	stw	r2,-4(fp)
  806ad0:	e0bfff17 	ldw	r2,-4(fp)
  806ad4:	10802070 	cmpltui	r2,r2,129
  806ad8:	1000021e 	bne	r2,zero,806ae4 <f_mkfs+0x1d8>
  806adc:	00802004 	movi	r2,128
  806ae0:	e0bfff15 	stw	r2,-4(fp)
  806ae4:	e0bffc17 	ldw	r2,-16(fp)
  806ae8:	1009883a 	mov	r4,r2
  806aec:	e17fff17 	ldw	r5,-4(fp)
  806af0:	080a2500 	call	80a250 <__udivsi3>
  806af4:	e0bff715 	stw	r2,-36(fp)
  806af8:	00800044 	movi	r2,1
  806afc:	e0bfec05 	stb	r2,-80(fp)
  806b00:	e0bff717 	ldw	r2,-36(fp)
  806b04:	1083fdb0 	cmpltui	r2,r2,4086
  806b08:	1000021e 	bne	r2,zero,806b14 <f_mkfs+0x208>
  806b0c:	00800084 	movi	r2,2
  806b10:	e0bfec05 	stb	r2,-80(fp)
  806b14:	e0bff717 	ldw	r2,-36(fp)
  806b18:	10bffdb0 	cmpltui	r2,r2,65526
  806b1c:	1000021e 	bne	r2,zero,806b28 <f_mkfs+0x21c>
  806b20:	008000c4 	movi	r2,3
  806b24:	e0bfec05 	stb	r2,-80(fp)
  806b28:	e0bfec03 	ldbu	r2,-80(fp)
  806b2c:	108000d8 	cmpnei	r2,r2,3
  806b30:	10000b1e 	bne	r2,zero,806b60 <f_mkfs+0x254>
  806b34:	e0bff717 	ldw	r2,-36(fp)
  806b38:	10802084 	addi	r2,r2,130
  806b3c:	1085883a 	add	r2,r2,r2
  806b40:	1085883a 	add	r2,r2,r2
  806b44:	10bfffc4 	addi	r2,r2,-1
  806b48:	1004d27a 	srli	r2,r2,9
  806b4c:	e0bff115 	stw	r2,-60(fp)
  806b50:	00800804 	movi	r2,32
  806b54:	e0bff015 	stw	r2,-64(fp)
  806b58:	e03ff215 	stw	zero,-56(fp)
  806b5c:	00001706 	br	806bbc <f_mkfs+0x2b0>
  806b60:	e0bfec03 	ldbu	r2,-80(fp)
  806b64:	10800058 	cmpnei	r2,r2,1
  806b68:	1000081e 	bne	r2,zero,806b8c <f_mkfs+0x280>
  806b6c:	e0fff717 	ldw	r3,-36(fp)
  806b70:	1805883a 	mov	r2,r3
  806b74:	1085883a 	add	r2,r2,r2
  806b78:	10c5883a 	add	r2,r2,r3
  806b7c:	10800044 	addi	r2,r2,1
  806b80:	1004d07a 	srli	r2,r2,1
  806b84:	108000c4 	addi	r2,r2,3
  806b88:	00000306 	br	806b98 <f_mkfs+0x28c>
  806b8c:	e0bff717 	ldw	r2,-36(fp)
  806b90:	10800084 	addi	r2,r2,2
  806b94:	1085883a 	add	r2,r2,r2
  806b98:	e0bff115 	stw	r2,-60(fp)
  806b9c:	e0bff117 	ldw	r2,-60(fp)
  806ba0:	10807fc4 	addi	r2,r2,511
  806ba4:	1004d27a 	srli	r2,r2,9
  806ba8:	e0bff115 	stw	r2,-60(fp)
  806bac:	00800044 	movi	r2,1
  806bb0:	e0bff015 	stw	r2,-64(fp)
  806bb4:	00800804 	movi	r2,32
  806bb8:	e0bff215 	stw	r2,-56(fp)
  806bbc:	e0fff517 	ldw	r3,-44(fp)
  806bc0:	e0bff017 	ldw	r2,-64(fp)
  806bc4:	1885883a 	add	r2,r3,r2
  806bc8:	e0bfef15 	stw	r2,-68(fp)
  806bcc:	e0ffef17 	ldw	r3,-68(fp)
  806bd0:	e0bff117 	ldw	r2,-60(fp)
  806bd4:	1885883a 	add	r2,r3,r2
  806bd8:	e0bff815 	stw	r2,-32(fp)
  806bdc:	e0fff817 	ldw	r3,-32(fp)
  806be0:	e0bff217 	ldw	r2,-56(fp)
  806be4:	1885883a 	add	r2,r3,r2
  806be8:	e0bff915 	stw	r2,-28(fp)
  806bec:	e0fff917 	ldw	r3,-28(fp)
  806bf0:	e0bfff17 	ldw	r2,-4(fp)
  806bf4:	1887883a 	add	r3,r3,r2
  806bf8:	e0bff517 	ldw	r2,-44(fp)
  806bfc:	1885c83a 	sub	r2,r3,r2
  806c00:	e0fffc17 	ldw	r3,-16(fp)
  806c04:	1880022e 	bgeu	r3,r2,806c10 <f_mkfs+0x304>
  806c08:	00800384 	movi	r2,14
  806c0c:	0002e906 	br	8077b4 <f_mkfs+0xea8>
  806c10:	e0fff403 	ldbu	r3,-48(fp)
  806c14:	e0bffb04 	addi	r2,fp,-20
  806c18:	1809883a 	mov	r4,r3
  806c1c:	014000c4 	movi	r5,3
  806c20:	100d883a 	mov	r6,r2
  806c24:	08010740 	call	801074 <ffs_DiskIOIoctl>
  806c28:	1000051e 	bne	r2,zero,806c40 <f_mkfs+0x334>
  806c2c:	e0bffb17 	ldw	r2,-20(fp)
  806c30:	10000326 	beq	r2,zero,806c40 <f_mkfs+0x334>
  806c34:	e0bffb17 	ldw	r2,-20(fp)
  806c38:	10a00070 	cmpltui	r2,r2,32769
  806c3c:	1000021e 	bne	r2,zero,806c48 <f_mkfs+0x33c>
  806c40:	00800044 	movi	r2,1
  806c44:	e0bffb15 	stw	r2,-20(fp)
  806c48:	e0fffb17 	ldw	r3,-20(fp)
  806c4c:	e0bff917 	ldw	r2,-28(fp)
  806c50:	1885883a 	add	r2,r3,r2
  806c54:	10ffffc4 	addi	r3,r2,-1
  806c58:	e0bffb17 	ldw	r2,-20(fp)
  806c5c:	0085c83a 	sub	r2,zero,r2
  806c60:	1884703a 	and	r2,r3,r2
  806c64:	e0bffb15 	stw	r2,-20(fp)
  806c68:	e0fffb17 	ldw	r3,-20(fp)
  806c6c:	e0bff917 	ldw	r2,-28(fp)
  806c70:	1885c83a 	sub	r2,r3,r2
  806c74:	e0bffb15 	stw	r2,-20(fp)
  806c78:	e0bfec03 	ldbu	r2,-80(fp)
  806c7c:	108000d8 	cmpnei	r2,r2,3
  806c80:	1000091e 	bne	r2,zero,806ca8 <f_mkfs+0x39c>
  806c84:	e0bffb17 	ldw	r2,-20(fp)
  806c88:	e0fff017 	ldw	r3,-64(fp)
  806c8c:	1885883a 	add	r2,r3,r2
  806c90:	e0bff015 	stw	r2,-64(fp)
  806c94:	e0bffb17 	ldw	r2,-20(fp)
  806c98:	e0ffef17 	ldw	r3,-68(fp)
  806c9c:	1885883a 	add	r2,r3,r2
  806ca0:	e0bfef15 	stw	r2,-68(fp)
  806ca4:	00000406 	br	806cb8 <f_mkfs+0x3ac>
  806ca8:	e0bffb17 	ldw	r2,-20(fp)
  806cac:	e0fff117 	ldw	r3,-60(fp)
  806cb0:	1885883a 	add	r2,r3,r2
  806cb4:	e0bff115 	stw	r2,-60(fp)
  806cb8:	e0fffc17 	ldw	r3,-16(fp)
  806cbc:	e0bff017 	ldw	r2,-64(fp)
  806cc0:	1887c83a 	sub	r3,r3,r2
  806cc4:	e0bff117 	ldw	r2,-60(fp)
  806cc8:	1887c83a 	sub	r3,r3,r2
  806ccc:	e0bff217 	ldw	r2,-56(fp)
  806cd0:	1885c83a 	sub	r2,r3,r2
  806cd4:	1009883a 	mov	r4,r2
  806cd8:	e17fff17 	ldw	r5,-4(fp)
  806cdc:	080a2500 	call	80a250 <__udivsi3>
  806ce0:	e0bff715 	stw	r2,-36(fp)
  806ce4:	e0bfec03 	ldbu	r2,-80(fp)
  806ce8:	10800098 	cmpnei	r2,r2,2
  806cec:	1000031e 	bne	r2,zero,806cfc <f_mkfs+0x3f0>
  806cf0:	e0bff717 	ldw	r2,-36(fp)
  806cf4:	1083fdb0 	cmpltui	r2,r2,4086
  806cf8:	1000061e 	bne	r2,zero,806d14 <f_mkfs+0x408>
  806cfc:	e0bfec03 	ldbu	r2,-80(fp)
  806d00:	108000d8 	cmpnei	r2,r2,3
  806d04:	1000051e 	bne	r2,zero,806d1c <f_mkfs+0x410>
  806d08:	e0bff717 	ldw	r2,-36(fp)
  806d0c:	10bffda8 	cmpgeui	r2,r2,65526
  806d10:	1000021e 	bne	r2,zero,806d1c <f_mkfs+0x410>
  806d14:	00800384 	movi	r2,14
  806d18:	0002a606 	br	8077b4 <f_mkfs+0xea8>
  806d1c:	e0bfec03 	ldbu	r2,-80(fp)
  806d20:	10c00060 	cmpeqi	r3,r2,1
  806d24:	1800031e 	bne	r3,zero,806d34 <f_mkfs+0x428>
  806d28:	108000a0 	cmpeqi	r2,r2,2
  806d2c:	1000041e 	bne	r2,zero,806d40 <f_mkfs+0x434>
  806d30:	00000b06 	br	806d60 <f_mkfs+0x454>
  806d34:	00800044 	movi	r2,1
  806d38:	e0bfec85 	stb	r2,-78(fp)
  806d3c:	00000a06 	br	806d68 <f_mkfs+0x45c>
  806d40:	e0bffc17 	ldw	r2,-16(fp)
  806d44:	00ffffd4 	movui	r3,65535
  806d48:	18800236 	bltu	r3,r2,806d54 <f_mkfs+0x448>
  806d4c:	00800104 	movi	r2,4
  806d50:	00000106 	br	806d58 <f_mkfs+0x44c>
  806d54:	00800184 	movi	r2,6
  806d58:	e0bfec85 	stb	r2,-78(fp)
  806d5c:	00000206 	br	806d68 <f_mkfs+0x45c>
  806d60:	00800304 	movi	r2,12
  806d64:	e0bfec85 	stb	r2,-78(fp)
  806d68:	e0bffe03 	ldbu	r2,-8(fp)
  806d6c:	10000326 	beq	r2,zero,806d7c <f_mkfs+0x470>
  806d70:	00bffc04 	movi	r2,-16
  806d74:	e0bfec45 	stb	r2,-79(fp)
  806d78:	00006106 	br	806f00 <f_mkfs+0x5f4>
  806d7c:	e0bff317 	ldw	r2,-52(fp)
  806d80:	10800c04 	addi	r2,r2,48
  806d84:	1009883a 	mov	r4,r2
  806d88:	000b883a 	mov	r5,zero
  806d8c:	01808004 	movi	r6,512
  806d90:	08015b40 	call	8015b4 <mem_set>
  806d94:	e0bff317 	ldw	r2,-52(fp)
  806d98:	10807b84 	addi	r2,r2,494
  806d9c:	e0bffa15 	stw	r2,-24(fp)
  806da0:	e0bffa17 	ldw	r2,-24(fp)
  806da4:	10800044 	addi	r2,r2,1
  806da8:	00c00044 	movi	r3,1
  806dac:	10c00005 	stb	r3,0(r2)
  806db0:	e0bffa17 	ldw	r2,-24(fp)
  806db4:	10800084 	addi	r2,r2,2
  806db8:	00c00044 	movi	r3,1
  806dbc:	10c00005 	stb	r3,0(r2)
  806dc0:	e0bffa17 	ldw	r2,-24(fp)
  806dc4:	108000c4 	addi	r2,r2,3
  806dc8:	10000005 	stb	zero,0(r2)
  806dcc:	e0bffa17 	ldw	r2,-24(fp)
  806dd0:	10800104 	addi	r2,r2,4
  806dd4:	e0ffec83 	ldbu	r3,-78(fp)
  806dd8:	10c00005 	stb	r3,0(r2)
  806ddc:	e0bffa17 	ldw	r2,-24(fp)
  806de0:	10800144 	addi	r2,r2,5
  806de4:	00ffff84 	movi	r3,-2
  806de8:	10c00005 	stb	r3,0(r2)
  806dec:	e0fffc17 	ldw	r3,-16(fp)
  806df0:	e0bff517 	ldw	r2,-44(fp)
  806df4:	1885883a 	add	r2,r3,r2
  806df8:	1009883a 	mov	r4,r2
  806dfc:	014fb044 	movi	r5,16065
  806e00:	080a2500 	call	80a250 <__udivsi3>
  806e04:	e0bffb15 	stw	r2,-20(fp)
  806e08:	e0bffa17 	ldw	r2,-24(fp)
  806e0c:	10800184 	addi	r2,r2,6
  806e10:	e0fffb17 	ldw	r3,-20(fp)
  806e14:	1806d0ba 	srli	r3,r3,2
  806e18:	18c00fd4 	ori	r3,r3,63
  806e1c:	10c00005 	stb	r3,0(r2)
  806e20:	e0bffa17 	ldw	r2,-24(fp)
  806e24:	108001c4 	addi	r2,r2,7
  806e28:	e0fffb17 	ldw	r3,-20(fp)
  806e2c:	10c00005 	stb	r3,0(r2)
  806e30:	e0bffa17 	ldw	r2,-24(fp)
  806e34:	10800204 	addi	r2,r2,8
  806e38:	00c00fc4 	movi	r3,63
  806e3c:	10c00005 	stb	r3,0(r2)
  806e40:	e0bffa17 	ldw	r2,-24(fp)
  806e44:	10800244 	addi	r2,r2,9
  806e48:	10000005 	stb	zero,0(r2)
  806e4c:	e0bffa17 	ldw	r2,-24(fp)
  806e50:	10800284 	addi	r2,r2,10
  806e54:	10000005 	stb	zero,0(r2)
  806e58:	e0bffa17 	ldw	r2,-24(fp)
  806e5c:	108002c4 	addi	r2,r2,11
  806e60:	10000005 	stb	zero,0(r2)
  806e64:	e0bffa17 	ldw	r2,-24(fp)
  806e68:	10800304 	addi	r2,r2,12
  806e6c:	e0fffc17 	ldw	r3,-16(fp)
  806e70:	10c00005 	stb	r3,0(r2)
  806e74:	e0bffa17 	ldw	r2,-24(fp)
  806e78:	10800344 	addi	r2,r2,13
  806e7c:	e0fffc17 	ldw	r3,-16(fp)
  806e80:	18ffffcc 	andi	r3,r3,65535
  806e84:	1806d23a 	srli	r3,r3,8
  806e88:	10c00005 	stb	r3,0(r2)
  806e8c:	e0bffa17 	ldw	r2,-24(fp)
  806e90:	10800384 	addi	r2,r2,14
  806e94:	e0fffc17 	ldw	r3,-16(fp)
  806e98:	1806d43a 	srli	r3,r3,16
  806e9c:	10c00005 	stb	r3,0(r2)
  806ea0:	e0bffa17 	ldw	r2,-24(fp)
  806ea4:	108003c4 	addi	r2,r2,15
  806ea8:	e0fffc17 	ldw	r3,-16(fp)
  806eac:	1806d63a 	srli	r3,r3,24
  806eb0:	10c00005 	stb	r3,0(r2)
  806eb4:	e0bff317 	ldw	r2,-52(fp)
  806eb8:	00c01544 	movi	r3,85
  806ebc:	10c08b85 	stb	r3,558(r2)
  806ec0:	e0bff317 	ldw	r2,-52(fp)
  806ec4:	00ffea84 	movi	r3,-86
  806ec8:	10c08bc5 	stb	r3,559(r2)
  806ecc:	e0fff403 	ldbu	r3,-48(fp)
  806ed0:	e0bff317 	ldw	r2,-52(fp)
  806ed4:	10800c04 	addi	r2,r2,48
  806ed8:	1809883a 	mov	r4,r3
  806edc:	100b883a 	mov	r5,r2
  806ee0:	000d883a 	mov	r6,zero
  806ee4:	01c00044 	movi	r7,1
  806ee8:	0800f080 	call	800f08 <ffs_DiskIOWrite>
  806eec:	10000226 	beq	r2,zero,806ef8 <f_mkfs+0x5ec>
  806ef0:	00800044 	movi	r2,1
  806ef4:	00022f06 	br	8077b4 <f_mkfs+0xea8>
  806ef8:	00bffe04 	movi	r2,-8
  806efc:	e0bfec45 	stb	r2,-79(fp)
  806f00:	e0bff317 	ldw	r2,-52(fp)
  806f04:	10800c04 	addi	r2,r2,48
  806f08:	e0bffa15 	stw	r2,-24(fp)
  806f0c:	e13ffa17 	ldw	r4,-24(fp)
  806f10:	000b883a 	mov	r5,zero
  806f14:	01808004 	movi	r6,512
  806f18:	08015b40 	call	8015b4 <mem_set>
  806f1c:	e13ffa17 	ldw	r4,-24(fp)
  806f20:	01402074 	movhi	r5,129
  806f24:	2942e304 	addi	r5,r5,2956
  806f28:	018002c4 	movi	r6,11
  806f2c:	08015480 	call	801548 <mem_cpy>
  806f30:	00808004 	movi	r2,512
  806f34:	e0bfee15 	stw	r2,-72(fp)
  806f38:	e0bffa17 	ldw	r2,-24(fp)
  806f3c:	108002c4 	addi	r2,r2,11
  806f40:	e0ffee17 	ldw	r3,-72(fp)
  806f44:	10c00005 	stb	r3,0(r2)
  806f48:	e0bffa17 	ldw	r2,-24(fp)
  806f4c:	10800304 	addi	r2,r2,12
  806f50:	e0ffee17 	ldw	r3,-72(fp)
  806f54:	18ffffcc 	andi	r3,r3,65535
  806f58:	1806d23a 	srli	r3,r3,8
  806f5c:	10c00005 	stb	r3,0(r2)
  806f60:	e0bffa17 	ldw	r2,-24(fp)
  806f64:	10800344 	addi	r2,r2,13
  806f68:	e0ffff17 	ldw	r3,-4(fp)
  806f6c:	10c00005 	stb	r3,0(r2)
  806f70:	e0bffa17 	ldw	r2,-24(fp)
  806f74:	10800384 	addi	r2,r2,14
  806f78:	e0fff017 	ldw	r3,-64(fp)
  806f7c:	10c00005 	stb	r3,0(r2)
  806f80:	e0bffa17 	ldw	r2,-24(fp)
  806f84:	108003c4 	addi	r2,r2,15
  806f88:	e0fff017 	ldw	r3,-64(fp)
  806f8c:	18ffffcc 	andi	r3,r3,65535
  806f90:	1806d23a 	srli	r3,r3,8
  806f94:	10c00005 	stb	r3,0(r2)
  806f98:	e0bffa17 	ldw	r2,-24(fp)
  806f9c:	10800404 	addi	r2,r2,16
  806fa0:	00c00044 	movi	r3,1
  806fa4:	10c00005 	stb	r3,0(r2)
  806fa8:	e0bfec03 	ldbu	r2,-80(fp)
  806fac:	108000d8 	cmpnei	r2,r2,3
  806fb0:	1000021e 	bne	r2,zero,806fbc <f_mkfs+0x6b0>
  806fb4:	0005883a 	mov	r2,zero
  806fb8:	00000106 	br	806fc0 <f_mkfs+0x6b4>
  806fbc:	00808004 	movi	r2,512
  806fc0:	e0bfee15 	stw	r2,-72(fp)
  806fc4:	e0bffa17 	ldw	r2,-24(fp)
  806fc8:	10800444 	addi	r2,r2,17
  806fcc:	e0ffee17 	ldw	r3,-72(fp)
  806fd0:	10c00005 	stb	r3,0(r2)
  806fd4:	e0bffa17 	ldw	r2,-24(fp)
  806fd8:	10800484 	addi	r2,r2,18
  806fdc:	e0ffee17 	ldw	r3,-72(fp)
  806fe0:	18ffffcc 	andi	r3,r3,65535
  806fe4:	1806d23a 	srli	r3,r3,8
  806fe8:	10c00005 	stb	r3,0(r2)
  806fec:	e0bffc17 	ldw	r2,-16(fp)
  806ff0:	00ffffd4 	movui	r3,65535
  806ff4:	18800b36 	bltu	r3,r2,807024 <f_mkfs+0x718>
  806ff8:	e0bffa17 	ldw	r2,-24(fp)
  806ffc:	108004c4 	addi	r2,r2,19
  807000:	e0fffc17 	ldw	r3,-16(fp)
  807004:	10c00005 	stb	r3,0(r2)
  807008:	e0bffa17 	ldw	r2,-24(fp)
  80700c:	10800504 	addi	r2,r2,20
  807010:	e0fffc17 	ldw	r3,-16(fp)
  807014:	18ffffcc 	andi	r3,r3,65535
  807018:	1806d23a 	srli	r3,r3,8
  80701c:	10c00005 	stb	r3,0(r2)
  807020:	00001406 	br	807074 <f_mkfs+0x768>
  807024:	e0bffa17 	ldw	r2,-24(fp)
  807028:	10800804 	addi	r2,r2,32
  80702c:	e0fffc17 	ldw	r3,-16(fp)
  807030:	10c00005 	stb	r3,0(r2)
  807034:	e0bffa17 	ldw	r2,-24(fp)
  807038:	10800844 	addi	r2,r2,33
  80703c:	e0fffc17 	ldw	r3,-16(fp)
  807040:	18ffffcc 	andi	r3,r3,65535
  807044:	1806d23a 	srli	r3,r3,8
  807048:	10c00005 	stb	r3,0(r2)
  80704c:	e0bffa17 	ldw	r2,-24(fp)
  807050:	10800884 	addi	r2,r2,34
  807054:	e0fffc17 	ldw	r3,-16(fp)
  807058:	1806d43a 	srli	r3,r3,16
  80705c:	10c00005 	stb	r3,0(r2)
  807060:	e0bffa17 	ldw	r2,-24(fp)
  807064:	108008c4 	addi	r2,r2,35
  807068:	e0fffc17 	ldw	r3,-16(fp)
  80706c:	1806d63a 	srli	r3,r3,24
  807070:	10c00005 	stb	r3,0(r2)
  807074:	e0bffa17 	ldw	r2,-24(fp)
  807078:	10800544 	addi	r2,r2,21
  80707c:	e0ffec43 	ldbu	r3,-79(fp)
  807080:	10c00005 	stb	r3,0(r2)
  807084:	e0bffa17 	ldw	r2,-24(fp)
  807088:	10800604 	addi	r2,r2,24
  80708c:	00c00fc4 	movi	r3,63
  807090:	10c00005 	stb	r3,0(r2)
  807094:	e0bffa17 	ldw	r2,-24(fp)
  807098:	10800644 	addi	r2,r2,25
  80709c:	10000005 	stb	zero,0(r2)
  8070a0:	e0bffa17 	ldw	r2,-24(fp)
  8070a4:	10800684 	addi	r2,r2,26
  8070a8:	00ffffc4 	movi	r3,-1
  8070ac:	10c00005 	stb	r3,0(r2)
  8070b0:	e0bffa17 	ldw	r2,-24(fp)
  8070b4:	108006c4 	addi	r2,r2,27
  8070b8:	10000005 	stb	zero,0(r2)
  8070bc:	e0bffa17 	ldw	r2,-24(fp)
  8070c0:	10800704 	addi	r2,r2,28
  8070c4:	e0fff517 	ldw	r3,-44(fp)
  8070c8:	10c00005 	stb	r3,0(r2)
  8070cc:	e0bffa17 	ldw	r2,-24(fp)
  8070d0:	10800744 	addi	r2,r2,29
  8070d4:	e0fff517 	ldw	r3,-44(fp)
  8070d8:	18ffffcc 	andi	r3,r3,65535
  8070dc:	1806d23a 	srli	r3,r3,8
  8070e0:	10c00005 	stb	r3,0(r2)
  8070e4:	e0bffa17 	ldw	r2,-24(fp)
  8070e8:	10800784 	addi	r2,r2,30
  8070ec:	e0fff517 	ldw	r3,-44(fp)
  8070f0:	1806d43a 	srli	r3,r3,16
  8070f4:	10c00005 	stb	r3,0(r2)
  8070f8:	e0bffa17 	ldw	r2,-24(fp)
  8070fc:	108007c4 	addi	r2,r2,31
  807100:	e0fff517 	ldw	r3,-44(fp)
  807104:	1806d63a 	srli	r3,r3,24
  807108:	10c00005 	stb	r3,0(r2)
  80710c:	080151c0 	call	80151c <get_fattime>
  807110:	e0bffb15 	stw	r2,-20(fp)
  807114:	e0bfec03 	ldbu	r2,-80(fp)
  807118:	108000d8 	cmpnei	r2,r2,3
  80711c:	1000531e 	bne	r2,zero,80726c <f_mkfs+0x960>
  807120:	e0bffa17 	ldw	r2,-24(fp)
  807124:	108010c4 	addi	r2,r2,67
  807128:	e0fffb17 	ldw	r3,-20(fp)
  80712c:	10c00005 	stb	r3,0(r2)
  807130:	e0bffa17 	ldw	r2,-24(fp)
  807134:	10801104 	addi	r2,r2,68
  807138:	e0fffb17 	ldw	r3,-20(fp)
  80713c:	18ffffcc 	andi	r3,r3,65535
  807140:	1806d23a 	srli	r3,r3,8
  807144:	10c00005 	stb	r3,0(r2)
  807148:	e0bffa17 	ldw	r2,-24(fp)
  80714c:	10801144 	addi	r2,r2,69
  807150:	e0fffb17 	ldw	r3,-20(fp)
  807154:	1806d43a 	srli	r3,r3,16
  807158:	10c00005 	stb	r3,0(r2)
  80715c:	e0bffa17 	ldw	r2,-24(fp)
  807160:	10801184 	addi	r2,r2,70
  807164:	e0fffb17 	ldw	r3,-20(fp)
  807168:	1806d63a 	srli	r3,r3,24
  80716c:	10c00005 	stb	r3,0(r2)
  807170:	e0bffa17 	ldw	r2,-24(fp)
  807174:	10800904 	addi	r2,r2,36
  807178:	e0fff117 	ldw	r3,-60(fp)
  80717c:	10c00005 	stb	r3,0(r2)
  807180:	e0bffa17 	ldw	r2,-24(fp)
  807184:	10800944 	addi	r2,r2,37
  807188:	e0fff117 	ldw	r3,-60(fp)
  80718c:	18ffffcc 	andi	r3,r3,65535
  807190:	1806d23a 	srli	r3,r3,8
  807194:	10c00005 	stb	r3,0(r2)
  807198:	e0bffa17 	ldw	r2,-24(fp)
  80719c:	10800984 	addi	r2,r2,38
  8071a0:	e0fff117 	ldw	r3,-60(fp)
  8071a4:	1806d43a 	srli	r3,r3,16
  8071a8:	10c00005 	stb	r3,0(r2)
  8071ac:	e0bffa17 	ldw	r2,-24(fp)
  8071b0:	108009c4 	addi	r2,r2,39
  8071b4:	e0fff117 	ldw	r3,-60(fp)
  8071b8:	1806d63a 	srli	r3,r3,24
  8071bc:	10c00005 	stb	r3,0(r2)
  8071c0:	e0bffa17 	ldw	r2,-24(fp)
  8071c4:	10800b04 	addi	r2,r2,44
  8071c8:	00c00084 	movi	r3,2
  8071cc:	10c00005 	stb	r3,0(r2)
  8071d0:	e0bffa17 	ldw	r2,-24(fp)
  8071d4:	10800b44 	addi	r2,r2,45
  8071d8:	10000005 	stb	zero,0(r2)
  8071dc:	e0bffa17 	ldw	r2,-24(fp)
  8071e0:	10800b84 	addi	r2,r2,46
  8071e4:	10000005 	stb	zero,0(r2)
  8071e8:	e0bffa17 	ldw	r2,-24(fp)
  8071ec:	10800bc4 	addi	r2,r2,47
  8071f0:	10000005 	stb	zero,0(r2)
  8071f4:	e0bffa17 	ldw	r2,-24(fp)
  8071f8:	10800c04 	addi	r2,r2,48
  8071fc:	00c00044 	movi	r3,1
  807200:	10c00005 	stb	r3,0(r2)
  807204:	e0bffa17 	ldw	r2,-24(fp)
  807208:	10800c44 	addi	r2,r2,49
  80720c:	10000005 	stb	zero,0(r2)
  807210:	e0bffa17 	ldw	r2,-24(fp)
  807214:	10800c84 	addi	r2,r2,50
  807218:	00c00184 	movi	r3,6
  80721c:	10c00005 	stb	r3,0(r2)
  807220:	e0bffa17 	ldw	r2,-24(fp)
  807224:	10800cc4 	addi	r2,r2,51
  807228:	10000005 	stb	zero,0(r2)
  80722c:	e0bffa17 	ldw	r2,-24(fp)
  807230:	10801004 	addi	r2,r2,64
  807234:	00ffe004 	movi	r3,-128
  807238:	10c00005 	stb	r3,0(r2)
  80723c:	e0bffa17 	ldw	r2,-24(fp)
  807240:	10801084 	addi	r2,r2,66
  807244:	00c00a44 	movi	r3,41
  807248:	10c00005 	stb	r3,0(r2)
  80724c:	e0bffa17 	ldw	r2,-24(fp)
  807250:	108011c4 	addi	r2,r2,71
  807254:	1009883a 	mov	r4,r2
  807258:	01402074 	movhi	r5,129
  80725c:	2942e604 	addi	r5,r5,2968
  807260:	018004c4 	movi	r6,19
  807264:	08015480 	call	801548 <mem_cpy>
  807268:	00002d06 	br	807320 <f_mkfs+0xa14>
  80726c:	e0bffa17 	ldw	r2,-24(fp)
  807270:	108009c4 	addi	r2,r2,39
  807274:	e0fffb17 	ldw	r3,-20(fp)
  807278:	10c00005 	stb	r3,0(r2)
  80727c:	e0bffa17 	ldw	r2,-24(fp)
  807280:	10800a04 	addi	r2,r2,40
  807284:	e0fffb17 	ldw	r3,-20(fp)
  807288:	18ffffcc 	andi	r3,r3,65535
  80728c:	1806d23a 	srli	r3,r3,8
  807290:	10c00005 	stb	r3,0(r2)
  807294:	e0bffa17 	ldw	r2,-24(fp)
  807298:	10800a44 	addi	r2,r2,41
  80729c:	e0fffb17 	ldw	r3,-20(fp)
  8072a0:	1806d43a 	srli	r3,r3,16
  8072a4:	10c00005 	stb	r3,0(r2)
  8072a8:	e0bffa17 	ldw	r2,-24(fp)
  8072ac:	10800a84 	addi	r2,r2,42
  8072b0:	e0fffb17 	ldw	r3,-20(fp)
  8072b4:	1806d63a 	srli	r3,r3,24
  8072b8:	10c00005 	stb	r3,0(r2)
  8072bc:	e0bffa17 	ldw	r2,-24(fp)
  8072c0:	10800584 	addi	r2,r2,22
  8072c4:	e0fff117 	ldw	r3,-60(fp)
  8072c8:	10c00005 	stb	r3,0(r2)
  8072cc:	e0bffa17 	ldw	r2,-24(fp)
  8072d0:	108005c4 	addi	r2,r2,23
  8072d4:	e0fff117 	ldw	r3,-60(fp)
  8072d8:	18ffffcc 	andi	r3,r3,65535
  8072dc:	1806d23a 	srli	r3,r3,8
  8072e0:	10c00005 	stb	r3,0(r2)
  8072e4:	e0bffa17 	ldw	r2,-24(fp)
  8072e8:	10800904 	addi	r2,r2,36
  8072ec:	00ffe004 	movi	r3,-128
  8072f0:	10c00005 	stb	r3,0(r2)
  8072f4:	e0bffa17 	ldw	r2,-24(fp)
  8072f8:	10800984 	addi	r2,r2,38
  8072fc:	00c00a44 	movi	r3,41
  807300:	10c00005 	stb	r3,0(r2)
  807304:	e0bffa17 	ldw	r2,-24(fp)
  807308:	10800ac4 	addi	r2,r2,43
  80730c:	1009883a 	mov	r4,r2
  807310:	01402074 	movhi	r5,129
  807314:	2942eb04 	addi	r5,r5,2988
  807318:	018004c4 	movi	r6,19
  80731c:	08015480 	call	801548 <mem_cpy>
  807320:	e0bffa17 	ldw	r2,-24(fp)
  807324:	10807f84 	addi	r2,r2,510
  807328:	00c01544 	movi	r3,85
  80732c:	10c00005 	stb	r3,0(r2)
  807330:	e0bffa17 	ldw	r2,-24(fp)
  807334:	10807fc4 	addi	r2,r2,511
  807338:	00ffea84 	movi	r3,-86
  80733c:	10c00005 	stb	r3,0(r2)
  807340:	e0bff403 	ldbu	r2,-48(fp)
  807344:	1009883a 	mov	r4,r2
  807348:	e17ffa17 	ldw	r5,-24(fp)
  80734c:	e1bff517 	ldw	r6,-44(fp)
  807350:	01c00044 	movi	r7,1
  807354:	0800f080 	call	800f08 <ffs_DiskIOWrite>
  807358:	10000226 	beq	r2,zero,807364 <f_mkfs+0xa58>
  80735c:	00800044 	movi	r2,1
  807360:	00011406 	br	8077b4 <f_mkfs+0xea8>
  807364:	e0bfec03 	ldbu	r2,-80(fp)
  807368:	108000d8 	cmpnei	r2,r2,3
  80736c:	1000081e 	bne	r2,zero,807390 <f_mkfs+0xa84>
  807370:	e0fff403 	ldbu	r3,-48(fp)
  807374:	e0bff517 	ldw	r2,-44(fp)
  807378:	10800184 	addi	r2,r2,6
  80737c:	1809883a 	mov	r4,r3
  807380:	e17ffa17 	ldw	r5,-24(fp)
  807384:	100d883a 	mov	r6,r2
  807388:	01c00044 	movi	r7,1
  80738c:	0800f080 	call	800f08 <ffs_DiskIOWrite>
  807390:	e0bfef17 	ldw	r2,-68(fp)
  807394:	e0bfed15 	stw	r2,-76(fp)
  807398:	e03fee15 	stw	zero,-72(fp)
  80739c:	00008606 	br	8075b8 <f_mkfs+0xcac>
  8073a0:	e13ffa17 	ldw	r4,-24(fp)
  8073a4:	000b883a 	mov	r5,zero
  8073a8:	01808004 	movi	r6,512
  8073ac:	08015b40 	call	8015b4 <mem_set>
  8073b0:	e0bfec43 	ldbu	r2,-79(fp)
  8073b4:	e0bffb15 	stw	r2,-20(fp)
  8073b8:	e0bfec03 	ldbu	r2,-80(fp)
  8073bc:	108000e0 	cmpeqi	r2,r2,3
  8073c0:	10001f1e 	bne	r2,zero,807440 <f_mkfs+0xb34>
  8073c4:	e0bfec03 	ldbu	r2,-80(fp)
  8073c8:	10800058 	cmpnei	r2,r2,1
  8073cc:	1000031e 	bne	r2,zero,8073dc <f_mkfs+0xad0>
  8073d0:	00804034 	movhi	r2,256
  8073d4:	10bfc004 	addi	r2,r2,-256
  8073d8:	00000106 	br	8073e0 <f_mkfs+0xad4>
  8073dc:	00bfc004 	movi	r2,-256
  8073e0:	e0fffb17 	ldw	r3,-20(fp)
  8073e4:	10c4b03a 	or	r2,r2,r3
  8073e8:	e0bffb15 	stw	r2,-20(fp)
  8073ec:	e0bffb17 	ldw	r2,-20(fp)
  8073f0:	1007883a 	mov	r3,r2
  8073f4:	e0bffa17 	ldw	r2,-24(fp)
  8073f8:	10c00005 	stb	r3,0(r2)
  8073fc:	e0bffa17 	ldw	r2,-24(fp)
  807400:	10800044 	addi	r2,r2,1
  807404:	e0fffb17 	ldw	r3,-20(fp)
  807408:	18ffffcc 	andi	r3,r3,65535
  80740c:	1806d23a 	srli	r3,r3,8
  807410:	10c00005 	stb	r3,0(r2)
  807414:	e0bffa17 	ldw	r2,-24(fp)
  807418:	10800084 	addi	r2,r2,2
  80741c:	e0fffb17 	ldw	r3,-20(fp)
  807420:	1806d43a 	srli	r3,r3,16
  807424:	10c00005 	stb	r3,0(r2)
  807428:	e0bffa17 	ldw	r2,-24(fp)
  80742c:	108000c4 	addi	r2,r2,3
  807430:	e0fffb17 	ldw	r3,-20(fp)
  807434:	1806d63a 	srli	r3,r3,24
  807438:	10c00005 	stb	r3,0(r2)
  80743c:	00003806 	br	807520 <f_mkfs+0xc14>
  807440:	e0fffb17 	ldw	r3,-20(fp)
  807444:	00bfc004 	movi	r2,-256
  807448:	1884b03a 	or	r2,r3,r2
  80744c:	e0bffb15 	stw	r2,-20(fp)
  807450:	e0bffb17 	ldw	r2,-20(fp)
  807454:	1007883a 	mov	r3,r2
  807458:	e0bffa17 	ldw	r2,-24(fp)
  80745c:	10c00005 	stb	r3,0(r2)
  807460:	e0bffa17 	ldw	r2,-24(fp)
  807464:	10800044 	addi	r2,r2,1
  807468:	e0fffb17 	ldw	r3,-20(fp)
  80746c:	18ffffcc 	andi	r3,r3,65535
  807470:	1806d23a 	srli	r3,r3,8
  807474:	10c00005 	stb	r3,0(r2)
  807478:	e0bffa17 	ldw	r2,-24(fp)
  80747c:	10800084 	addi	r2,r2,2
  807480:	e0fffb17 	ldw	r3,-20(fp)
  807484:	1806d43a 	srli	r3,r3,16
  807488:	10c00005 	stb	r3,0(r2)
  80748c:	e0bffa17 	ldw	r2,-24(fp)
  807490:	108000c4 	addi	r2,r2,3
  807494:	e0fffb17 	ldw	r3,-20(fp)
  807498:	1806d63a 	srli	r3,r3,24
  80749c:	10c00005 	stb	r3,0(r2)
  8074a0:	e0bffa17 	ldw	r2,-24(fp)
  8074a4:	10800104 	addi	r2,r2,4
  8074a8:	00ffffc4 	movi	r3,-1
  8074ac:	10c00005 	stb	r3,0(r2)
  8074b0:	e0bffa17 	ldw	r2,-24(fp)
  8074b4:	10800144 	addi	r2,r2,5
  8074b8:	00ffffc4 	movi	r3,-1
  8074bc:	10c00005 	stb	r3,0(r2)
  8074c0:	e0bffa17 	ldw	r2,-24(fp)
  8074c4:	10800184 	addi	r2,r2,6
  8074c8:	00ffffc4 	movi	r3,-1
  8074cc:	10c00005 	stb	r3,0(r2)
  8074d0:	e0bffa17 	ldw	r2,-24(fp)
  8074d4:	108001c4 	addi	r2,r2,7
  8074d8:	00ffffc4 	movi	r3,-1
  8074dc:	10c00005 	stb	r3,0(r2)
  8074e0:	e0bffa17 	ldw	r2,-24(fp)
  8074e4:	10800204 	addi	r2,r2,8
  8074e8:	00ffffc4 	movi	r3,-1
  8074ec:	10c00005 	stb	r3,0(r2)
  8074f0:	e0bffa17 	ldw	r2,-24(fp)
  8074f4:	10800244 	addi	r2,r2,9
  8074f8:	00ffffc4 	movi	r3,-1
  8074fc:	10c00005 	stb	r3,0(r2)
  807500:	e0bffa17 	ldw	r2,-24(fp)
  807504:	10800284 	addi	r2,r2,10
  807508:	00ffffc4 	movi	r3,-1
  80750c:	10c00005 	stb	r3,0(r2)
  807510:	e0bffa17 	ldw	r2,-24(fp)
  807514:	108002c4 	addi	r2,r2,11
  807518:	00c003c4 	movi	r3,15
  80751c:	10c00005 	stb	r3,0(r2)
  807520:	e13ff403 	ldbu	r4,-48(fp)
  807524:	e0bfed17 	ldw	r2,-76(fp)
  807528:	10c00044 	addi	r3,r2,1
  80752c:	e0ffed15 	stw	r3,-76(fp)
  807530:	e17ffa17 	ldw	r5,-24(fp)
  807534:	100d883a 	mov	r6,r2
  807538:	01c00044 	movi	r7,1
  80753c:	0800f080 	call	800f08 <ffs_DiskIOWrite>
  807540:	10000226 	beq	r2,zero,80754c <f_mkfs+0xc40>
  807544:	00800044 	movi	r2,1
  807548:	00009a06 	br	8077b4 <f_mkfs+0xea8>
  80754c:	e13ffa17 	ldw	r4,-24(fp)
  807550:	000b883a 	mov	r5,zero
  807554:	01808004 	movi	r6,512
  807558:	08015b40 	call	8015b4 <mem_set>
  80755c:	00800044 	movi	r2,1
  807560:	e0bffb15 	stw	r2,-20(fp)
  807564:	00000e06 	br	8075a0 <f_mkfs+0xc94>
  807568:	e13ff403 	ldbu	r4,-48(fp)
  80756c:	e0bfed17 	ldw	r2,-76(fp)
  807570:	10c00044 	addi	r3,r2,1
  807574:	e0ffed15 	stw	r3,-76(fp)
  807578:	e17ffa17 	ldw	r5,-24(fp)
  80757c:	100d883a 	mov	r6,r2
  807580:	01c00044 	movi	r7,1
  807584:	0800f080 	call	800f08 <ffs_DiskIOWrite>
  807588:	10000226 	beq	r2,zero,807594 <f_mkfs+0xc88>
  80758c:	00800044 	movi	r2,1
  807590:	00008806 	br	8077b4 <f_mkfs+0xea8>
  807594:	e0bffb17 	ldw	r2,-20(fp)
  807598:	10800044 	addi	r2,r2,1
  80759c:	e0bffb15 	stw	r2,-20(fp)
  8075a0:	e0fffb17 	ldw	r3,-20(fp)
  8075a4:	e0bff117 	ldw	r2,-60(fp)
  8075a8:	18bfef36 	bltu	r3,r2,807568 <__alt_data_end+0xff807568>
  8075ac:	e0bfee17 	ldw	r2,-72(fp)
  8075b0:	10800044 	addi	r2,r2,1
  8075b4:	e0bfee15 	stw	r2,-72(fp)
  8075b8:	e0bfee17 	ldw	r2,-72(fp)
  8075bc:	103f7826 	beq	r2,zero,8073a0 <__alt_data_end+0xff8073a0>
  8075c0:	e0bfec03 	ldbu	r2,-80(fp)
  8075c4:	108000d8 	cmpnei	r2,r2,3
  8075c8:	1000021e 	bne	r2,zero,8075d4 <f_mkfs+0xcc8>
  8075cc:	e0bfff17 	ldw	r2,-4(fp)
  8075d0:	00000106 	br	8075d8 <f_mkfs+0xccc>
  8075d4:	e0bff217 	ldw	r2,-56(fp)
  8075d8:	e0bfee15 	stw	r2,-72(fp)
  8075dc:	e13ff403 	ldbu	r4,-48(fp)
  8075e0:	e0bfed17 	ldw	r2,-76(fp)
  8075e4:	10c00044 	addi	r3,r2,1
  8075e8:	e0ffed15 	stw	r3,-76(fp)
  8075ec:	e17ffa17 	ldw	r5,-24(fp)
  8075f0:	100d883a 	mov	r6,r2
  8075f4:	01c00044 	movi	r7,1
  8075f8:	0800f080 	call	800f08 <ffs_DiskIOWrite>
  8075fc:	10000226 	beq	r2,zero,807608 <f_mkfs+0xcfc>
  807600:	00800044 	movi	r2,1
  807604:	00006b06 	br	8077b4 <f_mkfs+0xea8>
  807608:	e0bfee17 	ldw	r2,-72(fp)
  80760c:	10bfffc4 	addi	r2,r2,-1
  807610:	e0bfee15 	stw	r2,-72(fp)
  807614:	e0bfee17 	ldw	r2,-72(fp)
  807618:	103ff01e 	bne	r2,zero,8075dc <__alt_data_end+0xff8075dc>
  80761c:	e0bfec03 	ldbu	r2,-80(fp)
  807620:	108000d8 	cmpnei	r2,r2,3
  807624:	10005c1e 	bne	r2,zero,807798 <f_mkfs+0xe8c>
  807628:	e0bffa17 	ldw	r2,-24(fp)
  80762c:	00c01484 	movi	r3,82
  807630:	10c00005 	stb	r3,0(r2)
  807634:	e0bffa17 	ldw	r2,-24(fp)
  807638:	10800044 	addi	r2,r2,1
  80763c:	00c01484 	movi	r3,82
  807640:	10c00005 	stb	r3,0(r2)
  807644:	e0bffa17 	ldw	r2,-24(fp)
  807648:	10800084 	addi	r2,r2,2
  80764c:	00c01844 	movi	r3,97
  807650:	10c00005 	stb	r3,0(r2)
  807654:	e0bffa17 	ldw	r2,-24(fp)
  807658:	108000c4 	addi	r2,r2,3
  80765c:	00c01044 	movi	r3,65
  807660:	10c00005 	stb	r3,0(r2)
  807664:	e0bffa17 	ldw	r2,-24(fp)
  807668:	10807904 	addi	r2,r2,484
  80766c:	00c01c84 	movi	r3,114
  807670:	10c00005 	stb	r3,0(r2)
  807674:	e0bffa17 	ldw	r2,-24(fp)
  807678:	10807944 	addi	r2,r2,485
  80767c:	00c01c84 	movi	r3,114
  807680:	10c00005 	stb	r3,0(r2)
  807684:	e0bffa17 	ldw	r2,-24(fp)
  807688:	10807984 	addi	r2,r2,486
  80768c:	00c01044 	movi	r3,65
  807690:	10c00005 	stb	r3,0(r2)
  807694:	e0bffa17 	ldw	r2,-24(fp)
  807698:	108079c4 	addi	r2,r2,487
  80769c:	00c01844 	movi	r3,97
  8076a0:	10c00005 	stb	r3,0(r2)
  8076a4:	e0bffa17 	ldw	r2,-24(fp)
  8076a8:	10807a04 	addi	r2,r2,488
  8076ac:	e0fff717 	ldw	r3,-36(fp)
  8076b0:	18ffffc4 	addi	r3,r3,-1
  8076b4:	10c00005 	stb	r3,0(r2)
  8076b8:	e0bffa17 	ldw	r2,-24(fp)
  8076bc:	10807a44 	addi	r2,r2,489
  8076c0:	e0fff717 	ldw	r3,-36(fp)
  8076c4:	18ffffc4 	addi	r3,r3,-1
  8076c8:	18ffffcc 	andi	r3,r3,65535
  8076cc:	1806d23a 	srli	r3,r3,8
  8076d0:	10c00005 	stb	r3,0(r2)
  8076d4:	e0bffa17 	ldw	r2,-24(fp)
  8076d8:	10807a84 	addi	r2,r2,490
  8076dc:	e0fff717 	ldw	r3,-36(fp)
  8076e0:	18ffffc4 	addi	r3,r3,-1
  8076e4:	1806d43a 	srli	r3,r3,16
  8076e8:	10c00005 	stb	r3,0(r2)
  8076ec:	e0bffa17 	ldw	r2,-24(fp)
  8076f0:	10807ac4 	addi	r2,r2,491
  8076f4:	e0fff717 	ldw	r3,-36(fp)
  8076f8:	18ffffc4 	addi	r3,r3,-1
  8076fc:	1806d63a 	srli	r3,r3,24
  807700:	10c00005 	stb	r3,0(r2)
  807704:	e0bffa17 	ldw	r2,-24(fp)
  807708:	10807b04 	addi	r2,r2,492
  80770c:	00c00084 	movi	r3,2
  807710:	10c00005 	stb	r3,0(r2)
  807714:	e0bffa17 	ldw	r2,-24(fp)
  807718:	10807b44 	addi	r2,r2,493
  80771c:	10000005 	stb	zero,0(r2)
  807720:	e0bffa17 	ldw	r2,-24(fp)
  807724:	10807b84 	addi	r2,r2,494
  807728:	10000005 	stb	zero,0(r2)
  80772c:	e0bffa17 	ldw	r2,-24(fp)
  807730:	10807bc4 	addi	r2,r2,495
  807734:	10000005 	stb	zero,0(r2)
  807738:	e0bffa17 	ldw	r2,-24(fp)
  80773c:	10807f84 	addi	r2,r2,510
  807740:	00c01544 	movi	r3,85
  807744:	10c00005 	stb	r3,0(r2)
  807748:	e0bffa17 	ldw	r2,-24(fp)
  80774c:	10807fc4 	addi	r2,r2,511
  807750:	00ffea84 	movi	r3,-86
  807754:	10c00005 	stb	r3,0(r2)
  807758:	e0fff403 	ldbu	r3,-48(fp)
  80775c:	e0bff517 	ldw	r2,-44(fp)
  807760:	10800044 	addi	r2,r2,1
  807764:	1809883a 	mov	r4,r3
  807768:	e17ffa17 	ldw	r5,-24(fp)
  80776c:	100d883a 	mov	r6,r2
  807770:	01c00044 	movi	r7,1
  807774:	0800f080 	call	800f08 <ffs_DiskIOWrite>
  807778:	e0fff403 	ldbu	r3,-48(fp)
  80777c:	e0bff517 	ldw	r2,-44(fp)
  807780:	108001c4 	addi	r2,r2,7
  807784:	1809883a 	mov	r4,r3
  807788:	e17ffa17 	ldw	r5,-24(fp)
  80778c:	100d883a 	mov	r6,r2
  807790:	01c00044 	movi	r7,1
  807794:	0800f080 	call	800f08 <ffs_DiskIOWrite>
  807798:	e0bff403 	ldbu	r2,-48(fp)
  80779c:	1009883a 	mov	r4,r2
  8077a0:	000b883a 	mov	r5,zero
  8077a4:	000d883a 	mov	r6,zero
  8077a8:	08010740 	call	801074 <ffs_DiskIOIoctl>
  8077ac:	1004c03a 	cmpne	r2,r2,zero
  8077b0:	10803fcc 	andi	r2,r2,255
  8077b4:	e037883a 	mov	sp,fp
  8077b8:	dfc00117 	ldw	ra,4(sp)
  8077bc:	df000017 	ldw	fp,0(sp)
  8077c0:	dec00204 	addi	sp,sp,8
  8077c4:	f800283a 	ret

008077c8 <f_gets>:
  8077c8:	defff704 	addi	sp,sp,-36
  8077cc:	dfc00815 	stw	ra,32(sp)
  8077d0:	df000715 	stw	fp,28(sp)
  8077d4:	df000704 	addi	fp,sp,28
  8077d8:	e13ffd15 	stw	r4,-12(fp)
  8077dc:	e17ffe15 	stw	r5,-8(fp)
  8077e0:	e1bfff15 	stw	r6,-4(fp)
  8077e4:	e03ff915 	stw	zero,-28(fp)
  8077e8:	e0bffd17 	ldw	r2,-12(fp)
  8077ec:	e0bffa15 	stw	r2,-24(fp)
  8077f0:	00001906 	br	807858 <f_gets+0x90>
  8077f4:	e0fffb44 	addi	r3,fp,-19
  8077f8:	e0bffc04 	addi	r2,fp,-16
  8077fc:	e13fff17 	ldw	r4,-4(fp)
  807800:	180b883a 	mov	r5,r3
  807804:	01800044 	movi	r6,1
  807808:	100f883a 	mov	r7,r2
  80780c:	08043a40 	call	8043a4 <f_read>
  807810:	e0bffc17 	ldw	r2,-16(fp)
  807814:	10800060 	cmpeqi	r2,r2,1
  807818:	1000011e 	bne	r2,zero,807820 <f_gets+0x58>
  80781c:	00001206 	br	807868 <f_gets+0xa0>
  807820:	e0bffb43 	ldbu	r2,-19(fp)
  807824:	e0bffb05 	stb	r2,-20(fp)
  807828:	e0bffa17 	ldw	r2,-24(fp)
  80782c:	10c00044 	addi	r3,r2,1
  807830:	e0fffa15 	stw	r3,-24(fp)
  807834:	e0fffb03 	ldbu	r3,-20(fp)
  807838:	10c00005 	stb	r3,0(r2)
  80783c:	e0bff917 	ldw	r2,-28(fp)
  807840:	10800044 	addi	r2,r2,1
  807844:	e0bff915 	stw	r2,-28(fp)
  807848:	e0bffb07 	ldb	r2,-20(fp)
  80784c:	10800298 	cmpnei	r2,r2,10
  807850:	1000011e 	bne	r2,zero,807858 <f_gets+0x90>
  807854:	00000406 	br	807868 <f_gets+0xa0>
  807858:	e0bffe17 	ldw	r2,-8(fp)
  80785c:	10bfffc4 	addi	r2,r2,-1
  807860:	e0fff917 	ldw	r3,-28(fp)
  807864:	18bfe316 	blt	r3,r2,8077f4 <__alt_data_end+0xff8077f4>
  807868:	e0bffa17 	ldw	r2,-24(fp)
  80786c:	10000005 	stb	zero,0(r2)
  807870:	e0bff917 	ldw	r2,-28(fp)
  807874:	10000226 	beq	r2,zero,807880 <f_gets+0xb8>
  807878:	e0bffd17 	ldw	r2,-12(fp)
  80787c:	00000106 	br	807884 <f_gets+0xbc>
  807880:	0005883a 	mov	r2,zero
  807884:	e037883a 	mov	sp,fp
  807888:	dfc00117 	ldw	ra,4(sp)
  80788c:	df000017 	ldw	fp,0(sp)
  807890:	dec00204 	addi	sp,sp,8
  807894:	f800283a 	ret

00807898 <f_putc>:
  807898:	defff904 	addi	sp,sp,-28
  80789c:	dfc00615 	stw	ra,24(sp)
  8078a0:	df000515 	stw	fp,20(sp)
  8078a4:	df000504 	addi	fp,sp,20
  8078a8:	2005883a 	mov	r2,r4
  8078ac:	e17fff15 	stw	r5,-4(fp)
  8078b0:	e0bffe05 	stb	r2,-8(fp)
  8078b4:	e0bffe03 	ldbu	r2,-8(fp)
  8078b8:	e0bffd05 	stb	r2,-12(fp)
  8078bc:	00800044 	movi	r2,1
  8078c0:	e0bffb15 	stw	r2,-20(fp)
  8078c4:	e0fffd04 	addi	r3,fp,-12
  8078c8:	e0bffc04 	addi	r2,fp,-16
  8078cc:	e13fff17 	ldw	r4,-4(fp)
  8078d0:	180b883a 	mov	r5,r3
  8078d4:	e1bffb17 	ldw	r6,-20(fp)
  8078d8:	100f883a 	mov	r7,r2
  8078dc:	08048880 	call	804888 <f_write>
  8078e0:	e0fffc17 	ldw	r3,-16(fp)
  8078e4:	e0bffb17 	ldw	r2,-20(fp)
  8078e8:	1880021e 	bne	r3,r2,8078f4 <f_putc+0x5c>
  8078ec:	00800044 	movi	r2,1
  8078f0:	00000106 	br	8078f8 <f_putc+0x60>
  8078f4:	00bfffc4 	movi	r2,-1
  8078f8:	e037883a 	mov	sp,fp
  8078fc:	dfc00117 	ldw	ra,4(sp)
  807900:	df000017 	ldw	fp,0(sp)
  807904:	dec00204 	addi	sp,sp,8
  807908:	f800283a 	ret

0080790c <f_puts>:
  80790c:	defffb04 	addi	sp,sp,-20
  807910:	dfc00415 	stw	ra,16(sp)
  807914:	df000315 	stw	fp,12(sp)
  807918:	df000304 	addi	fp,sp,12
  80791c:	e13ffe15 	stw	r4,-8(fp)
  807920:	e17fff15 	stw	r5,-4(fp)
  807924:	e03ffd15 	stw	zero,-12(fp)
  807928:	00001206 	br	807974 <f_puts+0x68>
  80792c:	e0bffe17 	ldw	r2,-8(fp)
  807930:	10800003 	ldbu	r2,0(r2)
  807934:	10803fcc 	andi	r2,r2,255
  807938:	1080201c 	xori	r2,r2,128
  80793c:	10bfe004 	addi	r2,r2,-128
  807940:	1009883a 	mov	r4,r2
  807944:	e17fff17 	ldw	r5,-4(fp)
  807948:	08078980 	call	807898 <f_putc>
  80794c:	10bfffd8 	cmpnei	r2,r2,-1
  807950:	1000021e 	bne	r2,zero,80795c <f_puts+0x50>
  807954:	00bfffc4 	movi	r2,-1
  807958:	00000d06 	br	807990 <f_puts+0x84>
  80795c:	e0bffe17 	ldw	r2,-8(fp)
  807960:	10800044 	addi	r2,r2,1
  807964:	e0bffe15 	stw	r2,-8(fp)
  807968:	e0bffd17 	ldw	r2,-12(fp)
  80796c:	10800044 	addi	r2,r2,1
  807970:	e0bffd15 	stw	r2,-12(fp)
  807974:	e0bffe17 	ldw	r2,-8(fp)
  807978:	10800003 	ldbu	r2,0(r2)
  80797c:	10803fcc 	andi	r2,r2,255
  807980:	1080201c 	xori	r2,r2,128
  807984:	10bfe004 	addi	r2,r2,-128
  807988:	103fe81e 	bne	r2,zero,80792c <__alt_data_end+0xff80792c>
  80798c:	e0bffd17 	ldw	r2,-12(fp)
  807990:	e037883a 	mov	sp,fp
  807994:	dfc00117 	ldw	ra,4(sp)
  807998:	df000017 	ldw	fp,0(sp)
  80799c:	dec00204 	addi	sp,sp,8
  8079a0:	f800283a 	ret

008079a4 <f_printf>:
  8079a4:	deffeb04 	addi	sp,sp,-84
  8079a8:	dfc01215 	stw	ra,72(sp)
  8079ac:	df001115 	stw	fp,68(sp)
  8079b0:	df001104 	addi	fp,sp,68
  8079b4:	e13ffe15 	stw	r4,-8(fp)
  8079b8:	e1800215 	stw	r6,8(fp)
  8079bc:	e1c00315 	stw	r7,12(fp)
  8079c0:	e17fff15 	stw	r5,-4(fp)
  8079c4:	e0800204 	addi	r2,fp,8
  8079c8:	e0bff915 	stw	r2,-28(fp)
  8079cc:	e03ff515 	stw	zero,-44(fp)
  8079d0:	e0bff517 	ldw	r2,-44(fp)
  8079d4:	e0bff715 	stw	r2,-36(fp)
  8079d8:	00017806 	br	807fbc <f_printf+0x618>
  8079dc:	e0bfff17 	ldw	r2,-4(fp)
  8079e0:	10c00044 	addi	r3,r2,1
  8079e4:	e0ffff15 	stw	r3,-4(fp)
  8079e8:	10800003 	ldbu	r2,0(r2)
  8079ec:	e0bff405 	stb	r2,-48(fp)
  8079f0:	e0bff407 	ldb	r2,-48(fp)
  8079f4:	1000011e 	bne	r2,zero,8079fc <f_printf+0x58>
  8079f8:	00017306 	br	807fc8 <f_printf+0x624>
  8079fc:	e0bff407 	ldb	r2,-48(fp)
  807a00:	10800960 	cmpeqi	r2,r2,37
  807a04:	10000c1e 	bne	r2,zero,807a38 <f_printf+0x94>
  807a08:	e0bff407 	ldb	r2,-48(fp)
  807a0c:	1009883a 	mov	r4,r2
  807a10:	e17ffe17 	ldw	r5,-8(fp)
  807a14:	08078980 	call	807898 <f_putc>
  807a18:	e0bff715 	stw	r2,-36(fp)
  807a1c:	e0bff717 	ldw	r2,-36(fp)
  807a20:	10bfffe0 	cmpeqi	r2,r2,-1
  807a24:	1000031e 	bne	r2,zero,807a34 <f_printf+0x90>
  807a28:	00800044 	movi	r2,1
  807a2c:	e0bff715 	stw	r2,-36(fp)
  807a30:	00015e06 	br	807fac <f_printf+0x608>
  807a34:	00015d06 	br	807fac <f_printf+0x608>
  807a38:	e03fef05 	stb	zero,-68(fp)
  807a3c:	e03ff215 	stw	zero,-56(fp)
  807a40:	e0bfff17 	ldw	r2,-4(fp)
  807a44:	10c00044 	addi	r3,r2,1
  807a48:	e0ffff15 	stw	r3,-4(fp)
  807a4c:	10800003 	ldbu	r2,0(r2)
  807a50:	e0bff405 	stb	r2,-48(fp)
  807a54:	e0bff407 	ldb	r2,-48(fp)
  807a58:	10800c18 	cmpnei	r2,r2,48
  807a5c:	1000081e 	bne	r2,zero,807a80 <f_printf+0xdc>
  807a60:	00800044 	movi	r2,1
  807a64:	e0bfef05 	stb	r2,-68(fp)
  807a68:	e0bfff17 	ldw	r2,-4(fp)
  807a6c:	10c00044 	addi	r3,r2,1
  807a70:	e0ffff15 	stw	r3,-4(fp)
  807a74:	10800003 	ldbu	r2,0(r2)
  807a78:	e0bff405 	stb	r2,-48(fp)
  807a7c:	00000a06 	br	807aa8 <f_printf+0x104>
  807a80:	e0bff407 	ldb	r2,-48(fp)
  807a84:	10800b58 	cmpnei	r2,r2,45
  807a88:	1000071e 	bne	r2,zero,807aa8 <f_printf+0x104>
  807a8c:	00800084 	movi	r2,2
  807a90:	e0bfef05 	stb	r2,-68(fp)
  807a94:	e0bfff17 	ldw	r2,-4(fp)
  807a98:	10c00044 	addi	r3,r2,1
  807a9c:	e0ffff15 	stw	r3,-4(fp)
  807aa0:	10800003 	ldbu	r2,0(r2)
  807aa4:	e0bff405 	stb	r2,-48(fp)
  807aa8:	00000b06 	br	807ad8 <f_printf+0x134>
  807aac:	e0bff217 	ldw	r2,-56(fp)
  807ab0:	10c002a4 	muli	r3,r2,10
  807ab4:	e0bff407 	ldb	r2,-48(fp)
  807ab8:	1885883a 	add	r2,r3,r2
  807abc:	10bff404 	addi	r2,r2,-48
  807ac0:	e0bff215 	stw	r2,-56(fp)
  807ac4:	e0bfff17 	ldw	r2,-4(fp)
  807ac8:	10c00044 	addi	r3,r2,1
  807acc:	e0ffff15 	stw	r3,-4(fp)
  807ad0:	10800003 	ldbu	r2,0(r2)
  807ad4:	e0bff405 	stb	r2,-48(fp)
  807ad8:	e0bff407 	ldb	r2,-48(fp)
  807adc:	10800c10 	cmplti	r2,r2,48
  807ae0:	1000031e 	bne	r2,zero,807af0 <f_printf+0x14c>
  807ae4:	e0bff407 	ldb	r2,-48(fp)
  807ae8:	10800e90 	cmplti	r2,r2,58
  807aec:	103fef1e 	bne	r2,zero,807aac <__alt_data_end+0xff807aac>
  807af0:	e0bff407 	ldb	r2,-48(fp)
  807af4:	10801b20 	cmpeqi	r2,r2,108
  807af8:	1000031e 	bne	r2,zero,807b08 <f_printf+0x164>
  807afc:	e0bff407 	ldb	r2,-48(fp)
  807b00:	10801318 	cmpnei	r2,r2,76
  807b04:	1000081e 	bne	r2,zero,807b28 <f_printf+0x184>
  807b08:	e0bfef03 	ldbu	r2,-68(fp)
  807b0c:	10800114 	ori	r2,r2,4
  807b10:	e0bfef05 	stb	r2,-68(fp)
  807b14:	e0bfff17 	ldw	r2,-4(fp)
  807b18:	10c00044 	addi	r3,r2,1
  807b1c:	e0ffff15 	stw	r3,-4(fp)
  807b20:	10800003 	ldbu	r2,0(r2)
  807b24:	e0bff405 	stb	r2,-48(fp)
  807b28:	e0bff407 	ldb	r2,-48(fp)
  807b2c:	1000011e 	bne	r2,zero,807b34 <f_printf+0x190>
  807b30:	00012506 	br	807fc8 <f_printf+0x624>
  807b34:	e0bff403 	ldbu	r2,-48(fp)
  807b38:	e0bff445 	stb	r2,-47(fp)
  807b3c:	e0bff447 	ldb	r2,-47(fp)
  807b40:	10801850 	cmplti	r2,r2,97
  807b44:	1000061e 	bne	r2,zero,807b60 <f_printf+0x1bc>
  807b48:	e0bff447 	ldb	r2,-47(fp)
  807b4c:	10801ec8 	cmpgei	r2,r2,123
  807b50:	1000031e 	bne	r2,zero,807b60 <f_printf+0x1bc>
  807b54:	e0bff443 	ldbu	r2,-47(fp)
  807b58:	10bff804 	addi	r2,r2,-32
  807b5c:	e0bff445 	stb	r2,-47(fp)
  807b60:	e0bff447 	ldb	r2,-47(fp)
  807b64:	10bfef84 	addi	r2,r2,-66
  807b68:	10c005e8 	cmpgeui	r3,r2,23
  807b6c:	1800761e 	bne	r3,zero,807d48 <f_printf+0x3a4>
  807b70:	100690ba 	slli	r3,r2,2
  807b74:	00802034 	movhi	r2,128
  807b78:	109ee204 	addi	r2,r2,31624
  807b7c:	1885883a 	add	r2,r3,r2
  807b80:	10800017 	ldw	r2,0(r2)
  807b84:	1000683a 	jmp	r2
  807b88:	00807d18 	cmpnei	r2,zero,500
  807b8c:	00807ce8 	cmpgeui	r2,zero,499
  807b90:	00807d30 	cmpltui	r2,zero,500
  807b94:	00807d48 	cmpgei	r2,zero,501
  807b98:	00807d48 	cmpgei	r2,zero,501
  807b9c:	00807d48 	cmpgei	r2,zero,501
  807ba0:	00807d48 	cmpgei	r2,zero,501
  807ba4:	00807d48 	cmpgei	r2,zero,501
  807ba8:	00807d48 	cmpgei	r2,zero,501
  807bac:	00807d48 	cmpgei	r2,zero,501
  807bb0:	00807d48 	cmpgei	r2,zero,501
  807bb4:	00807d48 	cmpgei	r2,zero,501
  807bb8:	00807d48 	cmpgei	r2,zero,501
  807bbc:	00807d24 	muli	r2,zero,500
  807bc0:	00807d48 	cmpgei	r2,zero,501
  807bc4:	00807d48 	cmpgei	r2,zero,501
  807bc8:	00807d48 	cmpgei	r2,zero,501
  807bcc:	00807be4 	muli	r2,zero,495
  807bd0:	00807d48 	cmpgei	r2,zero,501
  807bd4:	00807d30 	cmpltui	r2,zero,500
  807bd8:	00807d48 	cmpgei	r2,zero,501
  807bdc:	00807d48 	cmpgei	r2,zero,501
  807be0:	00807d3c 	xorhi	r2,zero,500
  807be4:	e0bff917 	ldw	r2,-28(fp)
  807be8:	10c00104 	addi	r3,r2,4
  807bec:	e0fff915 	stw	r3,-28(fp)
  807bf0:	10800017 	ldw	r2,0(r2)
  807bf4:	e0bff815 	stw	r2,-32(fp)
  807bf8:	e03ff115 	stw	zero,-60(fp)
  807bfc:	00000306 	br	807c0c <f_printf+0x268>
  807c00:	e0bff117 	ldw	r2,-60(fp)
  807c04:	10800044 	addi	r2,r2,1
  807c08:	e0bff115 	stw	r2,-60(fp)
  807c0c:	e0fff817 	ldw	r3,-32(fp)
  807c10:	e0bff117 	ldw	r2,-60(fp)
  807c14:	1885883a 	add	r2,r3,r2
  807c18:	10800003 	ldbu	r2,0(r2)
  807c1c:	10803fcc 	andi	r2,r2,255
  807c20:	1080201c 	xori	r2,r2,128
  807c24:	10bfe004 	addi	r2,r2,-128
  807c28:	103ff51e 	bne	r2,zero,807c00 <__alt_data_end+0xff807c00>
  807c2c:	e03ff615 	stw	zero,-40(fp)
  807c30:	e0bfef03 	ldbu	r2,-68(fp)
  807c34:	1080008c 	andi	r2,r2,2
  807c38:	10000e1e 	bne	r2,zero,807c74 <f_printf+0x2d0>
  807c3c:	00000806 	br	807c60 <f_printf+0x2bc>
  807c40:	01000804 	movi	r4,32
  807c44:	e17ffe17 	ldw	r5,-8(fp)
  807c48:	08078980 	call	807898 <f_putc>
  807c4c:	e0bff715 	stw	r2,-36(fp)
  807c50:	e0bff717 	ldw	r2,-36(fp)
  807c54:	e0fff617 	ldw	r3,-40(fp)
  807c58:	1885883a 	add	r2,r3,r2
  807c5c:	e0bff615 	stw	r2,-40(fp)
  807c60:	e0bff117 	ldw	r2,-60(fp)
  807c64:	10c00044 	addi	r3,r2,1
  807c68:	e0fff115 	stw	r3,-60(fp)
  807c6c:	e0fff217 	ldw	r3,-56(fp)
  807c70:	10fff336 	bltu	r2,r3,807c40 <__alt_data_end+0xff807c40>
  807c74:	e13ff817 	ldw	r4,-32(fp)
  807c78:	e17ffe17 	ldw	r5,-8(fp)
  807c7c:	080790c0 	call	80790c <f_puts>
  807c80:	e0bff715 	stw	r2,-36(fp)
  807c84:	e0bff717 	ldw	r2,-36(fp)
  807c88:	e0fff617 	ldw	r3,-40(fp)
  807c8c:	1885883a 	add	r2,r3,r2
  807c90:	e0bff615 	stw	r2,-40(fp)
  807c94:	00000806 	br	807cb8 <f_printf+0x314>
  807c98:	01000804 	movi	r4,32
  807c9c:	e17ffe17 	ldw	r5,-8(fp)
  807ca0:	08078980 	call	807898 <f_putc>
  807ca4:	e0bff715 	stw	r2,-36(fp)
  807ca8:	e0bff717 	ldw	r2,-36(fp)
  807cac:	e0fff617 	ldw	r3,-40(fp)
  807cb0:	1885883a 	add	r2,r3,r2
  807cb4:	e0bff615 	stw	r2,-40(fp)
  807cb8:	e0bff117 	ldw	r2,-60(fp)
  807cbc:	10c00044 	addi	r3,r2,1
  807cc0:	e0fff115 	stw	r3,-60(fp)
  807cc4:	e0fff217 	ldw	r3,-56(fp)
  807cc8:	10fff336 	bltu	r2,r3,807c98 <__alt_data_end+0xff807c98>
  807ccc:	e0bff717 	ldw	r2,-36(fp)
  807cd0:	10bfffe0 	cmpeqi	r2,r2,-1
  807cd4:	1000031e 	bne	r2,zero,807ce4 <f_printf+0x340>
  807cd8:	e0bff617 	ldw	r2,-40(fp)
  807cdc:	e0bff715 	stw	r2,-36(fp)
  807ce0:	0000b206 	br	807fac <f_printf+0x608>
  807ce4:	0000b106 	br	807fac <f_printf+0x608>
  807ce8:	e0bff917 	ldw	r2,-28(fp)
  807cec:	10c00104 	addi	r3,r2,4
  807cf0:	e0fff915 	stw	r3,-28(fp)
  807cf4:	10800017 	ldw	r2,0(r2)
  807cf8:	10803fcc 	andi	r2,r2,255
  807cfc:	1080201c 	xori	r2,r2,128
  807d00:	10bfe004 	addi	r2,r2,-128
  807d04:	1009883a 	mov	r4,r2
  807d08:	e17ffe17 	ldw	r5,-8(fp)
  807d0c:	08078980 	call	807898 <f_putc>
  807d10:	e0bff715 	stw	r2,-36(fp)
  807d14:	0000a506 	br	807fac <f_printf+0x608>
  807d18:	00800084 	movi	r2,2
  807d1c:	e0bfef45 	stb	r2,-67(fp)
  807d20:	00000f06 	br	807d60 <f_printf+0x3bc>
  807d24:	00800204 	movi	r2,8
  807d28:	e0bfef45 	stb	r2,-67(fp)
  807d2c:	00000c06 	br	807d60 <f_printf+0x3bc>
  807d30:	00800284 	movi	r2,10
  807d34:	e0bfef45 	stb	r2,-67(fp)
  807d38:	00000906 	br	807d60 <f_printf+0x3bc>
  807d3c:	00800404 	movi	r2,16
  807d40:	e0bfef45 	stb	r2,-67(fp)
  807d44:	00000606 	br	807d60 <f_printf+0x3bc>
  807d48:	e0bff407 	ldb	r2,-48(fp)
  807d4c:	1009883a 	mov	r4,r2
  807d50:	e17ffe17 	ldw	r5,-8(fp)
  807d54:	08078980 	call	807898 <f_putc>
  807d58:	e0bff715 	stw	r2,-36(fp)
  807d5c:	00009306 	br	807fac <f_printf+0x608>
  807d60:	e0bfef03 	ldbu	r2,-68(fp)
  807d64:	1080010c 	andi	r2,r2,4
  807d68:	10000526 	beq	r2,zero,807d80 <f_printf+0x3dc>
  807d6c:	e0bff917 	ldw	r2,-28(fp)
  807d70:	10c00104 	addi	r3,r2,4
  807d74:	e0fff915 	stw	r3,-28(fp)
  807d78:	10800017 	ldw	r2,0(r2)
  807d7c:	00000c06 	br	807db0 <f_printf+0x40c>
  807d80:	e0bff447 	ldb	r2,-47(fp)
  807d84:	10801118 	cmpnei	r2,r2,68
  807d88:	1000051e 	bne	r2,zero,807da0 <f_printf+0x3fc>
  807d8c:	e0bff917 	ldw	r2,-28(fp)
  807d90:	10c00104 	addi	r3,r2,4
  807d94:	e0fff915 	stw	r3,-28(fp)
  807d98:	10800017 	ldw	r2,0(r2)
  807d9c:	00000406 	br	807db0 <f_printf+0x40c>
  807da0:	e0bff917 	ldw	r2,-28(fp)
  807da4:	10c00104 	addi	r3,r2,4
  807da8:	e0fff915 	stw	r3,-28(fp)
  807dac:	10800017 	ldw	r2,0(r2)
  807db0:	e0bff315 	stw	r2,-52(fp)
  807db4:	e0bff447 	ldb	r2,-47(fp)
  807db8:	10801118 	cmpnei	r2,r2,68
  807dbc:	1000081e 	bne	r2,zero,807de0 <f_printf+0x43c>
  807dc0:	e0bff317 	ldw	r2,-52(fp)
  807dc4:	1000060e 	bge	r2,zero,807de0 <f_printf+0x43c>
  807dc8:	e0bff317 	ldw	r2,-52(fp)
  807dcc:	0085c83a 	sub	r2,zero,r2
  807dd0:	e0bff315 	stw	r2,-52(fp)
  807dd4:	e0bfef03 	ldbu	r2,-68(fp)
  807dd8:	10800214 	ori	r2,r2,8
  807ddc:	e0bfef05 	stb	r2,-68(fp)
  807de0:	e03ff015 	stw	zero,-64(fp)
  807de4:	e0bfef43 	ldbu	r2,-67(fp)
  807de8:	e0fff317 	ldw	r3,-52(fp)
  807dec:	1809883a 	mov	r4,r3
  807df0:	100b883a 	mov	r5,r2
  807df4:	080a2580 	call	80a258 <__umodsi3>
  807df8:	e0bff445 	stb	r2,-47(fp)
  807dfc:	e0bfef43 	ldbu	r2,-67(fp)
  807e00:	e13ff317 	ldw	r4,-52(fp)
  807e04:	100b883a 	mov	r5,r2
  807e08:	080a2500 	call	80a250 <__udivsi3>
  807e0c:	e0bff315 	stw	r2,-52(fp)
  807e10:	e0bff447 	ldb	r2,-47(fp)
  807e14:	10800290 	cmplti	r2,r2,10
  807e18:	1000091e 	bne	r2,zero,807e40 <f_printf+0x49c>
  807e1c:	e0bff407 	ldb	r2,-48(fp)
  807e20:	10801e18 	cmpnei	r2,r2,120
  807e24:	1000021e 	bne	r2,zero,807e30 <f_printf+0x48c>
  807e28:	008009c4 	movi	r2,39
  807e2c:	00000106 	br	807e34 <f_printf+0x490>
  807e30:	008001c4 	movi	r2,7
  807e34:	e0fff443 	ldbu	r3,-47(fp)
  807e38:	10c5883a 	add	r2,r2,r3
  807e3c:	e0bff445 	stb	r2,-47(fp)
  807e40:	e0bff017 	ldw	r2,-64(fp)
  807e44:	10c00044 	addi	r3,r2,1
  807e48:	e0fff015 	stw	r3,-64(fp)
  807e4c:	e0fff443 	ldbu	r3,-47(fp)
  807e50:	18c00c04 	addi	r3,r3,48
  807e54:	1809883a 	mov	r4,r3
  807e58:	e0fffa04 	addi	r3,fp,-24
  807e5c:	1885883a 	add	r2,r3,r2
  807e60:	11000005 	stb	r4,0(r2)
  807e64:	e0bff317 	ldw	r2,-52(fp)
  807e68:	10000326 	beq	r2,zero,807e78 <f_printf+0x4d4>
  807e6c:	e0bff017 	ldw	r2,-64(fp)
  807e70:	10800430 	cmpltui	r2,r2,16
  807e74:	103fdb1e 	bne	r2,zero,807de4 <__alt_data_end+0xff807de4>
  807e78:	e0bfef03 	ldbu	r2,-68(fp)
  807e7c:	1080020c 	andi	r2,r2,8
  807e80:	10000726 	beq	r2,zero,807ea0 <f_printf+0x4fc>
  807e84:	e0bff017 	ldw	r2,-64(fp)
  807e88:	10c00044 	addi	r3,r2,1
  807e8c:	e0fff015 	stw	r3,-64(fp)
  807e90:	e0fffa04 	addi	r3,fp,-24
  807e94:	1885883a 	add	r2,r3,r2
  807e98:	00c00b44 	movi	r3,45
  807e9c:	10c00005 	stb	r3,0(r2)
  807ea0:	e0bff017 	ldw	r2,-64(fp)
  807ea4:	e0bff115 	stw	r2,-60(fp)
  807ea8:	e0bfef03 	ldbu	r2,-68(fp)
  807eac:	1080004c 	andi	r2,r2,1
  807eb0:	10000226 	beq	r2,zero,807ebc <f_printf+0x518>
  807eb4:	00800c04 	movi	r2,48
  807eb8:	00000106 	br	807ec0 <f_printf+0x51c>
  807ebc:	00800804 	movi	r2,32
  807ec0:	e0bff445 	stb	r2,-47(fp)
  807ec4:	e03ff515 	stw	zero,-44(fp)
  807ec8:	00000906 	br	807ef0 <f_printf+0x54c>
  807ecc:	e0bff447 	ldb	r2,-47(fp)
  807ed0:	1009883a 	mov	r4,r2
  807ed4:	e17ffe17 	ldw	r5,-8(fp)
  807ed8:	08078980 	call	807898 <f_putc>
  807edc:	e0bff715 	stw	r2,-36(fp)
  807ee0:	e0bff717 	ldw	r2,-36(fp)
  807ee4:	e0fff517 	ldw	r3,-44(fp)
  807ee8:	1885883a 	add	r2,r3,r2
  807eec:	e0bff515 	stw	r2,-44(fp)
  807ef0:	e0bfef03 	ldbu	r2,-68(fp)
  807ef4:	1080008c 	andi	r2,r2,2
  807ef8:	1000051e 	bne	r2,zero,807f10 <f_printf+0x56c>
  807efc:	e0bff117 	ldw	r2,-60(fp)
  807f00:	10c00044 	addi	r3,r2,1
  807f04:	e0fff115 	stw	r3,-60(fp)
  807f08:	e0fff217 	ldw	r3,-56(fp)
  807f0c:	10ffef36 	bltu	r2,r3,807ecc <__alt_data_end+0xff807ecc>
  807f10:	e0bff017 	ldw	r2,-64(fp)
  807f14:	10bfffc4 	addi	r2,r2,-1
  807f18:	e0bff015 	stw	r2,-64(fp)
  807f1c:	e0fffa04 	addi	r3,fp,-24
  807f20:	e0bff017 	ldw	r2,-64(fp)
  807f24:	1885883a 	add	r2,r3,r2
  807f28:	10800003 	ldbu	r2,0(r2)
  807f2c:	10803fcc 	andi	r2,r2,255
  807f30:	1080201c 	xori	r2,r2,128
  807f34:	10bfe004 	addi	r2,r2,-128
  807f38:	1009883a 	mov	r4,r2
  807f3c:	e17ffe17 	ldw	r5,-8(fp)
  807f40:	08078980 	call	807898 <f_putc>
  807f44:	e0bff715 	stw	r2,-36(fp)
  807f48:	e0bff717 	ldw	r2,-36(fp)
  807f4c:	e0fff517 	ldw	r3,-44(fp)
  807f50:	1885883a 	add	r2,r3,r2
  807f54:	e0bff515 	stw	r2,-44(fp)
  807f58:	e0bff017 	ldw	r2,-64(fp)
  807f5c:	103fec1e 	bne	r2,zero,807f10 <__alt_data_end+0xff807f10>
  807f60:	00000806 	br	807f84 <f_printf+0x5e0>
  807f64:	01000804 	movi	r4,32
  807f68:	e17ffe17 	ldw	r5,-8(fp)
  807f6c:	08078980 	call	807898 <f_putc>
  807f70:	e0bff715 	stw	r2,-36(fp)
  807f74:	e0bff717 	ldw	r2,-36(fp)
  807f78:	e0fff517 	ldw	r3,-44(fp)
  807f7c:	1885883a 	add	r2,r3,r2
  807f80:	e0bff515 	stw	r2,-44(fp)
  807f84:	e0bff117 	ldw	r2,-60(fp)
  807f88:	10c00044 	addi	r3,r2,1
  807f8c:	e0fff115 	stw	r3,-60(fp)
  807f90:	e0fff217 	ldw	r3,-56(fp)
  807f94:	10fff336 	bltu	r2,r3,807f64 <__alt_data_end+0xff807f64>
  807f98:	e0bff717 	ldw	r2,-36(fp)
  807f9c:	10bfffe0 	cmpeqi	r2,r2,-1
  807fa0:	1000021e 	bne	r2,zero,807fac <f_printf+0x608>
  807fa4:	e0bff517 	ldw	r2,-44(fp)
  807fa8:	e0bff715 	stw	r2,-36(fp)
  807fac:	e0fff517 	ldw	r3,-44(fp)
  807fb0:	e0bff717 	ldw	r2,-36(fp)
  807fb4:	1885883a 	add	r2,r3,r2
  807fb8:	e0bff515 	stw	r2,-44(fp)
  807fbc:	e0bff717 	ldw	r2,-36(fp)
  807fc0:	10bfffd8 	cmpnei	r2,r2,-1
  807fc4:	103e851e 	bne	r2,zero,8079dc <__alt_data_end+0xff8079dc>
  807fc8:	e0bff717 	ldw	r2,-36(fp)
  807fcc:	10bfffd8 	cmpnei	r2,r2,-1
  807fd0:	1000021e 	bne	r2,zero,807fdc <f_printf+0x638>
  807fd4:	e0bff717 	ldw	r2,-36(fp)
  807fd8:	00000106 	br	807fe0 <f_printf+0x63c>
  807fdc:	e0bff517 	ldw	r2,-44(fp)
  807fe0:	e037883a 	mov	sp,fp
  807fe4:	dfc00117 	ldw	ra,4(sp)
  807fe8:	df000017 	ldw	fp,0(sp)
  807fec:	dec00404 	addi	sp,sp,16
  807ff0:	f800283a 	ret

00807ff4 <TimerFunction>:
/*  In    : none                                                           */
/*  Out   : none                                                           */
/*  Return: none                                                           */
/***************************************************************************/
static alt_u32 TimerFunction (void *context)
{
  807ff4:	defffd04 	addi	sp,sp,-12
  807ff8:	dfc00215 	stw	ra,8(sp)
  807ffc:	df000115 	stw	fp,4(sp)
  808000:	df000104 	addi	fp,sp,4
  808004:	e13fff15 	stw	r4,-4(fp)
   static unsigned short wTimer10ms = 0;

   (void)context;

   Systick++;
  808008:	d0a33b17 	ldw	r2,-29460(gp)
  80800c:	10800044 	addi	r2,r2,1
  808010:	d0a33b15 	stw	r2,-29460(gp)
   wTimer10ms++;
  808014:	d0a33c8b 	ldhu	r2,-29454(gp)
  808018:	10800044 	addi	r2,r2,1
  80801c:	d0a33c8d 	sth	r2,-29454(gp)
   Timer++; /* Performance counter for this module */
  808020:	d0a33c0b 	ldhu	r2,-29456(gp)
  808024:	10800044 	addi	r2,r2,1
  808028:	d0a33c0d 	sth	r2,-29456(gp)

   if (wTimer10ms == 10)
  80802c:	d0a33c8b 	ldhu	r2,-29454(gp)
  808030:	10bfffcc 	andi	r2,r2,65535
  808034:	10800298 	cmpnei	r2,r2,10
  808038:	1000021e 	bne	r2,zero,808044 <TimerFunction+0x50>
   {
      wTimer10ms = 0;
  80803c:	d0233c8d 	sth	zero,-29454(gp)
      ffs_DiskIOTimerproc();  /* Drive timer procedure of low level disk I/O module */
  808040:	0800a600 	call	800a60 <ffs_DiskIOTimerproc>
   }

   return(1);
  808044:	00800044 	movi	r2,1
} /* TimerFunction */
  808048:	e037883a 	mov	sp,fp
  80804c:	dfc00117 	ldw	ra,4(sp)
  808050:	df000017 	ldw	fp,0(sp)
  808054:	dec00204 	addi	sp,sp,8
  808058:	f800283a 	ret

0080805c <IoInit>:
/*  In    : none                                                           */
/*  Out   : none                                                           */
/*  Return: none                                                           */
/***************************************************************************/
static void IoInit(void)
{
  80805c:	defffe04 	addi	sp,sp,-8
  808060:	dfc00115 	stw	ra,4(sp)
  808064:	df000015 	stw	fp,0(sp)
  808068:	d839883a 	mov	fp,sp
   uart0_init(115200);
  80806c:	010000b4 	movhi	r4,2
  808070:	21308004 	addi	r4,r4,-15872
  808074:	080a0840 	call	80a084 <uart0_init>

   /* Init diskio interface */
   ffs_DiskIOInit();
  808078:	0800a340 	call	800a34 <ffs_DiskIOInit>

   //SetHighSpeed();

   /* Init timer system */
   alt_alarm_start(&alarm, 1, &TimerFunction, NULL);
  80807c:	01002074 	movhi	r4,129
  808080:	210bdb04 	addi	r4,r4,12140
  808084:	01400044 	movi	r5,1
  808088:	01802034 	movhi	r6,128
  80808c:	319ffd04 	addi	r6,r6,32756
  808090:	000f883a 	mov	r7,zero
  808094:	080c9d00 	call	80c9d0 <alt_alarm_start>

} /* IoInit */
  808098:	e037883a 	mov	sp,fp
  80809c:	dfc00117 	ldw	ra,4(sp)
  8080a0:	df000017 	ldw	fp,0(sp)
  8080a4:	dec00204 	addi	sp,sp,8
  8080a8:	f800283a 	ret

008080ac <scan_files>:



static
FRESULT scan_files(char *path)
{
  8080ac:	defff304 	addi	sp,sp,-52
  8080b0:	dfc00c15 	stw	ra,48(sp)
  8080b4:	df000b15 	stw	fp,44(sp)
  8080b8:	df000b04 	addi	fp,sp,44
  8080bc:	e13fff15 	stw	r4,-4(fp)
    FRESULT res;
    uint8_t i;
    char *fn;


    if ((res = f_opendir(&dirs, path)) == FR_OK) {
  8080c0:	e0bff804 	addi	r2,fp,-32
  8080c4:	1009883a 	mov	r4,r2
  8080c8:	e17fff17 	ldw	r5,-4(fp)
  8080cc:	08055c00 	call	8055c0 <f_opendir>
  8080d0:	e0bff515 	stw	r2,-44(fp)
  8080d4:	e0bff517 	ldw	r2,-44(fp)
  8080d8:	10003e1e 	bne	r2,zero,8081d4 <scan_files+0x128>
        i = (uint8_t)strlen(path);
  8080dc:	e13fff17 	ldw	r4,-4(fp)
  8080e0:	080b75c0 	call	80b75c <strlen>
  8080e4:	e0bff605 	stb	r2,-40(fp)
        while (((res = f_readdir(&dirs, &Finfo)) == FR_OK) && Finfo.fname[0]) {
  8080e8:	00002b06 	br	808198 <scan_files+0xec>
            if (_FS_RPATH && Finfo.fname[0] == '.')
                continue;
#if _USE_LFN
            fn = *Finfo.lfname ? Finfo.lfname : Finfo.fname;
#else
            fn = Finfo.fname;
  8080ec:	00802074 	movhi	r2,129
  8080f0:	108d0244 	addi	r2,r2,13321
  8080f4:	e0bff715 	stw	r2,-36(fp)
#endif
            if (Finfo.fattrib & AM_DIR) {
  8080f8:	00802074 	movhi	r2,129
  8080fc:	108d0004 	addi	r2,r2,13312
  808100:	10800203 	ldbu	r2,8(r2)
  808104:	10803fcc 	andi	r2,r2,255
  808108:	1080040c 	andi	r2,r2,16
  80810c:	10001926 	beq	r2,zero,808174 <scan_files+0xc8>
                acc_dirs++;
  808110:	d0a33d0b 	ldhu	r2,-29452(gp)
  808114:	10800044 	addi	r2,r2,1
  808118:	d0a33d0d 	sth	r2,-29452(gp)
                *(path + i) = '/';
  80811c:	e0bff603 	ldbu	r2,-40(fp)
  808120:	e0ffff17 	ldw	r3,-4(fp)
  808124:	1885883a 	add	r2,r3,r2
  808128:	00c00bc4 	movi	r3,47
  80812c:	10c00005 	stb	r3,0(r2)
                strcpy(path + i + 1, fn);
  808130:	e0bff603 	ldbu	r2,-40(fp)
  808134:	10800044 	addi	r2,r2,1
  808138:	e0ffff17 	ldw	r3,-4(fp)
  80813c:	1885883a 	add	r2,r3,r2
  808140:	1009883a 	mov	r4,r2
  808144:	e17ff717 	ldw	r5,-36(fp)
  808148:	080b6cc0 	call	80b6cc <strcpy>
                res = scan_files(path);
  80814c:	e13fff17 	ldw	r4,-4(fp)
  808150:	08080ac0 	call	8080ac <scan_files>
  808154:	e0bff515 	stw	r2,-44(fp)
                *(path + i) = '\0';
  808158:	e0bff603 	ldbu	r2,-40(fp)
  80815c:	e0ffff17 	ldw	r3,-4(fp)
  808160:	1885883a 	add	r2,r3,r2
  808164:	10000005 	stb	zero,0(r2)
                if (res != FR_OK)
  808168:	e0bff517 	ldw	r2,-44(fp)
  80816c:	10000a26 	beq	r2,zero,808198 <scan_files+0xec>
                    break;
  808170:	00001806 	br	8081d4 <scan_files+0x128>
            } else {
                //      xprintf("%s/%s\n", path, fn);
                acc_files++;
  808174:	d0a33d8b 	ldhu	r2,-29450(gp)
  808178:	10800044 	addi	r2,r2,1
  80817c:	d0a33d8d 	sth	r2,-29450(gp)
                acc_size += Finfo.fsize;
  808180:	00802074 	movhi	r2,129
  808184:	108d0004 	addi	r2,r2,13312
  808188:	10c00017 	ldw	r3,0(r2)
  80818c:	d0a33e17 	ldw	r2,-29448(gp)
  808190:	1885883a 	add	r2,r3,r2
  808194:	d0a33e15 	stw	r2,-29448(gp)
    char *fn;


    if ((res = f_opendir(&dirs, path)) == FR_OK) {
        i = (uint8_t)strlen(path);
        while (((res = f_readdir(&dirs, &Finfo)) == FR_OK) && Finfo.fname[0]) {
  808198:	e0bff804 	addi	r2,fp,-32
  80819c:	1009883a 	mov	r4,r2
  8081a0:	01402074 	movhi	r5,129
  8081a4:	294d0004 	addi	r5,r5,13312
  8081a8:	08057300 	call	805730 <f_readdir>
  8081ac:	e0bff515 	stw	r2,-44(fp)
  8081b0:	e0bff517 	ldw	r2,-44(fp)
  8081b4:	1000071e 	bne	r2,zero,8081d4 <scan_files+0x128>
  8081b8:	00802074 	movhi	r2,129
  8081bc:	108d0004 	addi	r2,r2,13312
  8081c0:	10800243 	ldbu	r2,9(r2)
  8081c4:	10803fcc 	andi	r2,r2,255
  8081c8:	1080201c 	xori	r2,r2,128
  8081cc:	10bfe004 	addi	r2,r2,-128
  8081d0:	103fc61e 	bne	r2,zero,8080ec <__alt_data_end+0xff8080ec>
                acc_size += Finfo.fsize;
            }
        }
    }

    return res;
  8081d4:	e0bff517 	ldw	r2,-44(fp)
}
  8081d8:	e037883a 	mov	sp,fp
  8081dc:	dfc00117 	ldw	ra,4(sp)
  8081e0:	df000017 	ldw	fp,0(sp)
  8081e4:	dec00204 	addi	sp,sp,8
  8081e8:	f800283a 	ret

008081ec <put_rc>:


static
void put_rc(FRESULT rc)
{
  8081ec:	defffb04 	addi	sp,sp,-20
  8081f0:	dfc00415 	stw	ra,16(sp)
  8081f4:	df000315 	stw	fp,12(sp)
  8081f8:	df000304 	addi	fp,sp,12
  8081fc:	e13fff15 	stw	r4,-4(fp)
    const char *str =
  808200:	00802074 	movhi	r2,129
  808204:	10831b04 	addi	r2,r2,3180
  808208:	e0bffd15 	stw	r2,-12(fp)
        "INVALID_NAME\0" "DENIED\0" "EXIST\0" "INVALID_OBJECT\0" "WRITE_PROTECTED\0"
        "INVALID_DRIVE\0" "NOT_ENABLED\0" "NO_FILE_SYSTEM\0" "MKFS_ABORTED\0" "TIMEOUT\0"
        "LOCKED\0" "NOT_ENOUGH_CORE\0" "TOO_MANY_OPEN_FILES\0";
    FRESULT i;

    for (i = 0; i != rc && *str; i++) {
  80820c:	e03ffe15 	stw	zero,-8(fp)
  808210:	00000c06 	br	808244 <put_rc+0x58>
        while (*str++);
  808214:	0001883a 	nop
  808218:	e0bffd17 	ldw	r2,-12(fp)
  80821c:	10c00044 	addi	r3,r2,1
  808220:	e0fffd15 	stw	r3,-12(fp)
  808224:	10800003 	ldbu	r2,0(r2)
  808228:	10803fcc 	andi	r2,r2,255
  80822c:	1080201c 	xori	r2,r2,128
  808230:	10bfe004 	addi	r2,r2,-128
  808234:	103ff81e 	bne	r2,zero,808218 <__alt_data_end+0xff808218>
        "INVALID_NAME\0" "DENIED\0" "EXIST\0" "INVALID_OBJECT\0" "WRITE_PROTECTED\0"
        "INVALID_DRIVE\0" "NOT_ENABLED\0" "NO_FILE_SYSTEM\0" "MKFS_ABORTED\0" "TIMEOUT\0"
        "LOCKED\0" "NOT_ENOUGH_CORE\0" "TOO_MANY_OPEN_FILES\0";
    FRESULT i;

    for (i = 0; i != rc && *str; i++) {
  808238:	e0bffe17 	ldw	r2,-8(fp)
  80823c:	10800044 	addi	r2,r2,1
  808240:	e0bffe15 	stw	r2,-8(fp)
  808244:	e0fffe17 	ldw	r3,-8(fp)
  808248:	e0bfff17 	ldw	r2,-4(fp)
  80824c:	18800626 	beq	r3,r2,808268 <put_rc+0x7c>
  808250:	e0bffd17 	ldw	r2,-12(fp)
  808254:	10800003 	ldbu	r2,0(r2)
  808258:	10803fcc 	andi	r2,r2,255
  80825c:	1080201c 	xori	r2,r2,128
  808260:	10bfe004 	addi	r2,r2,-128
  808264:	103feb1e 	bne	r2,zero,808214 <__alt_data_end+0xff808214>
        while (*str++);
    }
    xprintf("rc=%u FR_%s\n", (uint32_t) rc, str);
  808268:	01002074 	movhi	r4,129
  80826c:	21035004 	addi	r4,r4,3392
  808270:	e17fff17 	ldw	r5,-4(fp)
  808274:	e1bffd17 	ldw	r6,-12(fp)
  808278:	0809c000 	call	809c00 <xprintf>
}
  80827c:	e037883a 	mov	sp,fp
  808280:	dfc00117 	ldw	ra,4(sp)
  808284:	df000017 	ldw	fp,0(sp)
  808288:	dec00204 	addi	sp,sp,8
  80828c:	f800283a 	ret

00808290 <play_file>:

void play_file(int num_bytes) {
  808290:	defffe04 	addi	sp,sp,-8
  808294:	df000115 	stw	fp,4(sp)
  808298:	df000104 	addi	fp,sp,4
  80829c:	e13fff15 	stw	r4,-4(fp)

}
  8082a0:	e037883a 	mov	sp,fp
  8082a4:	df000017 	ldw	fp,0(sp)
  8082a8:	dec00104 	addi	sp,sp,4
  8082ac:	f800283a 	ret

008082b0 <display_help>:

static
void display_help(void)
{
  8082b0:	defffe04 	addi	sp,sp,-8
  8082b4:	dfc00115 	stw	ra,4(sp)
  8082b8:	df000015 	stw	fp,0(sp)
  8082bc:	d839883a 	mov	fp,sp
    xputs("dd <phy_drv#> [<sector>] - Dump sector\n"
  8082c0:	01002074 	movhi	r4,129
  8082c4:	21035404 	addi	r4,r4,3408
  8082c8:	08099e00 	call	8099e0 <xputs>
          "fz [<len>] - Get/Set transfer unit for fr command\n"
#if 0
          "t [<year> <mon> <mday> <hour> <min> <sec>] Time read/set\n"
#endif
          "h view help (this)\n");
}
  8082cc:	e037883a 	mov	sp,fp
  8082d0:	dfc00117 	ldw	ra,4(sp)
  8082d4:	df000017 	ldw	fp,0(sp)
  8082d8:	dec00204 	addi	sp,sp,8
  8082dc:	f800283a 	ret

008082e0 <main>:

/***************************************************************************/
/*  main                                                                   */
/***************************************************************************/
int main(void)
{
  8082e0:	deffe004 	addi	sp,sp,-128
  8082e4:	dfc01f15 	stw	ra,124(sp)
  8082e8:	df001e15 	stw	fp,120(sp)
  8082ec:	dc001d15 	stw	r16,116(sp)
  8082f0:	df001e04 	addi	fp,sp,120
	int fifospace;
    char *ptr, *ptr2;
    long p1, p2, p3;
    uint8_t res, b1, drv = 0;
  8082f4:	e03feb05 	stb	zero,-84(fp)
    uint16_t w1;
    uint32_t s1, s2, cnt, blen = sizeof(Buff);
  8082f8:	00880004 	movi	r2,8192
  8082fc:	e0bfed15 	stw	r2,-76(fp)
    static const uint8_t ft[] = { 0, 12, 16, 32 };
    uint32_t ofs = 0, sect = 0, blk[2];
  808300:	e03fee15 	stw	zero,-72(fp)
  808304:	e03fef15 	stw	zero,-68(fp)
    alt_up_audio_dev * audio_dev;
    /* used for audio record/playback */
    unsigned int l_buf;
    unsigned int r_buf;
    // open the Audio port
    audio_dev = alt_up_audio_open_dev ("/dev/Audio");
  808308:	01002074 	movhi	r4,129
  80830c:	2103f904 	addi	r4,r4,4068
  808310:	080f3a00 	call	80f3a0 <alt_up_audio_open_dev>
  808314:	e0bff015 	stw	r2,-64(fp)
    if ( audio_dev == NULL)
  808318:	e0bff017 	ldw	r2,-64(fp)
  80831c:	1000041e 	bne	r2,zero,808330 <main+0x50>
    alt_printf ("Error: could not open audio device \n");
  808320:	01002074 	movhi	r4,129
  808324:	2103fc04 	addi	r4,r4,4080
  808328:	080d1100 	call	80d110 <alt_printf>
  80832c:	00000306 	br	80833c <main+0x5c>
    else
    alt_printf ("Opened audio device \n");
  808330:	01002074 	movhi	r4,129
  808334:	21040604 	addi	r4,r4,4120
  808338:	080d1100 	call	80d110 <alt_printf>

    IoInit();
  80833c:	080805c0 	call	80805c <IoInit>

    //IOWR(SEVEN_SEG_PIO_BASE,0,0xFF07);

    xputs(PSTR("FatFs module test monitor\n"));
  808340:	01002074 	movhi	r4,129
  808344:	21040c04 	addi	r4,r4,4144
  808348:	08099e00 	call	8099e0 <xputs>
    xputs(_USE_LFN ? "LFN Enabled" : "LFN Disabled");
  80834c:	01002074 	movhi	r4,129
  808350:	21041304 	addi	r4,r4,4172
  808354:	08099e00 	call	8099e0 <xputs>
    xprintf(", Code page: %u\n", _CODE_PAGE);
  808358:	01002074 	movhi	r4,129
  80835c:	21041704 	addi	r4,r4,4188
  808360:	01413884 	movi	r5,1250
  808364:	0809c000 	call	809c00 <xprintf>

    display_help();
  808368:	08082b00 	call	8082b0 <display_help>
    Finfo.lfsize = sizeof(Lfname);
#endif

    for (;;) {

        get_line(Line, sizeof(Line));
  80836c:	01002074 	movhi	r4,129
  808370:	21159604 	addi	r4,r4,22104
  808374:	01404004 	movi	r5,256
  808378:	0809fc80 	call	809fc8 <get_line>

        ptr = Line;
  80837c:	00802074 	movhi	r2,129
  808380:	10959604 	addi	r2,r2,22104
  808384:	e0bff315 	stw	r2,-52(fp)
        switch (*ptr++) {
  808388:	e0bff317 	ldw	r2,-52(fp)
  80838c:	10c00044 	addi	r3,r2,1
  808390:	e0fff315 	stw	r3,-52(fp)
  808394:	10800003 	ldbu	r2,0(r2)
  808398:	10803fcc 	andi	r2,r2,255
  80839c:	1080201c 	xori	r2,r2,128
  8083a0:	10bfe004 	addi	r2,r2,-128
  8083a4:	10bfe784 	addi	r2,r2,-98
  8083a8:	10c00328 	cmpgeui	r3,r2,12
  8083ac:	183fef1e 	bne	r3,zero,80836c <__alt_data_end+0xff80836c>
  8083b0:	100690ba 	slli	r3,r2,2
  8083b4:	00802074 	movhi	r2,129
  8083b8:	10a0f204 	addi	r2,r2,-31800
  8083bc:	1885883a 	add	r2,r3,r2
  8083c0:	10800017 	ldw	r2,0(r2)
  8083c4:	1000683a 	jmp	r2
  8083c8:	00808990 	cmplti	r2,zero,550
  8083cc:	0080836c 	andhi	r2,zero,525
  8083d0:	008084d4 	movui	r2,531
  8083d4:	0080836c 	andhi	r2,zero,525
  8083d8:	00808ca0 	cmpeqi	r2,zero,562
  8083dc:	0080836c 	andhi	r2,zero,525
  8083e0:	008096fc 	xorhi	r2,zero,603
  8083e4:	0080836c 	andhi	r2,zero,525
  8083e8:	0080836c 	andhi	r2,zero,525
  8083ec:	0080836c 	andhi	r2,zero,525
  8083f0:	0080836c 	andhi	r2,zero,525
  8083f4:	008083f8 	rdprs	r2,zero,527

        case 'm':              /* System memroy/register controls */
            switch (*ptr++) {
  8083f8:	e0bff317 	ldw	r2,-52(fp)
  8083fc:	10c00044 	addi	r3,r2,1
  808400:	e0fff315 	stw	r3,-52(fp)
  808404:	10800003 	ldbu	r2,0(r2)
  808408:	10803fcc 	andi	r2,r2,255
  80840c:	1080201c 	xori	r2,r2,128
  808410:	10bfe004 	addi	r2,r2,-128
  808414:	10801920 	cmpeqi	r2,r2,100
  808418:	1000011e 	bne	r2,zero,808420 <main+0x140>
                    put_dump((uint8_t *) ptr, (uint32_t) ptr, 16);
                if (p2)
                    put_dump((uint8_t *) ptr, (uint32_t) ptr, p2);
                break;
            }
            break;
  80841c:	0004ba06 	br	809708 <main+0x1428>
        switch (*ptr++) {

        case 'm':              /* System memroy/register controls */
            switch (*ptr++) {
            case 'd':          /* md <address> [<count>] - Dump memory */
                if (!xatoi(&ptr, &p1))
  808420:	e0fff304 	addi	r3,fp,-52
  808424:	e0bff404 	addi	r2,fp,-48
  808428:	1809883a 	mov	r4,r3
  80842c:	100b883a 	mov	r5,r2
  808430:	080970c0 	call	80970c <xatoi>
  808434:	1000011e 	bne	r2,zero,80843c <main+0x15c>
                    break;
  808438:	00002506 	br	8084d0 <main+0x1f0>
                if (!xatoi(&ptr, &p2))
  80843c:	e0fff304 	addi	r3,fp,-52
  808440:	e0bff504 	addi	r2,fp,-44
  808444:	1809883a 	mov	r4,r3
  808448:	100b883a 	mov	r5,r2
  80844c:	080970c0 	call	80970c <xatoi>
  808450:	1000021e 	bne	r2,zero,80845c <main+0x17c>
                    p2 = 128;
  808454:	00802004 	movi	r2,128
  808458:	e0bff515 	stw	r2,-44(fp)
                for (ptr = (char *) p1; p2 >= 16; ptr += 16, p2 -= 16)
  80845c:	e0bff417 	ldw	r2,-48(fp)
  808460:	e0bff315 	stw	r2,-52(fp)
  808464:	00000c06 	br	808498 <main+0x1b8>
                    put_dump((uint8_t *) ptr, (uint32_t) ptr, 16);
  808468:	e0bff317 	ldw	r2,-52(fp)
  80846c:	e0fff317 	ldw	r3,-52(fp)
  808470:	1009883a 	mov	r4,r2
  808474:	180b883a 	mov	r5,r3
  808478:	01800404 	movi	r6,16
  80847c:	0809eac0 	call	809eac <put_dump>
            case 'd':          /* md <address> [<count>] - Dump memory */
                if (!xatoi(&ptr, &p1))
                    break;
                if (!xatoi(&ptr, &p2))
                    p2 = 128;
                for (ptr = (char *) p1; p2 >= 16; ptr += 16, p2 -= 16)
  808480:	e0bff317 	ldw	r2,-52(fp)
  808484:	10800404 	addi	r2,r2,16
  808488:	e0bff315 	stw	r2,-52(fp)
  80848c:	e0bff517 	ldw	r2,-44(fp)
  808490:	10bffc04 	addi	r2,r2,-16
  808494:	e0bff515 	stw	r2,-44(fp)
  808498:	e0bff517 	ldw	r2,-44(fp)
  80849c:	10800408 	cmpgei	r2,r2,16
  8084a0:	103ff11e 	bne	r2,zero,808468 <__alt_data_end+0xff808468>
                    put_dump((uint8_t *) ptr, (uint32_t) ptr, 16);
                if (p2)
  8084a4:	e0bff517 	ldw	r2,-44(fp)
  8084a8:	10000826 	beq	r2,zero,8084cc <main+0x1ec>
                    put_dump((uint8_t *) ptr, (uint32_t) ptr, p2);
  8084ac:	e0fff317 	ldw	r3,-52(fp)
  8084b0:	e0bff317 	ldw	r2,-52(fp)
  8084b4:	100b883a 	mov	r5,r2
  8084b8:	e0bff517 	ldw	r2,-44(fp)
  8084bc:	1809883a 	mov	r4,r3
  8084c0:	100d883a 	mov	r6,r2
  8084c4:	0809eac0 	call	809eac <put_dump>
                break;
  8084c8:	00000006 	br	8084cc <main+0x1ec>
  8084cc:	0001883a 	nop
            }
            break;
  8084d0:	00048d06 	br	809708 <main+0x1428>

        case 'd':              /* Disk I/O layer controls */
            switch (*ptr++) {
  8084d4:	e0bff317 	ldw	r2,-52(fp)
  8084d8:	10c00044 	addi	r3,r2,1
  8084dc:	e0fff315 	stw	r3,-52(fp)
  8084e0:	10800003 	ldbu	r2,0(r2)
  8084e4:	10803fcc 	andi	r2,r2,255
  8084e8:	1080201c 	xori	r2,r2,128
  8084ec:	10bfe004 	addi	r2,r2,-128
  8084f0:	10c01920 	cmpeqi	r3,r2,100
  8084f4:	18000a1e 	bne	r3,zero,808520 <main+0x240>
  8084f8:	10c01948 	cmpgei	r3,r2,101
  8084fc:	1800031e 	bne	r3,zero,80850c <main+0x22c>
  808500:	108018e0 	cmpeqi	r2,r2,99
  808504:	1000e31e 	bne	r2,zero,808894 <main+0x5b4>
                    xprintf("rc=%d\n", disk_ioctl((uint8_t) p1, CTRL_ERASE_SECTOR, blk));
                    break;
                }
                break;
            }
            break;
  808508:	00047f06 	br	809708 <main+0x1428>
                break;
            }
            break;

        case 'd':              /* Disk I/O layer controls */
            switch (*ptr++) {
  80850c:	10c01a60 	cmpeqi	r3,r2,105
  808510:	1800461e 	bne	r3,zero,80862c <main+0x34c>
  808514:	10801ce0 	cmpeqi	r2,r2,115
  808518:	1000551e 	bne	r2,zero,808670 <main+0x390>
                    xprintf("rc=%d\n", disk_ioctl((uint8_t) p1, CTRL_ERASE_SECTOR, blk));
                    break;
                }
                break;
            }
            break;
  80851c:	00047a06 	br	809708 <main+0x1428>
            break;

        case 'd':              /* Disk I/O layer controls */
            switch (*ptr++) {
            case 'd':          /* dd [<drv> [<lba>]] - Dump secrtor */
                if (!xatoi(&ptr, &p1)) {
  808520:	e0fff304 	addi	r3,fp,-52
  808524:	e0bff404 	addi	r2,fp,-48
  808528:	1809883a 	mov	r4,r3
  80852c:	100b883a 	mov	r5,r2
  808530:	080970c0 	call	80970c <xatoi>
  808534:	1000031e 	bne	r2,zero,808544 <main+0x264>
                    p1 = drv;
  808538:	e0bfeb03 	ldbu	r2,-84(fp)
  80853c:	e0bff415 	stw	r2,-48(fp)
  808540:	00000806 	br	808564 <main+0x284>
                } else {
                    if (!xatoi(&ptr, &p2))
  808544:	e0fff304 	addi	r3,fp,-52
  808548:	e0bff504 	addi	r2,fp,-44
  80854c:	1809883a 	mov	r4,r3
  808550:	100b883a 	mov	r5,r2
  808554:	080970c0 	call	80970c <xatoi>
  808558:	1000021e 	bne	r2,zero,808564 <main+0x284>
                        p2 = sect;
  80855c:	e0bfef17 	ldw	r2,-68(fp)
  808560:	e0bff515 	stw	r2,-44(fp)
                }
                drv = (uint8_t) p1;
  808564:	e0bff417 	ldw	r2,-48(fp)
  808568:	e0bfeb05 	stb	r2,-84(fp)
                sect = p2 + 1;
  80856c:	e0bff517 	ldw	r2,-44(fp)
  808570:	10800044 	addi	r2,r2,1
  808574:	e0bfef15 	stw	r2,-68(fp)
                res = disk_read((uint8_t) p1, Buff, p2, 1);
  808578:	e0bff417 	ldw	r2,-48(fp)
  80857c:	10803fcc 	andi	r2,r2,255
  808580:	e0fff517 	ldw	r3,-44(fp)
  808584:	1009883a 	mov	r4,r2
  808588:	01402074 	movhi	r5,129
  80858c:	294d0604 	addi	r5,r5,13336
  808590:	180d883a 	mov	r6,r3
  808594:	01c00044 	movi	r7,1
  808598:	0800dec0 	call	800dec <ffs_DiskIORead>
  80859c:	e0bff105 	stb	r2,-60(fp)
                if (res) {
  8085a0:	e0bff103 	ldbu	r2,-60(fp)
  8085a4:	10000626 	beq	r2,zero,8085c0 <main+0x2e0>
                    xprintf("rc=%d\n", (uint16_t) res);
  8085a8:	e0bff103 	ldbu	r2,-60(fp)
  8085ac:	01002074 	movhi	r4,129
  8085b0:	21041c04 	addi	r4,r4,4208
  8085b4:	100b883a 	mov	r5,r2
  8085b8:	0809c000 	call	809c00 <xprintf>
                    break;
  8085bc:	0000f306 	br	80898c <main+0x6ac>
                }
                xprintf("D:%lu S:%lu\n", p1, p2);
  8085c0:	e0fff417 	ldw	r3,-48(fp)
  8085c4:	e0bff517 	ldw	r2,-44(fp)
  8085c8:	01002074 	movhi	r4,129
  8085cc:	21041e04 	addi	r4,r4,4216
  8085d0:	180b883a 	mov	r5,r3
  8085d4:	100d883a 	mov	r6,r2
  8085d8:	0809c000 	call	809c00 <xprintf>
                for (ptr = (char *) Buff, ofs = 0; ofs < 0x200; ptr += 16, ofs += 16)
  8085dc:	00802074 	movhi	r2,129
  8085e0:	108d0604 	addi	r2,r2,13336
  8085e4:	e0bff315 	stw	r2,-52(fp)
  8085e8:	e03fee15 	stw	zero,-72(fp)
  8085ec:	00000b06 	br	80861c <main+0x33c>
                    put_dump((uint8_t *) ptr, ofs, 16);
  8085f0:	e0bff317 	ldw	r2,-52(fp)
  8085f4:	1009883a 	mov	r4,r2
  8085f8:	e17fee17 	ldw	r5,-72(fp)
  8085fc:	01800404 	movi	r6,16
  808600:	0809eac0 	call	809eac <put_dump>
                if (res) {
                    xprintf("rc=%d\n", (uint16_t) res);
                    break;
                }
                xprintf("D:%lu S:%lu\n", p1, p2);
                for (ptr = (char *) Buff, ofs = 0; ofs < 0x200; ptr += 16, ofs += 16)
  808604:	e0bff317 	ldw	r2,-52(fp)
  808608:	10800404 	addi	r2,r2,16
  80860c:	e0bff315 	stw	r2,-52(fp)
  808610:	e0bfee17 	ldw	r2,-72(fp)
  808614:	10800404 	addi	r2,r2,16
  808618:	e0bfee15 	stw	r2,-72(fp)
  80861c:	e0bfee17 	ldw	r2,-72(fp)
  808620:	10808030 	cmpltui	r2,r2,512
  808624:	103ff21e 	bne	r2,zero,8085f0 <__alt_data_end+0xff8085f0>
                    put_dump((uint8_t *) ptr, ofs, 16);
                break;
  808628:	0000d806 	br	80898c <main+0x6ac>

            case 'i':          /* di <drv> - Initialize disk */
                if (!xatoi(&ptr, &p1))
  80862c:	e0fff304 	addi	r3,fp,-52
  808630:	e0bff404 	addi	r2,fp,-48
  808634:	1809883a 	mov	r4,r3
  808638:	100b883a 	mov	r5,r2
  80863c:	080970c0 	call	80970c <xatoi>
  808640:	1000011e 	bne	r2,zero,808648 <main+0x368>
                    break;
  808644:	0000d106 	br	80898c <main+0x6ac>
                xprintf("rc=%d\n", (uint16_t) disk_initialize((uint8_t) p1));
  808648:	e0bff417 	ldw	r2,-48(fp)
  80864c:	10803fcc 	andi	r2,r2,255
  808650:	1009883a 	mov	r4,r2
  808654:	0800b680 	call	800b68 <ffs_DiskIOInitialize>
  808658:	10803fcc 	andi	r2,r2,255
  80865c:	01002074 	movhi	r4,129
  808660:	21041c04 	addi	r4,r4,4208
  808664:	100b883a 	mov	r5,r2
  808668:	0809c000 	call	809c00 <xprintf>
                break;
  80866c:	0000c706 	br	80898c <main+0x6ac>

            case 's':          /* ds <drv> - Show disk status */
                if (!xatoi(&ptr, &p1))
  808670:	e0fff304 	addi	r3,fp,-52
  808674:	e0bff404 	addi	r2,fp,-48
  808678:	1809883a 	mov	r4,r3
  80867c:	100b883a 	mov	r5,r2
  808680:	080970c0 	call	80970c <xatoi>
  808684:	1000011e 	bne	r2,zero,80868c <main+0x3ac>
                    break;
  808688:	0000c006 	br	80898c <main+0x6ac>
                if (disk_ioctl((uint8_t) p1, GET_SECTOR_COUNT, &p2) == RES_OK) {
  80868c:	e0bff417 	ldw	r2,-48(fp)
  808690:	10c03fcc 	andi	r3,r2,255
  808694:	e0bff504 	addi	r2,fp,-44
  808698:	1809883a 	mov	r4,r3
  80869c:	01400044 	movi	r5,1
  8086a0:	100d883a 	mov	r6,r2
  8086a4:	08010740 	call	801074 <ffs_DiskIOIoctl>
  8086a8:	1000051e 	bne	r2,zero,8086c0 <main+0x3e0>
                    xprintf("Drive size: %lu sectors\n", p2);
  8086ac:	e0bff517 	ldw	r2,-44(fp)
  8086b0:	01002074 	movhi	r4,129
  8086b4:	21042204 	addi	r4,r4,4232
  8086b8:	100b883a 	mov	r5,r2
  8086bc:	0809c000 	call	809c00 <xprintf>
                }
                if (disk_ioctl((uint8_t) p1, GET_SECTOR_SIZE, &w1) == RES_OK) {
  8086c0:	e0bff417 	ldw	r2,-48(fp)
  8086c4:	10c03fcc 	andi	r3,r2,255
  8086c8:	e0bff784 	addi	r2,fp,-34
  8086cc:	1809883a 	mov	r4,r3
  8086d0:	01400084 	movi	r5,2
  8086d4:	100d883a 	mov	r6,r2
  8086d8:	08010740 	call	801074 <ffs_DiskIOIoctl>
  8086dc:	1000061e 	bne	r2,zero,8086f8 <main+0x418>
                    xprintf("Sector size: %u bytes\n", w1);
  8086e0:	e0bff78b 	ldhu	r2,-34(fp)
  8086e4:	10bfffcc 	andi	r2,r2,65535
  8086e8:	01002074 	movhi	r4,129
  8086ec:	21042904 	addi	r4,r4,4260
  8086f0:	100b883a 	mov	r5,r2
  8086f4:	0809c000 	call	809c00 <xprintf>
                }
                if (disk_ioctl((uint8_t) p1, GET_BLOCK_SIZE, &p2) == RES_OK) {
  8086f8:	e0bff417 	ldw	r2,-48(fp)
  8086fc:	10c03fcc 	andi	r3,r2,255
  808700:	e0bff504 	addi	r2,fp,-44
  808704:	1809883a 	mov	r4,r3
  808708:	014000c4 	movi	r5,3
  80870c:	100d883a 	mov	r6,r2
  808710:	08010740 	call	801074 <ffs_DiskIOIoctl>
  808714:	1000051e 	bne	r2,zero,80872c <main+0x44c>
                    xprintf("Block size: %lu sectors\n", p2);
  808718:	e0bff517 	ldw	r2,-44(fp)
  80871c:	01002074 	movhi	r4,129
  808720:	21042f04 	addi	r4,r4,4284
  808724:	100b883a 	mov	r5,r2
  808728:	0809c000 	call	809c00 <xprintf>
                }
                if (disk_ioctl((uint8_t) p1, MMC_GET_TYPE, &b1) == RES_OK) {
  80872c:	e0bff417 	ldw	r2,-48(fp)
  808730:	10c03fcc 	andi	r3,r2,255
  808734:	e0bff704 	addi	r2,fp,-36
  808738:	1809883a 	mov	r4,r3
  80873c:	01400284 	movi	r5,10
  808740:	100d883a 	mov	r6,r2
  808744:	08010740 	call	801074 <ffs_DiskIOIoctl>
  808748:	1000061e 	bne	r2,zero,808764 <main+0x484>
                    xprintf("MMC/SDC type: %u\n", b1);
  80874c:	e0bff703 	ldbu	r2,-36(fp)
  808750:	10803fcc 	andi	r2,r2,255
  808754:	01002074 	movhi	r4,129
  808758:	21043604 	addi	r4,r4,4312
  80875c:	100b883a 	mov	r5,r2
  808760:	0809c000 	call	809c00 <xprintf>
                }
                if (disk_ioctl((uint8_t) p1, MMC_GET_CSD, Buff) == RES_OK) {
  808764:	e0bff417 	ldw	r2,-48(fp)
  808768:	10803fcc 	andi	r2,r2,255
  80876c:	1009883a 	mov	r4,r2
  808770:	014002c4 	movi	r5,11
  808774:	01802074 	movhi	r6,129
  808778:	318d0604 	addi	r6,r6,13336
  80877c:	08010740 	call	801074 <ffs_DiskIOIoctl>
  808780:	1000081e 	bne	r2,zero,8087a4 <main+0x4c4>
                    xputs("CSD:\n");
  808784:	01002074 	movhi	r4,129
  808788:	21043b04 	addi	r4,r4,4332
  80878c:	08099e00 	call	8099e0 <xputs>
                    put_dump(Buff, 0, 16);
  808790:	01002074 	movhi	r4,129
  808794:	210d0604 	addi	r4,r4,13336
  808798:	000b883a 	mov	r5,zero
  80879c:	01800404 	movi	r6,16
  8087a0:	0809eac0 	call	809eac <put_dump>
                }
                if (disk_ioctl((uint8_t) p1, MMC_GET_CID, Buff) == RES_OK) {
  8087a4:	e0bff417 	ldw	r2,-48(fp)
  8087a8:	10803fcc 	andi	r2,r2,255
  8087ac:	1009883a 	mov	r4,r2
  8087b0:	01400304 	movi	r5,12
  8087b4:	01802074 	movhi	r6,129
  8087b8:	318d0604 	addi	r6,r6,13336
  8087bc:	08010740 	call	801074 <ffs_DiskIOIoctl>
  8087c0:	1000081e 	bne	r2,zero,8087e4 <main+0x504>
                    xputs("CID:\n");
  8087c4:	01002074 	movhi	r4,129
  8087c8:	21043d04 	addi	r4,r4,4340
  8087cc:	08099e00 	call	8099e0 <xputs>
                    put_dump(Buff, 0, 16);
  8087d0:	01002074 	movhi	r4,129
  8087d4:	210d0604 	addi	r4,r4,13336
  8087d8:	000b883a 	mov	r5,zero
  8087dc:	01800404 	movi	r6,16
  8087e0:	0809eac0 	call	809eac <put_dump>
                }
                if (disk_ioctl((uint8_t) p1, MMC_GET_OCR, Buff) == RES_OK) {
  8087e4:	e0bff417 	ldw	r2,-48(fp)
  8087e8:	10803fcc 	andi	r2,r2,255
  8087ec:	1009883a 	mov	r4,r2
  8087f0:	01400344 	movi	r5,13
  8087f4:	01802074 	movhi	r6,129
  8087f8:	318d0604 	addi	r6,r6,13336
  8087fc:	08010740 	call	801074 <ffs_DiskIOIoctl>
  808800:	1000081e 	bne	r2,zero,808824 <main+0x544>
                    xputs("OCR:\n");
  808804:	01002074 	movhi	r4,129
  808808:	21043f04 	addi	r4,r4,4348
  80880c:	08099e00 	call	8099e0 <xputs>
                    put_dump(Buff, 0, 4);
  808810:	01002074 	movhi	r4,129
  808814:	210d0604 	addi	r4,r4,13336
  808818:	000b883a 	mov	r5,zero
  80881c:	01800104 	movi	r6,4
  808820:	0809eac0 	call	809eac <put_dump>
                }
                if (disk_ioctl((uint8_t) p1, MMC_GET_SDSTAT, Buff) == RES_OK) {
  808824:	e0bff417 	ldw	r2,-48(fp)
  808828:	10803fcc 	andi	r2,r2,255
  80882c:	1009883a 	mov	r4,r2
  808830:	01400384 	movi	r5,14
  808834:	01802074 	movhi	r6,129
  808838:	318d0604 	addi	r6,r6,13336
  80883c:	08010740 	call	801074 <ffs_DiskIOIoctl>
  808840:	1000131e 	bne	r2,zero,808890 <main+0x5b0>
                    xputs("SD Status:\n");
  808844:	01002074 	movhi	r4,129
  808848:	21044104 	addi	r4,r4,4356
  80884c:	08099e00 	call	8099e0 <xputs>
                    for (s1 = 0; s1 < 64; s1 += 16)
  808850:	e03fec15 	stw	zero,-80(fp)
  808854:	00000b06 	br	808884 <main+0x5a4>
                        put_dump(Buff + s1, s1, 16);
  808858:	e0ffec17 	ldw	r3,-80(fp)
  80885c:	00802074 	movhi	r2,129
  808860:	108d0604 	addi	r2,r2,13336
  808864:	1885883a 	add	r2,r3,r2
  808868:	1009883a 	mov	r4,r2
  80886c:	e17fec17 	ldw	r5,-80(fp)
  808870:	01800404 	movi	r6,16
  808874:	0809eac0 	call	809eac <put_dump>
                    xputs("OCR:\n");
                    put_dump(Buff, 0, 4);
                }
                if (disk_ioctl((uint8_t) p1, MMC_GET_SDSTAT, Buff) == RES_OK) {
                    xputs("SD Status:\n");
                    for (s1 = 0; s1 < 64; s1 += 16)
  808878:	e0bfec17 	ldw	r2,-80(fp)
  80887c:	10800404 	addi	r2,r2,16
  808880:	e0bfec15 	stw	r2,-80(fp)
  808884:	e0bfec17 	ldw	r2,-80(fp)
  808888:	10801030 	cmpltui	r2,r2,64
  80888c:	103ff21e 	bne	r2,zero,808858 <__alt_data_end+0xff808858>
                        put_dump(Buff + s1, s1, 16);
                }
                break;
  808890:	00003e06 	br	80898c <main+0x6ac>

            case 'c':          /* Disk ioctl */
                switch (*ptr++) {
  808894:	e0bff317 	ldw	r2,-52(fp)
  808898:	10c00044 	addi	r3,r2,1
  80889c:	e0fff315 	stw	r3,-52(fp)
  8088a0:	10800003 	ldbu	r2,0(r2)
  8088a4:	10803fcc 	andi	r2,r2,255
  8088a8:	1080201c 	xori	r2,r2,128
  8088ac:	10bfe004 	addi	r2,r2,-128
  8088b0:	10c01960 	cmpeqi	r3,r2,101
  8088b4:	1800151e 	bne	r3,zero,80890c <main+0x62c>
  8088b8:	10801ce0 	cmpeqi	r2,r2,115
  8088bc:	1000011e 	bne	r2,zero,8088c4 <main+0x5e4>
                    if (!xatoi(&ptr, &p1) || !xatoi(&ptr, (long *) &blk[0]) || !xatoi(&ptr, (long *) &blk[1]))
                        break;
                    xprintf("rc=%d\n", disk_ioctl((uint8_t) p1, CTRL_ERASE_SECTOR, blk));
                    break;
                }
                break;
  8088c0:	00003106 	br	808988 <main+0x6a8>
                break;

            case 'c':          /* Disk ioctl */
                switch (*ptr++) {
                case 's':      /* dcs <drv> - CTRL_SYNC */
                    if (!xatoi(&ptr, &p1))
  8088c4:	e0fff304 	addi	r3,fp,-52
  8088c8:	e0bff404 	addi	r2,fp,-48
  8088cc:	1809883a 	mov	r4,r3
  8088d0:	100b883a 	mov	r5,r2
  8088d4:	080970c0 	call	80970c <xatoi>
  8088d8:	1000011e 	bne	r2,zero,8088e0 <main+0x600>
                        break;
  8088dc:	00002a06 	br	808988 <main+0x6a8>
                    xprintf("rc=%d\n", disk_ioctl((uint8_t) p1, CTRL_SYNC, 0));
  8088e0:	e0bff417 	ldw	r2,-48(fp)
  8088e4:	10803fcc 	andi	r2,r2,255
  8088e8:	1009883a 	mov	r4,r2
  8088ec:	000b883a 	mov	r5,zero
  8088f0:	000d883a 	mov	r6,zero
  8088f4:	08010740 	call	801074 <ffs_DiskIOIoctl>
  8088f8:	01002074 	movhi	r4,129
  8088fc:	21041c04 	addi	r4,r4,4208
  808900:	100b883a 	mov	r5,r2
  808904:	0809c000 	call	809c00 <xprintf>
                    break;
  808908:	00001f06 	br	808988 <main+0x6a8>
                case 'e':      /* dce <drv> <start> <end> - CTRL_ERASE_SECTOR */
                    if (!xatoi(&ptr, &p1) || !xatoi(&ptr, (long *) &blk[0]) || !xatoi(&ptr, (long *) &blk[1]))
  80890c:	e0fff304 	addi	r3,fp,-52
  808910:	e0bff404 	addi	r2,fp,-48
  808914:	1809883a 	mov	r4,r3
  808918:	100b883a 	mov	r5,r2
  80891c:	080970c0 	call	80970c <xatoi>
  808920:	10001926 	beq	r2,zero,808988 <main+0x6a8>
  808924:	e0fff304 	addi	r3,fp,-52
  808928:	e0bffa04 	addi	r2,fp,-24
  80892c:	1809883a 	mov	r4,r3
  808930:	100b883a 	mov	r5,r2
  808934:	080970c0 	call	80970c <xatoi>
  808938:	10001326 	beq	r2,zero,808988 <main+0x6a8>
  80893c:	e0fff304 	addi	r3,fp,-52
  808940:	e0bffa04 	addi	r2,fp,-24
  808944:	10800104 	addi	r2,r2,4
  808948:	1809883a 	mov	r4,r3
  80894c:	100b883a 	mov	r5,r2
  808950:	080970c0 	call	80970c <xatoi>
  808954:	10000c26 	beq	r2,zero,808988 <main+0x6a8>
                        break;
                    xprintf("rc=%d\n", disk_ioctl((uint8_t) p1, CTRL_ERASE_SECTOR, blk));
  808958:	e0bff417 	ldw	r2,-48(fp)
  80895c:	10c03fcc 	andi	r3,r2,255
  808960:	e0bffa04 	addi	r2,fp,-24
  808964:	1809883a 	mov	r4,r3
  808968:	01400104 	movi	r5,4
  80896c:	100d883a 	mov	r6,r2
  808970:	08010740 	call	801074 <ffs_DiskIOIoctl>
  808974:	01002074 	movhi	r4,129
  808978:	21041c04 	addi	r4,r4,4208
  80897c:	100b883a 	mov	r5,r2
  808980:	0809c000 	call	809c00 <xprintf>
                    break;
  808984:	0001883a 	nop
                }
                break;
  808988:	0001883a 	nop
            }
            break;
  80898c:	00035e06 	br	809708 <main+0x1428>

        case 'b':              /* Buffer controls */
            switch (*ptr++) {
  808990:	e0bff317 	ldw	r2,-52(fp)
  808994:	10c00044 	addi	r3,r2,1
  808998:	e0fff315 	stw	r3,-52(fp)
  80899c:	10800003 	ldbu	r2,0(r2)
  8089a0:	10803fcc 	andi	r2,r2,255
  8089a4:	1080201c 	xori	r2,r2,128
  8089a8:	10bfe004 	addi	r2,r2,-128
  8089ac:	10c01960 	cmpeqi	r3,r2,101
  8089b0:	18002c1e 	bne	r3,zero,808a64 <main+0x784>
  8089b4:	10c01988 	cmpgei	r3,r2,102
  8089b8:	1800031e 	bne	r3,zero,8089c8 <main+0x6e8>
  8089bc:	10801920 	cmpeqi	r2,r2,100
  8089c0:	1000061e 	bne	r2,zero,8089dc <main+0x6fc>
                    break;
                memset(Buff, (uint8_t) p1, sizeof(Buff));
                break;

            }
            break;
  8089c4:	00035006 	br	809708 <main+0x1428>
                break;
            }
            break;

        case 'b':              /* Buffer controls */
            switch (*ptr++) {
  8089c8:	10c019a0 	cmpeqi	r3,r2,102
  8089cc:	1800a41e 	bne	r3,zero,808c60 <main+0x980>
  8089d0:	10801ca0 	cmpeqi	r2,r2,114
  8089d4:	10007b1e 	bne	r2,zero,808bc4 <main+0x8e4>
                    break;
                memset(Buff, (uint8_t) p1, sizeof(Buff));
                break;

            }
            break;
  8089d8:	00034b06 	br	809708 <main+0x1428>
            break;

        case 'b':              /* Buffer controls */
            switch (*ptr++) {
            case 'd':          /* bd <addr> - Dump R/W buffer */
                if (!xatoi(&ptr, &p1))
  8089dc:	e0fff304 	addi	r3,fp,-52
  8089e0:	e0bff404 	addi	r2,fp,-48
  8089e4:	1809883a 	mov	r4,r3
  8089e8:	100b883a 	mov	r5,r2
  8089ec:	080970c0 	call	80970c <xatoi>
  8089f0:	1000011e 	bne	r2,zero,8089f8 <main+0x718>
                    break;
  8089f4:	0000a906 	br	808c9c <main+0x9bc>
                for (ptr = (char *) &Buff[p1], ofs = p1, cnt = 32; cnt; cnt--, ptr += 16, ofs += 16)
  8089f8:	e0fff417 	ldw	r3,-48(fp)
  8089fc:	00802074 	movhi	r2,129
  808a00:	108d0604 	addi	r2,r2,13336
  808a04:	1885883a 	add	r2,r3,r2
  808a08:	e0bff315 	stw	r2,-52(fp)
  808a0c:	e0bff417 	ldw	r2,-48(fp)
  808a10:	e0bfee15 	stw	r2,-72(fp)
  808a14:	00800804 	movi	r2,32
  808a18:	e0bff915 	stw	r2,-28(fp)
  808a1c:	00000e06 	br	808a58 <main+0x778>
                    put_dump((uint8_t *) ptr, ofs, 16);
  808a20:	e0bff317 	ldw	r2,-52(fp)
  808a24:	1009883a 	mov	r4,r2
  808a28:	e17fee17 	ldw	r5,-72(fp)
  808a2c:	01800404 	movi	r6,16
  808a30:	0809eac0 	call	809eac <put_dump>
        case 'b':              /* Buffer controls */
            switch (*ptr++) {
            case 'd':          /* bd <addr> - Dump R/W buffer */
                if (!xatoi(&ptr, &p1))
                    break;
                for (ptr = (char *) &Buff[p1], ofs = p1, cnt = 32; cnt; cnt--, ptr += 16, ofs += 16)
  808a34:	e0bff917 	ldw	r2,-28(fp)
  808a38:	10bfffc4 	addi	r2,r2,-1
  808a3c:	e0bff915 	stw	r2,-28(fp)
  808a40:	e0bff317 	ldw	r2,-52(fp)
  808a44:	10800404 	addi	r2,r2,16
  808a48:	e0bff315 	stw	r2,-52(fp)
  808a4c:	e0bfee17 	ldw	r2,-72(fp)
  808a50:	10800404 	addi	r2,r2,16
  808a54:	e0bfee15 	stw	r2,-72(fp)
  808a58:	e0bff917 	ldw	r2,-28(fp)
  808a5c:	103ff01e 	bne	r2,zero,808a20 <__alt_data_end+0xff808a20>
                    put_dump((uint8_t *) ptr, ofs, 16);
                break;
  808a60:	00008e06 	br	808c9c <main+0x9bc>

            case 'e':          /* be <addr> [<data>] ... - Edit R/W buffer */
                if (!xatoi(&ptr, &p1))
  808a64:	e0fff304 	addi	r3,fp,-52
  808a68:	e0bff404 	addi	r2,fp,-48
  808a6c:	1809883a 	mov	r4,r3
  808a70:	100b883a 	mov	r5,r2
  808a74:	080970c0 	call	80970c <xatoi>
  808a78:	1000011e 	bne	r2,zero,808a80 <main+0x7a0>
                    break;
  808a7c:	00008706 	br	808c9c <main+0x9bc>
                if (xatoi(&ptr, &p2)) {
  808a80:	e0fff304 	addi	r3,fp,-52
  808a84:	e0bff504 	addi	r2,fp,-44
  808a88:	1809883a 	mov	r4,r3
  808a8c:	100b883a 	mov	r5,r2
  808a90:	080970c0 	call	80970c <xatoi>
  808a94:	10001026 	beq	r2,zero,808ad8 <main+0x7f8>
                    do {
                        Buff[p1++] = (uint8_t) p2;
  808a98:	e0fff417 	ldw	r3,-48(fp)
  808a9c:	18800044 	addi	r2,r3,1
  808aa0:	e0bff415 	stw	r2,-48(fp)
  808aa4:	e0bff517 	ldw	r2,-44(fp)
  808aa8:	1009883a 	mov	r4,r2
  808aac:	00802074 	movhi	r2,129
  808ab0:	108d0604 	addi	r2,r2,13336
  808ab4:	10c5883a 	add	r2,r2,r3
  808ab8:	11000005 	stb	r4,0(r2)
                    } while (xatoi(&ptr, &p2));
  808abc:	e0fff304 	addi	r3,fp,-52
  808ac0:	e0bff504 	addi	r2,fp,-44
  808ac4:	1809883a 	mov	r4,r3
  808ac8:	100b883a 	mov	r5,r2
  808acc:	080970c0 	call	80970c <xatoi>
  808ad0:	103ff11e 	bne	r2,zero,808a98 <__alt_data_end+0xff808a98>
                    break;
  808ad4:	00007106 	br	808c9c <main+0x9bc>
                }
                for (;;) {
                    xprintf("%04X %02X-", (uint16_t) (p1), (uint16_t) Buff[p1]);
  808ad8:	e0bff417 	ldw	r2,-48(fp)
  808adc:	117fffcc 	andi	r5,r2,65535
  808ae0:	e0fff417 	ldw	r3,-48(fp)
  808ae4:	00802074 	movhi	r2,129
  808ae8:	108d0604 	addi	r2,r2,13336
  808aec:	10c5883a 	add	r2,r2,r3
  808af0:	10800003 	ldbu	r2,0(r2)
  808af4:	10803fcc 	andi	r2,r2,255
  808af8:	01002074 	movhi	r4,129
  808afc:	21044404 	addi	r4,r4,4368
  808b00:	100d883a 	mov	r6,r2
  808b04:	0809c000 	call	809c00 <xprintf>
                    get_line(Line, sizeof(Line));
  808b08:	01002074 	movhi	r4,129
  808b0c:	21159604 	addi	r4,r4,22104
  808b10:	01404004 	movi	r5,256
  808b14:	0809fc80 	call	809fc8 <get_line>
                    ptr = Line;
  808b18:	00802074 	movhi	r2,129
  808b1c:	10959604 	addi	r2,r2,22104
  808b20:	e0bff315 	stw	r2,-52(fp)
                    if (*ptr == '.')
  808b24:	e0bff317 	ldw	r2,-52(fp)
  808b28:	10800003 	ldbu	r2,0(r2)
  808b2c:	10803fcc 	andi	r2,r2,255
  808b30:	1080201c 	xori	r2,r2,128
  808b34:	10bfe004 	addi	r2,r2,-128
  808b38:	10800b98 	cmpnei	r2,r2,46
  808b3c:	1000021e 	bne	r2,zero,808b48 <main+0x868>
                        break;
  808b40:	0001883a 	nop
                    if (xatoi(&ptr, &p2))
                        Buff[p1++] = (uint8_t) p2;
                    else
                        xputs("???\n");
                }
                break;
  808b44:	00005506 	br	808c9c <main+0x9bc>
                    xprintf("%04X %02X-", (uint16_t) (p1), (uint16_t) Buff[p1]);
                    get_line(Line, sizeof(Line));
                    ptr = Line;
                    if (*ptr == '.')
                        break;
                    if (*ptr < ' ') {
  808b48:	e0bff317 	ldw	r2,-52(fp)
  808b4c:	10800003 	ldbu	r2,0(r2)
  808b50:	10803fcc 	andi	r2,r2,255
  808b54:	1080201c 	xori	r2,r2,128
  808b58:	10bfe004 	addi	r2,r2,-128
  808b5c:	10800808 	cmpgei	r2,r2,32
  808b60:	1000041e 	bne	r2,zero,808b74 <main+0x894>
                        p1++;
  808b64:	e0bff417 	ldw	r2,-48(fp)
  808b68:	10800044 	addi	r2,r2,1
  808b6c:	e0bff415 	stw	r2,-48(fp)
                        continue;
  808b70:	00001306 	br	808bc0 <main+0x8e0>
                    }
                    if (xatoi(&ptr, &p2))
  808b74:	e0fff304 	addi	r3,fp,-52
  808b78:	e0bff504 	addi	r2,fp,-44
  808b7c:	1809883a 	mov	r4,r3
  808b80:	100b883a 	mov	r5,r2
  808b84:	080970c0 	call	80970c <xatoi>
  808b88:	10000a26 	beq	r2,zero,808bb4 <main+0x8d4>
                        Buff[p1++] = (uint8_t) p2;
  808b8c:	e0fff417 	ldw	r3,-48(fp)
  808b90:	18800044 	addi	r2,r3,1
  808b94:	e0bff415 	stw	r2,-48(fp)
  808b98:	e0bff517 	ldw	r2,-44(fp)
  808b9c:	1009883a 	mov	r4,r2
  808ba0:	00802074 	movhi	r2,129
  808ba4:	108d0604 	addi	r2,r2,13336
  808ba8:	10c5883a 	add	r2,r2,r3
  808bac:	11000005 	stb	r4,0(r2)
  808bb0:	00000306 	br	808bc0 <main+0x8e0>
                    else
                        xputs("???\n");
  808bb4:	01002074 	movhi	r4,129
  808bb8:	21044704 	addi	r4,r4,4380
  808bbc:	08099e00 	call	8099e0 <xputs>
                }
  808bc0:	003fc506 	br	808ad8 <__alt_data_end+0xff808ad8>
                break;

            case 'r':          /* br <drv> <lba> [<num>] - Read disk into R/W buffer */
                if (!xatoi(&ptr, &p1))
  808bc4:	e0fff304 	addi	r3,fp,-52
  808bc8:	e0bff404 	addi	r2,fp,-48
  808bcc:	1809883a 	mov	r4,r3
  808bd0:	100b883a 	mov	r5,r2
  808bd4:	080970c0 	call	80970c <xatoi>
  808bd8:	1000011e 	bne	r2,zero,808be0 <main+0x900>
                    break;
  808bdc:	00002f06 	br	808c9c <main+0x9bc>
                if (!xatoi(&ptr, &p2))
  808be0:	e0fff304 	addi	r3,fp,-52
  808be4:	e0bff504 	addi	r2,fp,-44
  808be8:	1809883a 	mov	r4,r3
  808bec:	100b883a 	mov	r5,r2
  808bf0:	080970c0 	call	80970c <xatoi>
  808bf4:	1000011e 	bne	r2,zero,808bfc <main+0x91c>
                    break;
  808bf8:	00002806 	br	808c9c <main+0x9bc>
                if (!xatoi(&ptr, &p3))
  808bfc:	e0fff304 	addi	r3,fp,-52
  808c00:	e0bff604 	addi	r2,fp,-40
  808c04:	1809883a 	mov	r4,r3
  808c08:	100b883a 	mov	r5,r2
  808c0c:	080970c0 	call	80970c <xatoi>
  808c10:	1000021e 	bne	r2,zero,808c1c <main+0x93c>
                    p3 = 1;
  808c14:	00800044 	movi	r2,1
  808c18:	e0bff615 	stw	r2,-40(fp)
                xprintf("rc=%u\n", (uint16_t) disk_read((uint8_t) p1, Buff, p2, p3));
  808c1c:	e0bff417 	ldw	r2,-48(fp)
  808c20:	10c03fcc 	andi	r3,r2,255
  808c24:	e0bff517 	ldw	r2,-44(fp)
  808c28:	100d883a 	mov	r6,r2
  808c2c:	e0bff617 	ldw	r2,-40(fp)
  808c30:	10803fcc 	andi	r2,r2,255
  808c34:	1809883a 	mov	r4,r3
  808c38:	01402074 	movhi	r5,129
  808c3c:	294d0604 	addi	r5,r5,13336
  808c40:	100f883a 	mov	r7,r2
  808c44:	0800dec0 	call	800dec <ffs_DiskIORead>
  808c48:	10bfffcc 	andi	r2,r2,65535
  808c4c:	01002074 	movhi	r4,129
  808c50:	21044904 	addi	r4,r4,4388
  808c54:	100b883a 	mov	r5,r2
  808c58:	0809c000 	call	809c00 <xprintf>
                break;
  808c5c:	00000f06 	br	808c9c <main+0x9bc>

            case 'f':          /* bf <val> - Fill working buffer */
                if (!xatoi(&ptr, &p1))
  808c60:	e0fff304 	addi	r3,fp,-52
  808c64:	e0bff404 	addi	r2,fp,-48
  808c68:	1809883a 	mov	r4,r3
  808c6c:	100b883a 	mov	r5,r2
  808c70:	080970c0 	call	80970c <xatoi>
  808c74:	1000011e 	bne	r2,zero,808c7c <main+0x99c>
                    break;
  808c78:	00000806 	br	808c9c <main+0x9bc>
                memset(Buff, (uint8_t) p1, sizeof(Buff));
  808c7c:	e0bff417 	ldw	r2,-48(fp)
  808c80:	10803fcc 	andi	r2,r2,255
  808c84:	01002074 	movhi	r4,129
  808c88:	210d0604 	addi	r4,r4,13336
  808c8c:	100b883a 	mov	r5,r2
  808c90:	01880004 	movi	r6,8192
  808c94:	080b2bc0 	call	80b2bc <memset>
                break;
  808c98:	0001883a 	nop

            }
            break;
  808c9c:	00029a06 	br	809708 <main+0x1428>

        case 'f':              /* FatFS API controls */
            switch (*ptr++) {
  808ca0:	e0bff317 	ldw	r2,-52(fp)
  808ca4:	10c00044 	addi	r3,r2,1
  808ca8:	e0fff315 	stw	r3,-52(fp)
  808cac:	10800003 	ldbu	r2,0(r2)
  808cb0:	10803fcc 	andi	r2,r2,255
  808cb4:	1080201c 	xori	r2,r2,128
  808cb8:	10bfe004 	addi	r2,r2,-128
  808cbc:	10bfe744 	addi	r2,r2,-99
  808cc0:	10c00628 	cmpgeui	r3,r2,24
  808cc4:	18028f1e 	bne	r3,zero,809704 <main+0x1424>
  808cc8:	100690ba 	slli	r3,r2,2
  808ccc:	00802074 	movhi	r2,129
  808cd0:	10a33804 	addi	r2,r2,-29472
  808cd4:	1885883a 	add	r2,r3,r2
  808cd8:	10800017 	ldw	r2,0(r2)
  808cdc:	1000683a 	jmp	r2
  808ce0:	00809274 	movhi	r2,585
  808ce4:	00809308 	cmpgei	r2,zero,588
  808ce8:	0080928c 	andi	r2,zero,586
  808cec:	00809704 	movi	r2,604
  808cf0:	00809704 	movi	r2,604
  808cf4:	00809704 	movi	r2,604
  808cf8:	00808d40 	call	808d4 <__reset-0x77f72c>
  808cfc:	00809704 	movi	r2,604
  808d00:	00809704 	movi	r2,604
  808d04:	00808f1c 	xori	r2,zero,572
  808d08:	00809704 	movi	r2,604
  808d0c:	00809704 	movi	r2,604
  808d10:	00809200 	call	80920 <__reset-0x77f6e0>
  808d14:	008093e4 	muli	r2,zero,591
  808d18:	00809704 	movi	r2,604
  808d1c:	00809468 	cmpgeui	r2,zero,593
  808d20:	00808d8c 	andi	r2,zero,566
  808d24:	00809580 	call	80958 <__reset-0x77f6a8>
  808d28:	00809704 	movi	r2,604
  808d2c:	00809704 	movi	r2,604
  808d30:	00809704 	movi	r2,604
  808d34:	00809704 	movi	r2,604
  808d38:	00809704 	movi	r2,604
  808d3c:	008096b0 	cmpltui	r2,zero,602

            case 'i':          /* fi <vol> - Force initialized the logical drive */
                if (!xatoi(&ptr, &p1))
  808d40:	e0fff304 	addi	r3,fp,-52
  808d44:	e0bff404 	addi	r2,fp,-48
  808d48:	1809883a 	mov	r4,r3
  808d4c:	100b883a 	mov	r5,r2
  808d50:	080970c0 	call	80970c <xatoi>
  808d54:	1000011e 	bne	r2,zero,808d5c <main+0xa7c>
                    break;
  808d58:	00026706 	br	8096f8 <main+0x1418>
                put_rc(f_mount((uint8_t) p1, &Fatfs[p1]));
  808d5c:	e0bff417 	ldw	r2,-48(fp)
  808d60:	11003fcc 	andi	r4,r2,255
  808d64:	e0bff417 	ldw	r2,-48(fp)
  808d68:	10c08c24 	muli	r3,r2,560
  808d6c:	00802074 	movhi	r2,129
  808d70:	108beb04 	addi	r2,r2,12204
  808d74:	1885883a 	add	r2,r3,r2
  808d78:	100b883a 	mov	r5,r2
  808d7c:	0803e8c0 	call	803e8c <f_mount>
  808d80:	1009883a 	mov	r4,r2
  808d84:	08081ec0 	call	8081ec <put_rc>
                break;
  808d88:	00025b06 	br	8096f8 <main+0x1418>

            case 's':          /* fs [<path>] - Show volume status */
                res = f_getfree(ptr, (uint32_t *) & p2, &fs);
  808d8c:	e13ff317 	ldw	r4,-52(fp)
  808d90:	e0fff504 	addi	r3,fp,-44
  808d94:	e0bffc04 	addi	r2,fp,-16
  808d98:	180b883a 	mov	r5,r3
  808d9c:	100d883a 	mov	r6,r2
  808da0:	08058b40 	call	8058b4 <f_getfree>
  808da4:	e0bff105 	stb	r2,-60(fp)
                if (res) {
  808da8:	e0bff103 	ldbu	r2,-60(fp)
  808dac:	10000426 	beq	r2,zero,808dc0 <main+0xae0>
                    put_rc(res);
  808db0:	e0bff103 	ldbu	r2,-60(fp)
  808db4:	1009883a 	mov	r4,r2
  808db8:	08081ec0 	call	8081ec <put_rc>
                    break;
  808dbc:	00024e06 	br	8096f8 <main+0x1418>
                }
                xprintf("FAT type = FAT%u\nBytes/Cluster = %lu\nNumber of FATs = %u\n"
                        "Root DIR entries = %u\nSectors/FAT = %lu\nNumber of clusters = %lu\n"
                        "FAT start (lba) = %lu\nDIR start (lba,clustor) = %lu\nData start (lba) = %lu\n\n...",
                        ft[fs->fs_type & 3], (uint32_t) fs->csize * 512, fs->n_fats,
  808dc0:	e0bffc17 	ldw	r2,-16(fp)
  808dc4:	10800003 	ldbu	r2,0(r2)
  808dc8:	10803fcc 	andi	r2,r2,255
  808dcc:	10c000cc 	andi	r3,r2,3
  808dd0:	d0a00044 	addi	r2,gp,-32767
  808dd4:	1885883a 	add	r2,r3,r2
  808dd8:	10800003 	ldbu	r2,0(r2)
                res = f_getfree(ptr, (uint32_t *) & p2, &fs);
                if (res) {
                    put_rc(res);
                    break;
                }
                xprintf("FAT type = FAT%u\nBytes/Cluster = %lu\nNumber of FATs = %u\n"
  808ddc:	12803fcc 	andi	r10,r2,255
                        "Root DIR entries = %u\nSectors/FAT = %lu\nNumber of clusters = %lu\n"
                        "FAT start (lba) = %lu\nDIR start (lba,clustor) = %lu\nData start (lba) = %lu\n\n...",
                        ft[fs->fs_type & 3], (uint32_t) fs->csize * 512, fs->n_fats,
  808de0:	e0bffc17 	ldw	r2,-16(fp)
  808de4:	10800083 	ldbu	r2,2(r2)
  808de8:	10803fcc 	andi	r2,r2,255
                res = f_getfree(ptr, (uint32_t *) & p2, &fs);
                if (res) {
                    put_rc(res);
                    break;
                }
                xprintf("FAT type = FAT%u\nBytes/Cluster = %lu\nNumber of FATs = %u\n"
  808dec:	1012927a 	slli	r9,r2,9
                        "Root DIR entries = %u\nSectors/FAT = %lu\nNumber of clusters = %lu\n"
                        "FAT start (lba) = %lu\nDIR start (lba,clustor) = %lu\nData start (lba) = %lu\n\n...",
                        ft[fs->fs_type & 3], (uint32_t) fs->csize * 512, fs->n_fats,
  808df0:	e0bffc17 	ldw	r2,-16(fp)
  808df4:	108000c3 	ldbu	r2,3(r2)
                res = f_getfree(ptr, (uint32_t *) & p2, &fs);
                if (res) {
                    put_rc(res);
                    break;
                }
                xprintf("FAT type = FAT%u\nBytes/Cluster = %lu\nNumber of FATs = %u\n"
  808df8:	12003fcc 	andi	r8,r2,255
                        "Root DIR entries = %u\nSectors/FAT = %lu\nNumber of clusters = %lu\n"
                        "FAT start (lba) = %lu\nDIR start (lba,clustor) = %lu\nData start (lba) = %lu\n\n...",
                        ft[fs->fs_type & 3], (uint32_t) fs->csize * 512, fs->n_fats,
                        fs->n_rootdir, fs->fsize, (uint32_t) fs->n_fatent - 2, fs->fatbase, fs->dirbase, fs->database);
  808dfc:	e0bffc17 	ldw	r2,-16(fp)
  808e00:	1080020b 	ldhu	r2,8(r2)
                res = f_getfree(ptr, (uint32_t *) & p2, &fs);
                if (res) {
                    put_rc(res);
                    break;
                }
                xprintf("FAT type = FAT%u\nBytes/Cluster = %lu\nNumber of FATs = %u\n"
  808e04:	11ffffcc 	andi	r7,r2,65535
                        "Root DIR entries = %u\nSectors/FAT = %lu\nNumber of clusters = %lu\n"
                        "FAT start (lba) = %lu\nDIR start (lba,clustor) = %lu\nData start (lba) = %lu\n\n...",
                        ft[fs->fs_type & 3], (uint32_t) fs->csize * 512, fs->n_fats,
                        fs->n_rootdir, fs->fsize, (uint32_t) fs->n_fatent - 2, fs->fatbase, fs->dirbase, fs->database);
  808e08:	e0bffc17 	ldw	r2,-16(fp)
                res = f_getfree(ptr, (uint32_t *) & p2, &fs);
                if (res) {
                    put_rc(res);
                    break;
                }
                xprintf("FAT type = FAT%u\nBytes/Cluster = %lu\nNumber of FATs = %u\n"
  808e0c:	11800717 	ldw	r6,28(r2)
                        "Root DIR entries = %u\nSectors/FAT = %lu\nNumber of clusters = %lu\n"
                        "FAT start (lba) = %lu\nDIR start (lba,clustor) = %lu\nData start (lba) = %lu\n\n...",
                        ft[fs->fs_type & 3], (uint32_t) fs->csize * 512, fs->n_fats,
                        fs->n_rootdir, fs->fsize, (uint32_t) fs->n_fatent - 2, fs->fatbase, fs->dirbase, fs->database);
  808e10:	e0bffc17 	ldw	r2,-16(fp)
  808e14:	10800617 	ldw	r2,24(r2)
                res = f_getfree(ptr, (uint32_t *) & p2, &fs);
                if (res) {
                    put_rc(res);
                    break;
                }
                xprintf("FAT type = FAT%u\nBytes/Cluster = %lu\nNumber of FATs = %u\n"
  808e18:	117fff84 	addi	r5,r2,-2
                        "Root DIR entries = %u\nSectors/FAT = %lu\nNumber of clusters = %lu\n"
                        "FAT start (lba) = %lu\nDIR start (lba,clustor) = %lu\nData start (lba) = %lu\n\n...",
                        ft[fs->fs_type & 3], (uint32_t) fs->csize * 512, fs->n_fats,
                        fs->n_rootdir, fs->fsize, (uint32_t) fs->n_fatent - 2, fs->fatbase, fs->dirbase, fs->database);
  808e1c:	e0bffc17 	ldw	r2,-16(fp)
                res = f_getfree(ptr, (uint32_t *) & p2, &fs);
                if (res) {
                    put_rc(res);
                    break;
                }
                xprintf("FAT type = FAT%u\nBytes/Cluster = %lu\nNumber of FATs = %u\n"
  808e20:	11000817 	ldw	r4,32(r2)
                        "Root DIR entries = %u\nSectors/FAT = %lu\nNumber of clusters = %lu\n"
                        "FAT start (lba) = %lu\nDIR start (lba,clustor) = %lu\nData start (lba) = %lu\n\n...",
                        ft[fs->fs_type & 3], (uint32_t) fs->csize * 512, fs->n_fats,
                        fs->n_rootdir, fs->fsize, (uint32_t) fs->n_fatent - 2, fs->fatbase, fs->dirbase, fs->database);
  808e24:	e0bffc17 	ldw	r2,-16(fp)
                res = f_getfree(ptr, (uint32_t *) & p2, &fs);
                if (res) {
                    put_rc(res);
                    break;
                }
                xprintf("FAT type = FAT%u\nBytes/Cluster = %lu\nNumber of FATs = %u\n"
  808e28:	10c00917 	ldw	r3,36(r2)
                        "Root DIR entries = %u\nSectors/FAT = %lu\nNumber of clusters = %lu\n"
                        "FAT start (lba) = %lu\nDIR start (lba,clustor) = %lu\nData start (lba) = %lu\n\n...",
                        ft[fs->fs_type & 3], (uint32_t) fs->csize * 512, fs->n_fats,
                        fs->n_rootdir, fs->fsize, (uint32_t) fs->n_fatent - 2, fs->fatbase, fs->dirbase, fs->database);
  808e2c:	e0bffc17 	ldw	r2,-16(fp)
                res = f_getfree(ptr, (uint32_t *) & p2, &fs);
                if (res) {
                    put_rc(res);
                    break;
                }
                xprintf("FAT type = FAT%u\nBytes/Cluster = %lu\nNumber of FATs = %u\n"
  808e30:	10800a17 	ldw	r2,40(r2)
  808e34:	d9c00015 	stw	r7,0(sp)
  808e38:	d9800115 	stw	r6,4(sp)
  808e3c:	d9400215 	stw	r5,8(sp)
  808e40:	d9000315 	stw	r4,12(sp)
  808e44:	d8c00415 	stw	r3,16(sp)
  808e48:	d8800515 	stw	r2,20(sp)
  808e4c:	01002074 	movhi	r4,129
  808e50:	21044b04 	addi	r4,r4,4396
  808e54:	500b883a 	mov	r5,r10
  808e58:	480d883a 	mov	r6,r9
  808e5c:	400f883a 	mov	r7,r8
  808e60:	0809c000 	call	809c00 <xprintf>
                        "Root DIR entries = %u\nSectors/FAT = %lu\nNumber of clusters = %lu\n"
                        "FAT start (lba) = %lu\nDIR start (lba,clustor) = %lu\nData start (lba) = %lu\n\n...",
                        ft[fs->fs_type & 3], (uint32_t) fs->csize * 512, fs->n_fats,
                        fs->n_rootdir, fs->fsize, (uint32_t) fs->n_fatent - 2, fs->fatbase, fs->dirbase, fs->database);
                acc_size = acc_files = acc_dirs = 0;
  808e64:	d0233d0d 	sth	zero,-29452(gp)
  808e68:	d0a33d0b 	ldhu	r2,-29452(gp)
  808e6c:	d0a33d8d 	sth	r2,-29450(gp)
  808e70:	d0a33d8b 	ldhu	r2,-29450(gp)
  808e74:	10bfffcc 	andi	r2,r2,65535
  808e78:	d0a33e15 	stw	r2,-29448(gp)
                res = scan_files(ptr);
  808e7c:	e0bff317 	ldw	r2,-52(fp)
  808e80:	1009883a 	mov	r4,r2
  808e84:	08080ac0 	call	8080ac <scan_files>
  808e88:	e0bff105 	stb	r2,-60(fp)
                if (res) {
  808e8c:	e0bff103 	ldbu	r2,-60(fp)
  808e90:	10000426 	beq	r2,zero,808ea4 <main+0xbc4>
                    put_rc(res);
  808e94:	e0bff103 	ldbu	r2,-60(fp)
  808e98:	1009883a 	mov	r4,r2
  808e9c:	08081ec0 	call	8081ec <put_rc>
                    break;
  808ea0:	00021506 	br	8096f8 <main+0x1418>
                }
                xprintf("\r%u files, %lu bytes.\n%u folders.\n"
  808ea4:	d0a33d8b 	ldhu	r2,-29450(gp)
  808ea8:	117fffcc 	andi	r5,r2,65535
  808eac:	d1a33e17 	ldw	r6,-29448(gp)
  808eb0:	d0a33d0b 	ldhu	r2,-29452(gp)
  808eb4:	11ffffcc 	andi	r7,r2,65535
                        "%lu KB total disk space.\n%lu KB available.\n",
                        acc_files, acc_size, acc_dirs, (fs->n_fatent - 2) * (fs->csize / 2), p2 * (fs->csize / 2)
  808eb8:	e0bffc17 	ldw	r2,-16(fp)
  808ebc:	10800617 	ldw	r2,24(r2)
  808ec0:	10ffff84 	addi	r3,r2,-2
  808ec4:	e0bffc17 	ldw	r2,-16(fp)
  808ec8:	10800083 	ldbu	r2,2(r2)
                res = scan_files(ptr);
                if (res) {
                    put_rc(res);
                    break;
                }
                xprintf("\r%u files, %lu bytes.\n%u folders.\n"
  808ecc:	10803fcc 	andi	r2,r2,255
  808ed0:	1004d07a 	srli	r2,r2,1
  808ed4:	10803fcc 	andi	r2,r2,255
  808ed8:	1887383a 	mul	r3,r3,r2
                        "%lu KB total disk space.\n%lu KB available.\n",
                        acc_files, acc_size, acc_dirs, (fs->n_fatent - 2) * (fs->csize / 2), p2 * (fs->csize / 2)
  808edc:	e0bffc17 	ldw	r2,-16(fp)
  808ee0:	10800083 	ldbu	r2,2(r2)
                res = scan_files(ptr);
                if (res) {
                    put_rc(res);
                    break;
                }
                xprintf("\r%u files, %lu bytes.\n%u folders.\n"
  808ee4:	10803fcc 	andi	r2,r2,255
  808ee8:	1004d07a 	srli	r2,r2,1
  808eec:	11003fcc 	andi	r4,r2,255
  808ef0:	e0bff517 	ldw	r2,-44(fp)
  808ef4:	2085383a 	mul	r2,r4,r2
  808ef8:	d8c00015 	stw	r3,0(sp)
  808efc:	d8800115 	stw	r2,4(sp)
  808f00:	01002074 	movhi	r4,129
  808f04:	21047e04 	addi	r4,r4,4600
  808f08:	0809c000 	call	809c00 <xprintf>
                        "%lu KB total disk space.\n%lu KB available.\n",
                        acc_files, acc_size, acc_dirs, (fs->n_fatent - 2) * (fs->csize / 2), p2 * (fs->csize / 2)
                    );
                break;
  808f0c:	0001fa06 	br	8096f8 <main+0x1418>

            case 'l':          /* fl [<path>] - Directory listing */
                while (*ptr == ' ')
                    ptr++;
  808f10:	e0bff317 	ldw	r2,-52(fp)
  808f14:	10800044 	addi	r2,r2,1
  808f18:	e0bff315 	stw	r2,-52(fp)
                        acc_files, acc_size, acc_dirs, (fs->n_fatent - 2) * (fs->csize / 2), p2 * (fs->csize / 2)
                    );
                break;

            case 'l':          /* fl [<path>] - Directory listing */
                while (*ptr == ' ')
  808f1c:	e0bff317 	ldw	r2,-52(fp)
  808f20:	10800003 	ldbu	r2,0(r2)
  808f24:	10803fcc 	andi	r2,r2,255
  808f28:	1080201c 	xori	r2,r2,128
  808f2c:	10bfe004 	addi	r2,r2,-128
  808f30:	10800820 	cmpeqi	r2,r2,32
  808f34:	103ff61e 	bne	r2,zero,808f10 <__alt_data_end+0xff808f10>
                    ptr++;
                res = f_opendir(&Dir, ptr);
  808f38:	e0bff317 	ldw	r2,-52(fp)
  808f3c:	01002074 	movhi	r4,129
  808f40:	21158f04 	addi	r4,r4,22076
  808f44:	100b883a 	mov	r5,r2
  808f48:	08055c00 	call	8055c0 <f_opendir>
  808f4c:	e0bff105 	stb	r2,-60(fp)
                if (res) {
  808f50:	e0bff103 	ldbu	r2,-60(fp)
  808f54:	10000426 	beq	r2,zero,808f68 <main+0xc88>
                    put_rc(res);
  808f58:	e0bff103 	ldbu	r2,-60(fp)
  808f5c:	1009883a 	mov	r4,r2
  808f60:	08081ec0 	call	8081ec <put_rc>
                    break;
  808f64:	0001e406 	br	8096f8 <main+0x1418>
                }
                p1 = s1 = s2 = 0;
  808f68:	e03ff815 	stw	zero,-32(fp)
  808f6c:	e0bff817 	ldw	r2,-32(fp)
  808f70:	e0bfec15 	stw	r2,-80(fp)
  808f74:	e0bfec17 	ldw	r2,-80(fp)
  808f78:	e0bff415 	stw	r2,-48(fp)
                for (;;) {
                    res = f_readdir(&Dir, &Finfo);
  808f7c:	01002074 	movhi	r4,129
  808f80:	21158f04 	addi	r4,r4,22076
  808f84:	01402074 	movhi	r5,129
  808f88:	294d0004 	addi	r5,r5,13312
  808f8c:	08057300 	call	805730 <f_readdir>
  808f90:	e0bff105 	stb	r2,-60(fp)
                    if ((res != FR_OK) || !Finfo.fname[0])
  808f94:	e0bff103 	ldbu	r2,-60(fp)
  808f98:	1000791e 	bne	r2,zero,809180 <main+0xea0>
  808f9c:	00802074 	movhi	r2,129
  808fa0:	108d0004 	addi	r2,r2,13312
  808fa4:	10800243 	ldbu	r2,9(r2)
  808fa8:	10803fcc 	andi	r2,r2,255
  808fac:	1080201c 	xori	r2,r2,128
  808fb0:	10bfe004 	addi	r2,r2,-128
  808fb4:	10007226 	beq	r2,zero,809180 <main+0xea0>
                        break;
                    if (Finfo.fattrib & AM_DIR) {
  808fb8:	00802074 	movhi	r2,129
  808fbc:	108d0004 	addi	r2,r2,13312
  808fc0:	10800203 	ldbu	r2,8(r2)
  808fc4:	10803fcc 	andi	r2,r2,255
  808fc8:	1080040c 	andi	r2,r2,16
  808fcc:	10000426 	beq	r2,zero,808fe0 <main+0xd00>
                        s2++;
  808fd0:	e0bff817 	ldw	r2,-32(fp)
  808fd4:	10800044 	addi	r2,r2,1
  808fd8:	e0bff815 	stw	r2,-32(fp)
  808fdc:	00000906 	br	809004 <main+0xd24>
                    } else {
                        s1++;
  808fe0:	e0bfec17 	ldw	r2,-80(fp)
  808fe4:	10800044 	addi	r2,r2,1
  808fe8:	e0bfec15 	stw	r2,-80(fp)
                        p1 += Finfo.fsize;
  808fec:	00802074 	movhi	r2,129
  808ff0:	108d0004 	addi	r2,r2,13312
  808ff4:	10800017 	ldw	r2,0(r2)
  808ff8:	e0fff417 	ldw	r3,-48(fp)
  808ffc:	10c5883a 	add	r2,r2,r3
  809000:	e0bff415 	stw	r2,-48(fp)
                    }
                    xprintf("%c%c%c%c%c %u/%02u/%02u %02u:%02u %9lu  %s",
                            (Finfo.fattrib & AM_DIR) ? 'D' : '-',
  809004:	00802074 	movhi	r2,129
  809008:	108d0004 	addi	r2,r2,13312
  80900c:	10800203 	ldbu	r2,8(r2)
  809010:	10803fcc 	andi	r2,r2,255
  809014:	1080040c 	andi	r2,r2,16
                        s2++;
                    } else {
                        s1++;
                        p1 += Finfo.fsize;
                    }
                    xprintf("%c%c%c%c%c %u/%02u/%02u %02u:%02u %9lu  %s",
  809018:	10000226 	beq	r2,zero,809024 <main+0xd44>
  80901c:	01401104 	movi	r5,68
  809020:	00000106 	br	809028 <main+0xd48>
  809024:	01400b44 	movi	r5,45
                            (Finfo.fattrib & AM_DIR) ? 'D' : '-',
                            (Finfo.fattrib & AM_RDO) ? 'R' : '-',
  809028:	00802074 	movhi	r2,129
  80902c:	108d0004 	addi	r2,r2,13312
  809030:	10800203 	ldbu	r2,8(r2)
  809034:	10803fcc 	andi	r2,r2,255
  809038:	1080004c 	andi	r2,r2,1
                        s2++;
                    } else {
                        s1++;
                        p1 += Finfo.fsize;
                    }
                    xprintf("%c%c%c%c%c %u/%02u/%02u %02u:%02u %9lu  %s",
  80903c:	10000226 	beq	r2,zero,809048 <main+0xd68>
  809040:	01801484 	movi	r6,82
  809044:	00000106 	br	80904c <main+0xd6c>
  809048:	01800b44 	movi	r6,45
                            (Finfo.fattrib & AM_DIR) ? 'D' : '-',
                            (Finfo.fattrib & AM_RDO) ? 'R' : '-',
                            (Finfo.fattrib & AM_HID) ? 'H' : '-',
  80904c:	00802074 	movhi	r2,129
  809050:	108d0004 	addi	r2,r2,13312
  809054:	10800203 	ldbu	r2,8(r2)
  809058:	10803fcc 	andi	r2,r2,255
  80905c:	1080008c 	andi	r2,r2,2
                        s2++;
                    } else {
                        s1++;
                        p1 += Finfo.fsize;
                    }
                    xprintf("%c%c%c%c%c %u/%02u/%02u %02u:%02u %9lu  %s",
  809060:	10000226 	beq	r2,zero,80906c <main+0xd8c>
  809064:	01c01204 	movi	r7,72
  809068:	00000106 	br	809070 <main+0xd90>
  80906c:	01c00b44 	movi	r7,45
                            (Finfo.fattrib & AM_DIR) ? 'D' : '-',
                            (Finfo.fattrib & AM_RDO) ? 'R' : '-',
                            (Finfo.fattrib & AM_HID) ? 'H' : '-',
                            (Finfo.fattrib & AM_SYS) ? 'S' : '-',
  809070:	00802074 	movhi	r2,129
  809074:	108d0004 	addi	r2,r2,13312
  809078:	10800203 	ldbu	r2,8(r2)
  80907c:	10803fcc 	andi	r2,r2,255
  809080:	1080010c 	andi	r2,r2,4
                        s2++;
                    } else {
                        s1++;
                        p1 += Finfo.fsize;
                    }
                    xprintf("%c%c%c%c%c %u/%02u/%02u %02u:%02u %9lu  %s",
  809084:	10000226 	beq	r2,zero,809090 <main+0xdb0>
  809088:	010014c4 	movi	r4,83
  80908c:	00000106 	br	809094 <main+0xdb4>
  809090:	01000b44 	movi	r4,45
                            (Finfo.fattrib & AM_DIR) ? 'D' : '-',
                            (Finfo.fattrib & AM_RDO) ? 'R' : '-',
                            (Finfo.fattrib & AM_HID) ? 'H' : '-',
                            (Finfo.fattrib & AM_SYS) ? 'S' : '-',
                            (Finfo.fattrib & AM_ARC) ? 'A' : '-',
  809094:	00802074 	movhi	r2,129
  809098:	108d0004 	addi	r2,r2,13312
  80909c:	10800203 	ldbu	r2,8(r2)
  8090a0:	10803fcc 	andi	r2,r2,255
  8090a4:	1080080c 	andi	r2,r2,32
                        s2++;
                    } else {
                        s1++;
                        p1 += Finfo.fsize;
                    }
                    xprintf("%c%c%c%c%c %u/%02u/%02u %02u:%02u %9lu  %s",
  8090a8:	10000226 	beq	r2,zero,8090b4 <main+0xdd4>
  8090ac:	00c01044 	movi	r3,65
  8090b0:	00000106 	br	8090b8 <main+0xdd8>
  8090b4:	00c00b44 	movi	r3,45
                            (Finfo.fattrib & AM_DIR) ? 'D' : '-',
                            (Finfo.fattrib & AM_RDO) ? 'R' : '-',
                            (Finfo.fattrib & AM_HID) ? 'H' : '-',
                            (Finfo.fattrib & AM_SYS) ? 'S' : '-',
                            (Finfo.fattrib & AM_ARC) ? 'A' : '-',
                            (Finfo.fdate >> 9) + 1980, (Finfo.fdate >> 5) & 15, Finfo.fdate & 31,
  8090b8:	00802074 	movhi	r2,129
  8090bc:	108d0004 	addi	r2,r2,13312
  8090c0:	1080010b 	ldhu	r2,4(r2)
  8090c4:	10bfffcc 	andi	r2,r2,65535
  8090c8:	1004d27a 	srli	r2,r2,9
  8090cc:	10bfffcc 	andi	r2,r2,65535
                        s2++;
                    } else {
                        s1++;
                        p1 += Finfo.fsize;
                    }
                    xprintf("%c%c%c%c%c %u/%02u/%02u %02u:%02u %9lu  %s",
  8090d0:	1301ef04 	addi	r12,r2,1980
                            (Finfo.fattrib & AM_DIR) ? 'D' : '-',
                            (Finfo.fattrib & AM_RDO) ? 'R' : '-',
                            (Finfo.fattrib & AM_HID) ? 'H' : '-',
                            (Finfo.fattrib & AM_SYS) ? 'S' : '-',
                            (Finfo.fattrib & AM_ARC) ? 'A' : '-',
                            (Finfo.fdate >> 9) + 1980, (Finfo.fdate >> 5) & 15, Finfo.fdate & 31,
  8090d4:	00802074 	movhi	r2,129
  8090d8:	108d0004 	addi	r2,r2,13312
  8090dc:	1080010b 	ldhu	r2,4(r2)
                        s2++;
                    } else {
                        s1++;
                        p1 += Finfo.fsize;
                    }
                    xprintf("%c%c%c%c%c %u/%02u/%02u %02u:%02u %9lu  %s",
  8090e0:	10bfffcc 	andi	r2,r2,65535
  8090e4:	1004d17a 	srli	r2,r2,5
  8090e8:	10bfffcc 	andi	r2,r2,65535
  8090ec:	12c003cc 	andi	r11,r2,15
                            (Finfo.fattrib & AM_DIR) ? 'D' : '-',
                            (Finfo.fattrib & AM_RDO) ? 'R' : '-',
                            (Finfo.fattrib & AM_HID) ? 'H' : '-',
                            (Finfo.fattrib & AM_SYS) ? 'S' : '-',
                            (Finfo.fattrib & AM_ARC) ? 'A' : '-',
                            (Finfo.fdate >> 9) + 1980, (Finfo.fdate >> 5) & 15, Finfo.fdate & 31,
  8090f0:	00802074 	movhi	r2,129
  8090f4:	108d0004 	addi	r2,r2,13312
  8090f8:	1080010b 	ldhu	r2,4(r2)
                        s2++;
                    } else {
                        s1++;
                        p1 += Finfo.fsize;
                    }
                    xprintf("%c%c%c%c%c %u/%02u/%02u %02u:%02u %9lu  %s",
  8090fc:	10bfffcc 	andi	r2,r2,65535
  809100:	128007cc 	andi	r10,r2,31
                            (Finfo.fattrib & AM_RDO) ? 'R' : '-',
                            (Finfo.fattrib & AM_HID) ? 'H' : '-',
                            (Finfo.fattrib & AM_SYS) ? 'S' : '-',
                            (Finfo.fattrib & AM_ARC) ? 'A' : '-',
                            (Finfo.fdate >> 9) + 1980, (Finfo.fdate >> 5) & 15, Finfo.fdate & 31,
                            (Finfo.ftime >> 11), (Finfo.ftime >> 5) & 63, Finfo.fsize, &(Finfo.fname[0]));
  809104:	00802074 	movhi	r2,129
  809108:	108d0004 	addi	r2,r2,13312
  80910c:	1080018b 	ldhu	r2,6(r2)
                        s2++;
                    } else {
                        s1++;
                        p1 += Finfo.fsize;
                    }
                    xprintf("%c%c%c%c%c %u/%02u/%02u %02u:%02u %9lu  %s",
  809110:	10bfffcc 	andi	r2,r2,65535
  809114:	1004d2fa 	srli	r2,r2,11
  809118:	127fffcc 	andi	r9,r2,65535
                            (Finfo.fattrib & AM_RDO) ? 'R' : '-',
                            (Finfo.fattrib & AM_HID) ? 'H' : '-',
                            (Finfo.fattrib & AM_SYS) ? 'S' : '-',
                            (Finfo.fattrib & AM_ARC) ? 'A' : '-',
                            (Finfo.fdate >> 9) + 1980, (Finfo.fdate >> 5) & 15, Finfo.fdate & 31,
                            (Finfo.ftime >> 11), (Finfo.ftime >> 5) & 63, Finfo.fsize, &(Finfo.fname[0]));
  80911c:	00802074 	movhi	r2,129
  809120:	108d0004 	addi	r2,r2,13312
  809124:	1080018b 	ldhu	r2,6(r2)
                        s2++;
                    } else {
                        s1++;
                        p1 += Finfo.fsize;
                    }
                    xprintf("%c%c%c%c%c %u/%02u/%02u %02u:%02u %9lu  %s",
  809128:	10bfffcc 	andi	r2,r2,65535
  80912c:	1004d17a 	srli	r2,r2,5
  809130:	10bfffcc 	andi	r2,r2,65535
  809134:	12000fcc 	andi	r8,r2,63
  809138:	00802074 	movhi	r2,129
  80913c:	108d0004 	addi	r2,r2,13312
  809140:	10800017 	ldw	r2,0(r2)
  809144:	d9000015 	stw	r4,0(sp)
  809148:	d8c00115 	stw	r3,4(sp)
  80914c:	db000215 	stw	r12,8(sp)
  809150:	dac00315 	stw	r11,12(sp)
  809154:	da800415 	stw	r10,16(sp)
  809158:	da400515 	stw	r9,20(sp)
  80915c:	da000615 	stw	r8,24(sp)
  809160:	d8800715 	stw	r2,28(sp)
  809164:	00802074 	movhi	r2,129
  809168:	108d0244 	addi	r2,r2,13321
  80916c:	d8800815 	stw	r2,32(sp)
  809170:	01002074 	movhi	r4,129
  809174:	21049204 	addi	r4,r4,4680
  809178:	0809c000 	call	809c00 <xprintf>
                            (Finfo.fattrib & AM_HID) ? 'H' : '-',
                            (Finfo.fattrib & AM_SYS) ? 'S' : '-',
                            (Finfo.fattrib & AM_ARC) ? 'A' : '-',
                            (Finfo.fdate >> 9) + 1980, (Finfo.fdate >> 5) & 15, Finfo.fdate & 31,
                            (Finfo.ftime >> 11), (Finfo.ftime >> 5) & 63, Finfo.fsize, &(Finfo.fname[0]));
				break;
  80917c:	0001883a 	nop
                    xprintf("%s\n", Lfname);
#else
                    xputc('\n');
#endif
                }
                xprintf("%4u File(s),%10lu bytes total\n%4u Dir(s)", s1, p1, s2);
  809180:	e0fff417 	ldw	r3,-48(fp)
  809184:	e0bff817 	ldw	r2,-32(fp)
  809188:	01002074 	movhi	r4,129
  80918c:	21049d04 	addi	r4,r4,4724
  809190:	e17fec17 	ldw	r5,-80(fp)
  809194:	180d883a 	mov	r6,r3
  809198:	100f883a 	mov	r7,r2
  80919c:	0809c000 	call	809c00 <xprintf>
                res = f_getfree(ptr, (uint32_t *) & p1, &fs);
  8091a0:	e13ff317 	ldw	r4,-52(fp)
  8091a4:	e0fff404 	addi	r3,fp,-48
  8091a8:	e0bffc04 	addi	r2,fp,-16
  8091ac:	180b883a 	mov	r5,r3
  8091b0:	100d883a 	mov	r6,r2
  8091b4:	08058b40 	call	8058b4 <f_getfree>
  8091b8:	e0bff105 	stb	r2,-60(fp)
                if (res == FR_OK)
  8091bc:	e0bff103 	ldbu	r2,-60(fp)
  8091c0:	10000b1e 	bne	r2,zero,8091f0 <main+0xf10>
                    xprintf(", %10lu bytes free\n", p1 * fs->csize * 512);
  8091c4:	e0bffc17 	ldw	r2,-16(fp)
  8091c8:	10800083 	ldbu	r2,2(r2)
  8091cc:	10c03fcc 	andi	r3,r2,255
  8091d0:	e0bff417 	ldw	r2,-48(fp)
  8091d4:	1885383a 	mul	r2,r3,r2
  8091d8:	1004927a 	slli	r2,r2,9
  8091dc:	01002074 	movhi	r4,129
  8091e0:	2104a804 	addi	r4,r4,4768
  8091e4:	100b883a 	mov	r5,r2
  8091e8:	0809c000 	call	809c00 <xprintf>
                else
                    put_rc(res);
                break;
  8091ec:	00014206 	br	8096f8 <main+0x1418>
                xprintf("%4u File(s),%10lu bytes total\n%4u Dir(s)", s1, p1, s2);
                res = f_getfree(ptr, (uint32_t *) & p1, &fs);
                if (res == FR_OK)
                    xprintf(", %10lu bytes free\n", p1 * fs->csize * 512);
                else
                    put_rc(res);
  8091f0:	e0bff103 	ldbu	r2,-60(fp)
  8091f4:	1009883a 	mov	r4,r2
  8091f8:	08081ec0 	call	8081ec <put_rc>
                break;
  8091fc:	00013e06 	br	8096f8 <main+0x1418>

            case 'o':          /* fo <mode> <file> - Open a file */
                if (!xatoi(&ptr, &p1))
  809200:	e0fff304 	addi	r3,fp,-52
  809204:	e0bff404 	addi	r2,fp,-48
  809208:	1809883a 	mov	r4,r3
  80920c:	100b883a 	mov	r5,r2
  809210:	080970c0 	call	80970c <xatoi>
  809214:	1000011e 	bne	r2,zero,80921c <main+0xf3c>
                    break;
  809218:	00013706 	br	8096f8 <main+0x1418>
                while (*ptr == ' ')
  80921c:	00000306 	br	80922c <main+0xf4c>
                    ptr++;
  809220:	e0bff317 	ldw	r2,-52(fp)
  809224:	10800044 	addi	r2,r2,1
  809228:	e0bff315 	stw	r2,-52(fp)
                break;

            case 'o':          /* fo <mode> <file> - Open a file */
                if (!xatoi(&ptr, &p1))
                    break;
                while (*ptr == ' ')
  80922c:	e0bff317 	ldw	r2,-52(fp)
  809230:	10800003 	ldbu	r2,0(r2)
  809234:	10803fcc 	andi	r2,r2,255
  809238:	1080201c 	xori	r2,r2,128
  80923c:	10bfe004 	addi	r2,r2,-128
  809240:	10800820 	cmpeqi	r2,r2,32
  809244:	103ff61e 	bne	r2,zero,809220 <__alt_data_end+0xff809220>
                    ptr++;
                put_rc(f_open(&File1, ptr, (uint8_t) p1));
  809248:	e0fff317 	ldw	r3,-52(fp)
  80924c:	e0bff417 	ldw	r2,-48(fp)
  809250:	10803fcc 	andi	r2,r2,255
  809254:	01002074 	movhi	r4,129
  809258:	210c7704 	addi	r4,r4,12764
  80925c:	180b883a 	mov	r5,r3
  809260:	100d883a 	mov	r6,r2
  809264:	0803f200 	call	803f20 <f_open>
  809268:	1009883a 	mov	r4,r2
  80926c:	08081ec0 	call	8081ec <put_rc>
                break;
  809270:	00012106 	br	8096f8 <main+0x1418>

            case 'c':          /* fc - Close a file */
                put_rc(f_close(&File1));
  809274:	01002074 	movhi	r4,129
  809278:	210c7704 	addi	r4,r4,12764
  80927c:	080508c0 	call	80508c <f_close>
  809280:	1009883a 	mov	r4,r2
  809284:	08081ec0 	call	8081ec <put_rc>
                break;
  809288:	00011b06 	br	8096f8 <main+0x1418>

            case 'e':          /* fe - Seek file pointer */
                if (!xatoi(&ptr, &p1))
  80928c:	e0fff304 	addi	r3,fp,-52
  809290:	e0bff404 	addi	r2,fp,-48
  809294:	1809883a 	mov	r4,r3
  809298:	100b883a 	mov	r5,r2
  80929c:	080970c0 	call	80970c <xatoi>
  8092a0:	1000011e 	bne	r2,zero,8092a8 <main+0xfc8>
                    break;
  8092a4:	00011406 	br	8096f8 <main+0x1418>
                res = f_lseek(&File1, p1);
  8092a8:	e0bff417 	ldw	r2,-48(fp)
  8092ac:	01002074 	movhi	r4,129
  8092b0:	210c7704 	addi	r4,r4,12764
  8092b4:	100b883a 	mov	r5,r2
  8092b8:	08050d40 	call	8050d4 <f_lseek>
  8092bc:	e0bff105 	stb	r2,-60(fp)
                put_rc(res);
  8092c0:	e0bff103 	ldbu	r2,-60(fp)
  8092c4:	1009883a 	mov	r4,r2
  8092c8:	08081ec0 	call	8081ec <put_rc>
                if (res == FR_OK)
  8092cc:	e0bff103 	ldbu	r2,-60(fp)
  8092d0:	10000c1e 	bne	r2,zero,809304 <main+0x1024>
                    xprintf("fptr=%lu(0x%lX)\n", File1.fptr, File1.fptr);
  8092d4:	00802074 	movhi	r2,129
  8092d8:	108c7704 	addi	r2,r2,12764
  8092dc:	10c00217 	ldw	r3,8(r2)
  8092e0:	00802074 	movhi	r2,129
  8092e4:	108c7704 	addi	r2,r2,12764
  8092e8:	10800217 	ldw	r2,8(r2)
  8092ec:	01002074 	movhi	r4,129
  8092f0:	2104ad04 	addi	r4,r4,4788
  8092f4:	180b883a 	mov	r5,r3
  8092f8:	100d883a 	mov	r6,r2
  8092fc:	0809c000 	call	809c00 <xprintf>
                break;
  809300:	0000fd06 	br	8096f8 <main+0x1418>
  809304:	0000fc06 	br	8096f8 <main+0x1418>

            case 'd':          /* fd <len> - read and dump file from current fp */
                if (!xatoi(&ptr, &p1))
  809308:	e0fff304 	addi	r3,fp,-52
  80930c:	e0bff404 	addi	r2,fp,-48
  809310:	1809883a 	mov	r4,r3
  809314:	100b883a 	mov	r5,r2
  809318:	080970c0 	call	80970c <xatoi>
  80931c:	1000011e 	bne	r2,zero,809324 <main+0x1044>
                    break;
  809320:	0000f506 	br	8096f8 <main+0x1418>
                ofs = File1.fptr;
  809324:	00802074 	movhi	r2,129
  809328:	108c7704 	addi	r2,r2,12764
  80932c:	10800217 	ldw	r2,8(r2)
  809330:	e0bfee15 	stw	r2,-72(fp)
                while (p1) {
  809334:	00002806 	br	8093d8 <main+0x10f8>
                    if ((uint32_t) p1 >= 16) {
  809338:	e0bff417 	ldw	r2,-48(fp)
  80933c:	10800430 	cmpltui	r2,r2,16
  809340:	1000061e 	bne	r2,zero,80935c <main+0x107c>
                        cnt = 16;
  809344:	00800404 	movi	r2,16
  809348:	e0bff915 	stw	r2,-28(fp)
                        p1 -= 16;
  80934c:	e0bff417 	ldw	r2,-48(fp)
  809350:	10bffc04 	addi	r2,r2,-16
  809354:	e0bff415 	stw	r2,-48(fp)
  809358:	00000306 	br	809368 <main+0x1088>
                    } else {
                        cnt = p1;
  80935c:	e0bff417 	ldw	r2,-48(fp)
  809360:	e0bff915 	stw	r2,-28(fp)
                        p1 = 0;
  809364:	e03ff415 	stw	zero,-48(fp)
                    }
                    res = f_read(&File1, Buff, cnt, &cnt);
  809368:	e0fff917 	ldw	r3,-28(fp)
  80936c:	e0bff904 	addi	r2,fp,-28
  809370:	01002074 	movhi	r4,129
  809374:	210c7704 	addi	r4,r4,12764
  809378:	01402074 	movhi	r5,129
  80937c:	294d0604 	addi	r5,r5,13336
  809380:	180d883a 	mov	r6,r3
  809384:	100f883a 	mov	r7,r2
  809388:	08043a40 	call	8043a4 <f_read>
  80938c:	e0bff105 	stb	r2,-60(fp)
                    if (res != FR_OK) {
  809390:	e0bff103 	ldbu	r2,-60(fp)
  809394:	10000426 	beq	r2,zero,8093a8 <main+0x10c8>
                        put_rc(res);
  809398:	e0bff103 	ldbu	r2,-60(fp)
  80939c:	1009883a 	mov	r4,r2
  8093a0:	08081ec0 	call	8081ec <put_rc>
                        break;
  8093a4:	00000e06 	br	8093e0 <main+0x1100>
                    }
                    if (!cnt)
  8093a8:	e0bff917 	ldw	r2,-28(fp)
  8093ac:	1000011e 	bne	r2,zero,8093b4 <main+0x10d4>
                        break;
  8093b0:	00000b06 	br	8093e0 <main+0x1100>
                    put_dump(Buff, ofs, cnt);
  8093b4:	e0bff917 	ldw	r2,-28(fp)
  8093b8:	01002074 	movhi	r4,129
  8093bc:	210d0604 	addi	r4,r4,13336
  8093c0:	e17fee17 	ldw	r5,-72(fp)
  8093c4:	100d883a 	mov	r6,r2
  8093c8:	0809eac0 	call	809eac <put_dump>
                    ofs += 16;
  8093cc:	e0bfee17 	ldw	r2,-72(fp)
  8093d0:	10800404 	addi	r2,r2,16
  8093d4:	e0bfee15 	stw	r2,-72(fp)

            case 'd':          /* fd <len> - read and dump file from current fp */
                if (!xatoi(&ptr, &p1))
                    break;
                ofs = File1.fptr;
                while (p1) {
  8093d8:	e0bff417 	ldw	r2,-48(fp)
  8093dc:	103fd61e 	bne	r2,zero,809338 <__alt_data_end+0xff809338>
                    if (!cnt)
                        break;
                    put_dump(Buff, ofs, cnt);
                    ofs += 16;
                }
                break;
  8093e0:	0000c506 	br	8096f8 <main+0x1418>

            case 'p':          /* fp <len> - play current file with length len */
                if (!xatoi(&ptr, &p1))
  8093e4:	e0fff304 	addi	r3,fp,-52
  8093e8:	e0bff404 	addi	r2,fp,-48
  8093ec:	1809883a 	mov	r4,r3
  8093f0:	100b883a 	mov	r5,r2
  8093f4:	080970c0 	call	80970c <xatoi>
  8093f8:	1000011e 	bne	r2,zero,809400 <main+0x1120>
                    break;
  8093fc:	0000be06 	br	8096f8 <main+0x1418>
                ofs = File1.fptr;
  809400:	00802074 	movhi	r2,129
  809404:	108c7704 	addi	r2,r2,12764
  809408:	10800217 	ldw	r2,8(r2)
  80940c:	e0bfee15 	stw	r2,-72(fp)
            		alt_printf ("Opened audio device \n");
            	*/

            	int* bits_per_sample, sample_rate, block_align, num_channels;

            	fread( bits_per_sample, 2, 1, &File1 );
  809410:	e13ff217 	ldw	r4,-56(fp)
  809414:	01400084 	movi	r5,2
  809418:	01800044 	movi	r6,1
  80941c:	01c02074 	movhi	r7,129
  809420:	39cc7704 	addi	r7,r7,12764
  809424:	080a4900 	call	80a490 <fread>



                //p1 is the number of bytes to read from the file
                while (p1>0) {
  809428:	00000c06 	br	80945c <main+0x117c>
                	//*******************************************************************************************
                	//*******************************************************************************************
                	//*******************************************************************************************

					// write audio buffer
					alt_up_audio_write_fifo (audio_dev, &(r_buf), 1, ALT_UP_AUDIO_RIGHT);
  80942c:	e0bffe04 	addi	r2,fp,-8
  809430:	e13ff017 	ldw	r4,-64(fp)
  809434:	100b883a 	mov	r5,r2
  809438:	01800044 	movi	r6,1
  80943c:	01c00044 	movi	r7,1
  809440:	080f9780 	call	80f978 <alt_up_audio_write_fifo>
					alt_up_audio_write_fifo (audio_dev, &(l_buf), 1, ALT_UP_AUDIO_LEFT);
  809444:	e0bffd04 	addi	r2,fp,-12
  809448:	e13ff017 	ldw	r4,-64(fp)
  80944c:	100b883a 	mov	r5,r2
  809450:	01800044 	movi	r6,1
  809454:	000f883a 	mov	r7,zero
  809458:	080f9780 	call	80f978 <alt_up_audio_write_fifo>
            	fread( bits_per_sample, 2, 1, &File1 );



                //p1 is the number of bytes to read from the file
                while (p1>0) {
  80945c:	e0bff417 	ldw	r2,-48(fp)
  809460:	00bff216 	blt	zero,r2,80942c <__alt_data_end+0xff80942c>
					alt_up_audio_write_fifo (audio_dev, &(r_buf), 1, ALT_UP_AUDIO_RIGHT);
					alt_up_audio_write_fifo (audio_dev, &(l_buf), 1, ALT_UP_AUDIO_LEFT);

                	//put your audio playing code in here
                }
                break;
  809464:	0000a406 	br	8096f8 <main+0x1418>

            case 'r':          /* fr <len> - read file */
                if (!xatoi(&ptr, &p1))
  809468:	e0fff304 	addi	r3,fp,-52
  80946c:	e0bff404 	addi	r2,fp,-48
  809470:	1809883a 	mov	r4,r3
  809474:	100b883a 	mov	r5,r2
  809478:	080970c0 	call	80970c <xatoi>
  80947c:	1000011e 	bne	r2,zero,809484 <main+0x11a4>
                    break;
  809480:	00009d06 	br	8096f8 <main+0x1418>
                p2 = 0;
  809484:	e03ff515 	stw	zero,-44(fp)
                Timer = 0;
  809488:	d0233c0d 	sth	zero,-29456(gp)
                while (p1) {
  80948c:	00002806 	br	809530 <main+0x1250>
                    if ((uint32_t) p1 >= blen) {
  809490:	e0bff417 	ldw	r2,-48(fp)
  809494:	1007883a 	mov	r3,r2
  809498:	e0bfed17 	ldw	r2,-76(fp)
  80949c:	18800836 	bltu	r3,r2,8094c0 <main+0x11e0>
                        cnt = blen;
  8094a0:	e0bfed17 	ldw	r2,-76(fp)
  8094a4:	e0bff915 	stw	r2,-28(fp)
                        p1 -= blen;
  8094a8:	e0bff417 	ldw	r2,-48(fp)
  8094ac:	1007883a 	mov	r3,r2
  8094b0:	e0bfed17 	ldw	r2,-76(fp)
  8094b4:	1885c83a 	sub	r2,r3,r2
  8094b8:	e0bff415 	stw	r2,-48(fp)
  8094bc:	00000306 	br	8094cc <main+0x11ec>
                    } else {
                        cnt = p1;
  8094c0:	e0bff417 	ldw	r2,-48(fp)
  8094c4:	e0bff915 	stw	r2,-28(fp)
                        p1 = 0;
  8094c8:	e03ff415 	stw	zero,-48(fp)
                    }
                    res = f_read(&File1, Buff, cnt, &s2);
  8094cc:	e0fff917 	ldw	r3,-28(fp)
  8094d0:	e0bff804 	addi	r2,fp,-32
  8094d4:	01002074 	movhi	r4,129
  8094d8:	210c7704 	addi	r4,r4,12764
  8094dc:	01402074 	movhi	r5,129
  8094e0:	294d0604 	addi	r5,r5,13336
  8094e4:	180d883a 	mov	r6,r3
  8094e8:	100f883a 	mov	r7,r2
  8094ec:	08043a40 	call	8043a4 <f_read>
  8094f0:	e0bff105 	stb	r2,-60(fp)
                    if (res != FR_OK) {
  8094f4:	e0bff103 	ldbu	r2,-60(fp)
  8094f8:	10000426 	beq	r2,zero,80950c <main+0x122c>
                        put_rc(res);
  8094fc:	e0bff103 	ldbu	r2,-60(fp)
  809500:	1009883a 	mov	r4,r2
  809504:	08081ec0 	call	8081ec <put_rc>
                        break;
  809508:	00000b06 	br	809538 <main+0x1258>
                    }
                    p2 += s2;
  80950c:	e0bff517 	ldw	r2,-44(fp)
  809510:	1007883a 	mov	r3,r2
  809514:	e0bff817 	ldw	r2,-32(fp)
  809518:	1885883a 	add	r2,r3,r2
  80951c:	e0bff515 	stw	r2,-44(fp)
                    if (cnt != s2)
  809520:	e0fff917 	ldw	r3,-28(fp)
  809524:	e0bff817 	ldw	r2,-32(fp)
  809528:	18800126 	beq	r3,r2,809530 <main+0x1250>
                        break;
  80952c:	00000206 	br	809538 <main+0x1258>
            case 'r':          /* fr <len> - read file */
                if (!xatoi(&ptr, &p1))
                    break;
                p2 = 0;
                Timer = 0;
                while (p1) {
  809530:	e0bff417 	ldw	r2,-48(fp)
  809534:	103fd61e 	bne	r2,zero,809490 <__alt_data_end+0xff809490>
                    }
                    p2 += s2;
                    if (cnt != s2)
                        break;
                }
                xprintf("%lu bytes read with %lu kB/sec.\n", p2, Timer ? (p2 / Timer) : 0);
  809538:	e43ff517 	ldw	r16,-44(fp)
  80953c:	d0a33c0b 	ldhu	r2,-29456(gp)
  809540:	10bfffcc 	andi	r2,r2,65535
  809544:	10000726 	beq	r2,zero,809564 <main+0x1284>
  809548:	e0fff517 	ldw	r3,-44(fp)
  80954c:	d0a33c0b 	ldhu	r2,-29456(gp)
  809550:	10bfffcc 	andi	r2,r2,65535
  809554:	1809883a 	mov	r4,r3
  809558:	100b883a 	mov	r5,r2
  80955c:	080a1a00 	call	80a1a0 <__divsi3>
  809560:	00000106 	br	809568 <main+0x1288>
  809564:	0005883a 	mov	r2,zero
  809568:	01002074 	movhi	r4,129
  80956c:	2104b204 	addi	r4,r4,4808
  809570:	800b883a 	mov	r5,r16
  809574:	100d883a 	mov	r6,r2
  809578:	0809c000 	call	809c00 <xprintf>
                break;
  80957c:	00005e06 	br	8096f8 <main+0x1418>

            case 't':          /* ft <year> <month> <day> <hour> <min> <sec> <name> - Change timestamp */
                if (!xatoi(&ptr, &p1) || !xatoi(&ptr, &p2) || !xatoi(&ptr, &p3))
  809580:	e0fff304 	addi	r3,fp,-52
  809584:	e0bff404 	addi	r2,fp,-48
  809588:	1809883a 	mov	r4,r3
  80958c:	100b883a 	mov	r5,r2
  809590:	080970c0 	call	80970c <xatoi>
  809594:	10005826 	beq	r2,zero,8096f8 <main+0x1418>
  809598:	e0fff304 	addi	r3,fp,-52
  80959c:	e0bff504 	addi	r2,fp,-44
  8095a0:	1809883a 	mov	r4,r3
  8095a4:	100b883a 	mov	r5,r2
  8095a8:	080970c0 	call	80970c <xatoi>
  8095ac:	10005226 	beq	r2,zero,8096f8 <main+0x1418>
  8095b0:	e0fff304 	addi	r3,fp,-52
  8095b4:	e0bff604 	addi	r2,fp,-40
  8095b8:	1809883a 	mov	r4,r3
  8095bc:	100b883a 	mov	r5,r2
  8095c0:	080970c0 	call	80970c <xatoi>
  8095c4:	10004c26 	beq	r2,zero,8096f8 <main+0x1418>
                    break;
                Finfo.fdate = ((p1 - 1980) << 9) | ((p2 & 15) << 5) | (p3 & 31);
  8095c8:	e0bff417 	ldw	r2,-48(fp)
  8095cc:	10be1104 	addi	r2,r2,-1980
  8095d0:	1004927a 	slli	r2,r2,9
  8095d4:	1007883a 	mov	r3,r2
  8095d8:	e0bff517 	ldw	r2,-44(fp)
  8095dc:	108003cc 	andi	r2,r2,15
  8095e0:	1004917a 	slli	r2,r2,5
  8095e4:	1884b03a 	or	r2,r3,r2
  8095e8:	1007883a 	mov	r3,r2
  8095ec:	e0bff617 	ldw	r2,-40(fp)
  8095f0:	108007cc 	andi	r2,r2,31
  8095f4:	1884b03a 	or	r2,r3,r2
  8095f8:	1007883a 	mov	r3,r2
  8095fc:	00802074 	movhi	r2,129
  809600:	108d0004 	addi	r2,r2,13312
  809604:	10c0010d 	sth	r3,4(r2)
                if (!xatoi(&ptr, &p1) || !xatoi(&ptr, &p2) || !xatoi(&ptr, &p3))
  809608:	e0fff304 	addi	r3,fp,-52
  80960c:	e0bff404 	addi	r2,fp,-48
  809610:	1809883a 	mov	r4,r3
  809614:	100b883a 	mov	r5,r2
  809618:	080970c0 	call	80970c <xatoi>
  80961c:	10003626 	beq	r2,zero,8096f8 <main+0x1418>
  809620:	e0fff304 	addi	r3,fp,-52
  809624:	e0bff504 	addi	r2,fp,-44
  809628:	1809883a 	mov	r4,r3
  80962c:	100b883a 	mov	r5,r2
  809630:	080970c0 	call	80970c <xatoi>
  809634:	10003026 	beq	r2,zero,8096f8 <main+0x1418>
  809638:	e0fff304 	addi	r3,fp,-52
  80963c:	e0bff604 	addi	r2,fp,-40
  809640:	1809883a 	mov	r4,r3
  809644:	100b883a 	mov	r5,r2
  809648:	080970c0 	call	80970c <xatoi>
  80964c:	10002a26 	beq	r2,zero,8096f8 <main+0x1418>
                    break;
                Finfo.ftime = ((p1 & 31) << 11) | ((p2 & 63) << 5) | ((p3 >> 1) & 31);
  809650:	e0bff417 	ldw	r2,-48(fp)
  809654:	100492fa 	slli	r2,r2,11
  809658:	1007883a 	mov	r3,r2
  80965c:	e0bff517 	ldw	r2,-44(fp)
  809660:	10800fcc 	andi	r2,r2,63
  809664:	1004917a 	slli	r2,r2,5
  809668:	1884b03a 	or	r2,r3,r2
  80966c:	1007883a 	mov	r3,r2
  809670:	e0bff617 	ldw	r2,-40(fp)
  809674:	1005d07a 	srai	r2,r2,1
  809678:	108007cc 	andi	r2,r2,31
  80967c:	1884b03a 	or	r2,r3,r2
  809680:	1007883a 	mov	r3,r2
  809684:	00802074 	movhi	r2,129
  809688:	108d0004 	addi	r2,r2,13312
  80968c:	10c0018d 	sth	r3,6(r2)
                put_rc(f_utime(ptr, &Finfo));
  809690:	e0bff317 	ldw	r2,-52(fp)
  809694:	1009883a 	mov	r4,r2
  809698:	01402074 	movhi	r5,129
  80969c:	294d0004 	addi	r5,r5,13312
  8096a0:	08064e40 	call	8064e4 <f_utime>
  8096a4:	1009883a 	mov	r4,r2
  8096a8:	08081ec0 	call	8081ec <put_rc>
                break;
  8096ac:	00001206 	br	8096f8 <main+0x1418>
                    xprintf("%s\n", Line);
                break;
#endif
#endif
            case 'z':          /* fz [<rw size>] - Change R/W length for fr/fw/fx command */
                if (xatoi(&ptr, &p1) && p1 >= 1 && p1 <= sizeof(Buff))
  8096b0:	e0fff304 	addi	r3,fp,-52
  8096b4:	e0bff404 	addi	r2,fp,-48
  8096b8:	1809883a 	mov	r4,r3
  8096bc:	100b883a 	mov	r5,r2
  8096c0:	080970c0 	call	80970c <xatoi>
  8096c4:	10000726 	beq	r2,zero,8096e4 <main+0x1404>
  8096c8:	e0bff417 	ldw	r2,-48(fp)
  8096cc:	0080050e 	bge	zero,r2,8096e4 <main+0x1404>
  8096d0:	e0bff417 	ldw	r2,-48(fp)
  8096d4:	10880068 	cmpgeui	r2,r2,8193
  8096d8:	1000021e 	bne	r2,zero,8096e4 <main+0x1404>
                    blen = p1;
  8096dc:	e0bff417 	ldw	r2,-48(fp)
  8096e0:	e0bfed15 	stw	r2,-76(fp)
                xprintf("blen=%u\n", blen);
  8096e4:	01002074 	movhi	r4,129
  8096e8:	2104bb04 	addi	r4,r4,4844
  8096ec:	e17fed17 	ldw	r5,-76(fp)
  8096f0:	0809c000 	call	809c00 <xprintf>
                break;
  8096f4:	0001883a 	nop
            }
            break;
  8096f8:	00000206 	br	809704 <main+0x1424>

        case 'h':
            display_help();
  8096fc:	08082b00 	call	8082b0 <display_help>
            break;
  809700:	00000106 	br	809708 <main+0x1428>
                if (xatoi(&ptr, &p1) && p1 >= 1 && p1 <= sizeof(Buff))
                    blen = p1;
                xprintf("blen=%u\n", blen);
                break;
            }
            break;
  809704:	0001883a 	nop
        case 'h':
            display_help();
            break;

        }
    }
  809708:	003b1806 	br	80836c <__alt_data_end+0xff80836c>

0080970c <xatoi>:
  80970c:	defffb04 	addi	sp,sp,-20
  809710:	df000415 	stw	fp,16(sp)
  809714:	df000404 	addi	fp,sp,16
  809718:	e13ffe15 	stw	r4,-8(fp)
  80971c:	e17fff15 	stw	r5,-4(fp)
  809720:	e03ffd85 	stb	zero,-10(fp)
  809724:	00000506 	br	80973c <xatoi+0x30>
  809728:	e0bffe17 	ldw	r2,-8(fp)
  80972c:	10800017 	ldw	r2,0(r2)
  809730:	10c00044 	addi	r3,r2,1
  809734:	e0bffe17 	ldw	r2,-8(fp)
  809738:	10c00015 	stw	r3,0(r2)
  80973c:	e0bffe17 	ldw	r2,-8(fp)
  809740:	10800017 	ldw	r2,0(r2)
  809744:	10800003 	ldbu	r2,0(r2)
  809748:	e0bffd05 	stb	r2,-12(fp)
  80974c:	e0bffd03 	ldbu	r2,-12(fp)
  809750:	10800820 	cmpeqi	r2,r2,32
  809754:	103ff41e 	bne	r2,zero,809728 <__alt_data_end+0xff809728>
  809758:	e0bffd03 	ldbu	r2,-12(fp)
  80975c:	10800b58 	cmpnei	r2,r2,45
  809760:	10000b1e 	bne	r2,zero,809790 <xatoi+0x84>
  809764:	00800044 	movi	r2,1
  809768:	e0bffd85 	stb	r2,-10(fp)
  80976c:	e0bffe17 	ldw	r2,-8(fp)
  809770:	10800017 	ldw	r2,0(r2)
  809774:	10c00044 	addi	r3,r2,1
  809778:	e0bffe17 	ldw	r2,-8(fp)
  80977c:	10c00015 	stw	r3,0(r2)
  809780:	e0bffe17 	ldw	r2,-8(fp)
  809784:	10800017 	ldw	r2,0(r2)
  809788:	10800003 	ldbu	r2,0(r2)
  80978c:	e0bffd05 	stb	r2,-12(fp)
  809790:	e0bffd03 	ldbu	r2,-12(fp)
  809794:	10800c18 	cmpnei	r2,r2,48
  809798:	1000391e 	bne	r2,zero,809880 <xatoi+0x174>
  80979c:	e0bffe17 	ldw	r2,-8(fp)
  8097a0:	10800017 	ldw	r2,0(r2)
  8097a4:	10c00044 	addi	r3,r2,1
  8097a8:	e0bffe17 	ldw	r2,-8(fp)
  8097ac:	10c00015 	stw	r3,0(r2)
  8097b0:	e0bffe17 	ldw	r2,-8(fp)
  8097b4:	10800017 	ldw	r2,0(r2)
  8097b8:	10800003 	ldbu	r2,0(r2)
  8097bc:	e0bffd05 	stb	r2,-12(fp)
  8097c0:	e0bffd03 	ldbu	r2,-12(fp)
  8097c4:	10800868 	cmpgeui	r2,r2,33
  8097c8:	1000041e 	bne	r2,zero,8097dc <xatoi+0xd0>
  8097cc:	e0bfff17 	ldw	r2,-4(fp)
  8097d0:	10000015 	stw	zero,0(r2)
  8097d4:	00800044 	movi	r2,1
  8097d8:	00006906 	br	809980 <xatoi+0x274>
  8097dc:	e0bffd03 	ldbu	r2,-12(fp)
  8097e0:	10801e18 	cmpnei	r2,r2,120
  8097e4:	10000c1e 	bne	r2,zero,809818 <xatoi+0x10c>
  8097e8:	00800404 	movi	r2,16
  8097ec:	e0bffd45 	stb	r2,-11(fp)
  8097f0:	e0bffe17 	ldw	r2,-8(fp)
  8097f4:	10800017 	ldw	r2,0(r2)
  8097f8:	10c00044 	addi	r3,r2,1
  8097fc:	e0bffe17 	ldw	r2,-8(fp)
  809800:	10c00015 	stw	r3,0(r2)
  809804:	e0bffe17 	ldw	r2,-8(fp)
  809808:	10800017 	ldw	r2,0(r2)
  80980c:	10800003 	ldbu	r2,0(r2)
  809810:	e0bffd05 	stb	r2,-12(fp)
  809814:	00002406 	br	8098a8 <xatoi+0x19c>
  809818:	e0bffd03 	ldbu	r2,-12(fp)
  80981c:	10801898 	cmpnei	r2,r2,98
  809820:	10000c1e 	bne	r2,zero,809854 <xatoi+0x148>
  809824:	00800084 	movi	r2,2
  809828:	e0bffd45 	stb	r2,-11(fp)
  80982c:	e0bffe17 	ldw	r2,-8(fp)
  809830:	10800017 	ldw	r2,0(r2)
  809834:	10c00044 	addi	r3,r2,1
  809838:	e0bffe17 	ldw	r2,-8(fp)
  80983c:	10c00015 	stw	r3,0(r2)
  809840:	e0bffe17 	ldw	r2,-8(fp)
  809844:	10800017 	ldw	r2,0(r2)
  809848:	10800003 	ldbu	r2,0(r2)
  80984c:	e0bffd05 	stb	r2,-12(fp)
  809850:	00001506 	br	8098a8 <xatoi+0x19c>
  809854:	e0bffd03 	ldbu	r2,-12(fp)
  809858:	10800c30 	cmpltui	r2,r2,48
  80985c:	1000061e 	bne	r2,zero,809878 <xatoi+0x16c>
  809860:	e0bffd03 	ldbu	r2,-12(fp)
  809864:	10800ea8 	cmpgeui	r2,r2,58
  809868:	1000031e 	bne	r2,zero,809878 <xatoi+0x16c>
  80986c:	00800204 	movi	r2,8
  809870:	e0bffd45 	stb	r2,-11(fp)
  809874:	00000c06 	br	8098a8 <xatoi+0x19c>
  809878:	0005883a 	mov	r2,zero
  80987c:	00004006 	br	809980 <xatoi+0x274>
  809880:	e0bffd03 	ldbu	r2,-12(fp)
  809884:	10800c70 	cmpltui	r2,r2,49
  809888:	1000031e 	bne	r2,zero,809898 <xatoi+0x18c>
  80988c:	e0bffd03 	ldbu	r2,-12(fp)
  809890:	10800eb0 	cmpltui	r2,r2,58
  809894:	1000021e 	bne	r2,zero,8098a0 <xatoi+0x194>
  809898:	0005883a 	mov	r2,zero
  80989c:	00003806 	br	809980 <xatoi+0x274>
  8098a0:	00800284 	movi	r2,10
  8098a4:	e0bffd45 	stb	r2,-11(fp)
  8098a8:	e03ffc15 	stw	zero,-16(fp)
  8098ac:	00002806 	br	809950 <xatoi+0x244>
  8098b0:	e0bffd03 	ldbu	r2,-12(fp)
  8098b4:	10801870 	cmpltui	r2,r2,97
  8098b8:	1000031e 	bne	r2,zero,8098c8 <xatoi+0x1bc>
  8098bc:	e0bffd03 	ldbu	r2,-12(fp)
  8098c0:	10bff804 	addi	r2,r2,-32
  8098c4:	e0bffd05 	stb	r2,-12(fp)
  8098c8:	e0bffd03 	ldbu	r2,-12(fp)
  8098cc:	10bff404 	addi	r2,r2,-48
  8098d0:	e0bffd05 	stb	r2,-12(fp)
  8098d4:	e0bffd03 	ldbu	r2,-12(fp)
  8098d8:	10800470 	cmpltui	r2,r2,17
  8098dc:	1000081e 	bne	r2,zero,809900 <xatoi+0x1f4>
  8098e0:	e0bffd03 	ldbu	r2,-12(fp)
  8098e4:	10bffe44 	addi	r2,r2,-7
  8098e8:	e0bffd05 	stb	r2,-12(fp)
  8098ec:	e0bffd03 	ldbu	r2,-12(fp)
  8098f0:	108002a8 	cmpgeui	r2,r2,10
  8098f4:	1000021e 	bne	r2,zero,809900 <xatoi+0x1f4>
  8098f8:	0005883a 	mov	r2,zero
  8098fc:	00002006 	br	809980 <xatoi+0x274>
  809900:	e0fffd03 	ldbu	r3,-12(fp)
  809904:	e0bffd43 	ldbu	r2,-11(fp)
  809908:	18800236 	bltu	r3,r2,809914 <xatoi+0x208>
  80990c:	0005883a 	mov	r2,zero
  809910:	00001b06 	br	809980 <xatoi+0x274>
  809914:	e0fffd43 	ldbu	r3,-11(fp)
  809918:	e0bffc17 	ldw	r2,-16(fp)
  80991c:	1887383a 	mul	r3,r3,r2
  809920:	e0bffd03 	ldbu	r2,-12(fp)
  809924:	1885883a 	add	r2,r3,r2
  809928:	e0bffc15 	stw	r2,-16(fp)
  80992c:	e0bffe17 	ldw	r2,-8(fp)
  809930:	10800017 	ldw	r2,0(r2)
  809934:	10c00044 	addi	r3,r2,1
  809938:	e0bffe17 	ldw	r2,-8(fp)
  80993c:	10c00015 	stw	r3,0(r2)
  809940:	e0bffe17 	ldw	r2,-8(fp)
  809944:	10800017 	ldw	r2,0(r2)
  809948:	10800003 	ldbu	r2,0(r2)
  80994c:	e0bffd05 	stb	r2,-12(fp)
  809950:	e0bffd03 	ldbu	r2,-12(fp)
  809954:	10800868 	cmpgeui	r2,r2,33
  809958:	103fd51e 	bne	r2,zero,8098b0 <__alt_data_end+0xff8098b0>
  80995c:	e0bffd83 	ldbu	r2,-10(fp)
  809960:	10000326 	beq	r2,zero,809970 <xatoi+0x264>
  809964:	e0bffc17 	ldw	r2,-16(fp)
  809968:	0085c83a 	sub	r2,zero,r2
  80996c:	e0bffc15 	stw	r2,-16(fp)
  809970:	e0fffc17 	ldw	r3,-16(fp)
  809974:	e0bfff17 	ldw	r2,-4(fp)
  809978:	10c00015 	stw	r3,0(r2)
  80997c:	00800044 	movi	r2,1
  809980:	e037883a 	mov	sp,fp
  809984:	df000017 	ldw	fp,0(sp)
  809988:	dec00104 	addi	sp,sp,4
  80998c:	f800283a 	ret

00809990 <xputc>:
  809990:	defffd04 	addi	sp,sp,-12
  809994:	dfc00215 	stw	ra,8(sp)
  809998:	df000115 	stw	fp,4(sp)
  80999c:	df000104 	addi	fp,sp,4
  8099a0:	2005883a 	mov	r2,r4
  8099a4:	e0bfff05 	stb	r2,-4(fp)
  8099a8:	e0bfff07 	ldb	r2,-4(fp)
  8099ac:	10800298 	cmpnei	r2,r2,10
  8099b0:	1000021e 	bne	r2,zero,8099bc <xputc+0x2c>
  8099b4:	01000344 	movi	r4,13
  8099b8:	080a0a40 	call	80a0a4 <uart0_put>
  8099bc:	e0bfff03 	ldbu	r2,-4(fp)
  8099c0:	10803fcc 	andi	r2,r2,255
  8099c4:	1009883a 	mov	r4,r2
  8099c8:	080a0a40 	call	80a0a4 <uart0_put>
  8099cc:	e037883a 	mov	sp,fp
  8099d0:	dfc00117 	ldw	ra,4(sp)
  8099d4:	df000017 	ldw	fp,0(sp)
  8099d8:	dec00204 	addi	sp,sp,8
  8099dc:	f800283a 	ret

008099e0 <xputs>:
  8099e0:	defffd04 	addi	sp,sp,-12
  8099e4:	dfc00215 	stw	ra,8(sp)
  8099e8:	df000115 	stw	fp,4(sp)
  8099ec:	df000104 	addi	fp,sp,4
  8099f0:	e13fff15 	stw	r4,-4(fp)
  8099f4:	00000906 	br	809a1c <xputs+0x3c>
  8099f8:	e0bfff17 	ldw	r2,-4(fp)
  8099fc:	10c00044 	addi	r3,r2,1
  809a00:	e0ffff15 	stw	r3,-4(fp)
  809a04:	10800003 	ldbu	r2,0(r2)
  809a08:	10803fcc 	andi	r2,r2,255
  809a0c:	1080201c 	xori	r2,r2,128
  809a10:	10bfe004 	addi	r2,r2,-128
  809a14:	1009883a 	mov	r4,r2
  809a18:	08099900 	call	809990 <xputc>
  809a1c:	e0bfff17 	ldw	r2,-4(fp)
  809a20:	10800003 	ldbu	r2,0(r2)
  809a24:	10803fcc 	andi	r2,r2,255
  809a28:	1080201c 	xori	r2,r2,128
  809a2c:	10bfe004 	addi	r2,r2,-128
  809a30:	103ff11e 	bne	r2,zero,8099f8 <__alt_data_end+0xff8099f8>
  809a34:	e037883a 	mov	sp,fp
  809a38:	dfc00117 	ldw	ra,4(sp)
  809a3c:	df000017 	ldw	fp,0(sp)
  809a40:	dec00204 	addi	sp,sp,8
  809a44:	f800283a 	ret

00809a48 <xitoa>:
  809a48:	defff304 	addi	sp,sp,-52
  809a4c:	dfc00c15 	stw	ra,48(sp)
  809a50:	df000b15 	stw	fp,44(sp)
  809a54:	df000b04 	addi	fp,sp,44
  809a58:	e13ffd15 	stw	r4,-12(fp)
  809a5c:	2807883a 	mov	r3,r5
  809a60:	3005883a 	mov	r2,r6
  809a64:	e0fffe05 	stb	r3,-8(fp)
  809a68:	e0bfff05 	stb	r2,-4(fp)
  809a6c:	e03ff545 	stb	zero,-43(fp)
  809a70:	00800804 	movi	r2,32
  809a74:	e0bff585 	stb	r2,-42(fp)
  809a78:	e03ff5c5 	stb	zero,-41(fp)
  809a7c:	e0bffe07 	ldb	r2,-8(fp)
  809a80:	10000a0e 	bge	r2,zero,809aac <xitoa+0x64>
  809a84:	e0bffe03 	ldbu	r2,-8(fp)
  809a88:	0085c83a 	sub	r2,zero,r2
  809a8c:	e0bffe05 	stb	r2,-8(fp)
  809a90:	e0bffd17 	ldw	r2,-12(fp)
  809a94:	1000050e 	bge	r2,zero,809aac <xitoa+0x64>
  809a98:	e0bffd17 	ldw	r2,-12(fp)
  809a9c:	0085c83a 	sub	r2,zero,r2
  809aa0:	e0bffd15 	stw	r2,-12(fp)
  809aa4:	00800b44 	movi	r2,45
  809aa8:	e0bff545 	stb	r2,-43(fp)
  809aac:	e0bffd17 	ldw	r2,-12(fp)
  809ab0:	e0bff615 	stw	r2,-40(fp)
  809ab4:	e0bffe03 	ldbu	r2,-8(fp)
  809ab8:	e0bff705 	stb	r2,-36(fp)
  809abc:	e0bfff07 	ldb	r2,-4(fp)
  809ac0:	1000050e 	bge	r2,zero,809ad8 <xitoa+0x90>
  809ac4:	e0bfff03 	ldbu	r2,-4(fp)
  809ac8:	0085c83a 	sub	r2,zero,r2
  809acc:	e0bfff05 	stb	r2,-4(fp)
  809ad0:	00800c04 	movi	r2,48
  809ad4:	e0bff585 	stb	r2,-42(fp)
  809ad8:	e0bfff07 	ldb	r2,-4(fp)
  809adc:	10800550 	cmplti	r2,r2,21
  809ae0:	10004226 	beq	r2,zero,809bec <xitoa+0x1a4>
  809ae4:	e0bff703 	ldbu	r2,-36(fp)
  809ae8:	e0fff617 	ldw	r3,-40(fp)
  809aec:	1809883a 	mov	r4,r3
  809af0:	100b883a 	mov	r5,r2
  809af4:	080a2580 	call	80a258 <__umodsi3>
  809af8:	e0bff505 	stb	r2,-44(fp)
  809afc:	e0bff503 	ldbu	r2,-44(fp)
  809b00:	108002b0 	cmpltui	r2,r2,10
  809b04:	1000031e 	bne	r2,zero,809b14 <xitoa+0xcc>
  809b08:	e0bff503 	ldbu	r2,-44(fp)
  809b0c:	108001c4 	addi	r2,r2,7
  809b10:	e0bff505 	stb	r2,-44(fp)
  809b14:	e0bff503 	ldbu	r2,-44(fp)
  809b18:	10800c04 	addi	r2,r2,48
  809b1c:	e0bff505 	stb	r2,-44(fp)
  809b20:	e0bff5c3 	ldbu	r2,-41(fp)
  809b24:	10c00044 	addi	r3,r2,1
  809b28:	e0fff5c5 	stb	r3,-41(fp)
  809b2c:	10803fcc 	andi	r2,r2,255
  809b30:	e0fff744 	addi	r3,fp,-35
  809b34:	1885883a 	add	r2,r3,r2
  809b38:	e0fff503 	ldbu	r3,-44(fp)
  809b3c:	10c00005 	stb	r3,0(r2)
  809b40:	e0bff703 	ldbu	r2,-36(fp)
  809b44:	e13ff617 	ldw	r4,-40(fp)
  809b48:	100b883a 	mov	r5,r2
  809b4c:	080a2500 	call	80a250 <__udivsi3>
  809b50:	e0bff615 	stw	r2,-40(fp)
  809b54:	e0bff617 	ldw	r2,-40(fp)
  809b58:	103fe21e 	bne	r2,zero,809ae4 <__alt_data_end+0xff809ae4>
  809b5c:	e0bff543 	ldbu	r2,-43(fp)
  809b60:	10000826 	beq	r2,zero,809b84 <xitoa+0x13c>
  809b64:	e0bff5c3 	ldbu	r2,-41(fp)
  809b68:	10c00044 	addi	r3,r2,1
  809b6c:	e0fff5c5 	stb	r3,-41(fp)
  809b70:	10803fcc 	andi	r2,r2,255
  809b74:	e0fff744 	addi	r3,fp,-35
  809b78:	1885883a 	add	r2,r3,r2
  809b7c:	e0fff543 	ldbu	r3,-43(fp)
  809b80:	10c00005 	stb	r3,0(r2)
  809b84:	00000806 	br	809ba8 <xitoa+0x160>
  809b88:	e0bff5c3 	ldbu	r2,-41(fp)
  809b8c:	10c00044 	addi	r3,r2,1
  809b90:	e0fff5c5 	stb	r3,-41(fp)
  809b94:	10803fcc 	andi	r2,r2,255
  809b98:	e0fff744 	addi	r3,fp,-35
  809b9c:	1885883a 	add	r2,r3,r2
  809ba0:	e0fff583 	ldbu	r3,-42(fp)
  809ba4:	10c00005 	stb	r3,0(r2)
  809ba8:	e0fff5c3 	ldbu	r3,-41(fp)
  809bac:	e0bfff07 	ldb	r2,-4(fp)
  809bb0:	18bff516 	blt	r3,r2,809b88 <__alt_data_end+0xff809b88>
  809bb4:	e0bff5c3 	ldbu	r2,-41(fp)
  809bb8:	10bfffc4 	addi	r2,r2,-1
  809bbc:	e0bff5c5 	stb	r2,-41(fp)
  809bc0:	e0bff5c3 	ldbu	r2,-41(fp)
  809bc4:	e0fff744 	addi	r3,fp,-35
  809bc8:	1885883a 	add	r2,r3,r2
  809bcc:	10800003 	ldbu	r2,0(r2)
  809bd0:	10803fcc 	andi	r2,r2,255
  809bd4:	1080201c 	xori	r2,r2,128
  809bd8:	10bfe004 	addi	r2,r2,-128
  809bdc:	1009883a 	mov	r4,r2
  809be0:	08099900 	call	809990 <xputc>
  809be4:	e0bff5c3 	ldbu	r2,-41(fp)
  809be8:	103ff21e 	bne	r2,zero,809bb4 <__alt_data_end+0xff809bb4>
  809bec:	e037883a 	mov	sp,fp
  809bf0:	dfc00117 	ldw	ra,4(sp)
  809bf4:	df000017 	ldw	fp,0(sp)
  809bf8:	dec00204 	addi	sp,sp,8
  809bfc:	f800283a 	ret

00809c00 <xprintf>:
  809c00:	defff704 	addi	sp,sp,-36
  809c04:	dfc00515 	stw	ra,20(sp)
  809c08:	df000415 	stw	fp,16(sp)
  809c0c:	df000404 	addi	fp,sp,16
  809c10:	e1400215 	stw	r5,8(fp)
  809c14:	e1800315 	stw	r6,12(fp)
  809c18:	e1c00415 	stw	r7,16(fp)
  809c1c:	e13fff15 	stw	r4,-4(fp)
  809c20:	e0800204 	addi	r2,fp,8
  809c24:	e0bffe15 	stw	r2,-8(fp)
  809c28:	00009406 	br	809e7c <xprintf+0x27c>
  809c2c:	e0bffc07 	ldb	r2,-16(fp)
  809c30:	10800960 	cmpeqi	r2,r2,37
  809c34:	1000041e 	bne	r2,zero,809c48 <xprintf+0x48>
  809c38:	e0bffc07 	ldb	r2,-16(fp)
  809c3c:	1009883a 	mov	r4,r2
  809c40:	08099900 	call	809990 <xputc>
  809c44:	00008d06 	br	809e7c <xprintf+0x27c>
  809c48:	e0bfff17 	ldw	r2,-4(fp)
  809c4c:	10c00044 	addi	r3,r2,1
  809c50:	e0ffff15 	stw	r3,-4(fp)
  809c54:	10800003 	ldbu	r2,0(r2)
  809c58:	e0bffc05 	stb	r2,-16(fp)
  809c5c:	e03ffd05 	stb	zero,-12(fp)
  809c60:	e0bffd03 	ldbu	r2,-12(fp)
  809c64:	e0bffcc5 	stb	r2,-13(fp)
  809c68:	e0bffcc3 	ldbu	r2,-13(fp)
  809c6c:	e0bffc45 	stb	r2,-15(fp)
  809c70:	e0bffc43 	ldbu	r2,-15(fp)
  809c74:	e0bffc85 	stb	r2,-14(fp)
  809c78:	e0bffc07 	ldb	r2,-16(fp)
  809c7c:	10800c18 	cmpnei	r2,r2,48
  809c80:	1000071e 	bne	r2,zero,809ca0 <xprintf+0xa0>
  809c84:	e0bfff17 	ldw	r2,-4(fp)
  809c88:	10c00044 	addi	r3,r2,1
  809c8c:	e0ffff15 	stw	r3,-4(fp)
  809c90:	10800003 	ldbu	r2,0(r2)
  809c94:	e0bffc05 	stb	r2,-16(fp)
  809c98:	00800044 	movi	r2,1
  809c9c:	e0bffcc5 	stb	r2,-13(fp)
  809ca0:	00000f06 	br	809ce0 <xprintf+0xe0>
  809ca4:	e0bffc83 	ldbu	r2,-14(fp)
  809ca8:	108002a4 	muli	r2,r2,10
  809cac:	1007883a 	mov	r3,r2
  809cb0:	e0bffc03 	ldbu	r2,-16(fp)
  809cb4:	1885883a 	add	r2,r3,r2
  809cb8:	1007883a 	mov	r3,r2
  809cbc:	e0bffc83 	ldbu	r2,-14(fp)
  809cc0:	1885883a 	add	r2,r3,r2
  809cc4:	10bff404 	addi	r2,r2,-48
  809cc8:	e0bffc85 	stb	r2,-14(fp)
  809ccc:	e0bfff17 	ldw	r2,-4(fp)
  809cd0:	10c00044 	addi	r3,r2,1
  809cd4:	e0ffff15 	stw	r3,-4(fp)
  809cd8:	10800003 	ldbu	r2,0(r2)
  809cdc:	e0bffc05 	stb	r2,-16(fp)
  809ce0:	e0bffc07 	ldb	r2,-16(fp)
  809ce4:	10800c10 	cmplti	r2,r2,48
  809ce8:	1000031e 	bne	r2,zero,809cf8 <xprintf+0xf8>
  809cec:	e0bffc07 	ldb	r2,-16(fp)
  809cf0:	10800e90 	cmplti	r2,r2,58
  809cf4:	103feb1e 	bne	r2,zero,809ca4 <__alt_data_end+0xff809ca4>
  809cf8:	e0bffcc7 	ldb	r2,-13(fp)
  809cfc:	10000326 	beq	r2,zero,809d0c <xprintf+0x10c>
  809d00:	e0bffc83 	ldbu	r2,-14(fp)
  809d04:	0085c83a 	sub	r2,zero,r2
  809d08:	e0bffc85 	stb	r2,-14(fp)
  809d0c:	e0bffc07 	ldb	r2,-16(fp)
  809d10:	10801b18 	cmpnei	r2,r2,108
  809d14:	1000071e 	bne	r2,zero,809d34 <xprintf+0x134>
  809d18:	00800044 	movi	r2,1
  809d1c:	e0bffd05 	stb	r2,-12(fp)
  809d20:	e0bfff17 	ldw	r2,-4(fp)
  809d24:	10c00044 	addi	r3,r2,1
  809d28:	e0ffff15 	stw	r3,-4(fp)
  809d2c:	10800003 	ldbu	r2,0(r2)
  809d30:	e0bffc05 	stb	r2,-16(fp)
  809d34:	e0bffc07 	ldb	r2,-16(fp)
  809d38:	1000011e 	bne	r2,zero,809d40 <xprintf+0x140>
  809d3c:	00005606 	br	809e98 <xprintf+0x298>
  809d40:	e0bffc07 	ldb	r2,-16(fp)
  809d44:	10801cd8 	cmpnei	r2,r2,115
  809d48:	1000071e 	bne	r2,zero,809d68 <xprintf+0x168>
  809d4c:	e0bffe17 	ldw	r2,-8(fp)
  809d50:	10c00104 	addi	r3,r2,4
  809d54:	e0fffe15 	stw	r3,-8(fp)
  809d58:	10800017 	ldw	r2,0(r2)
  809d5c:	1009883a 	mov	r4,r2
  809d60:	08099e00 	call	8099e0 <xputs>
  809d64:	00004506 	br	809e7c <xprintf+0x27c>
  809d68:	e0bffc07 	ldb	r2,-16(fp)
  809d6c:	108018d8 	cmpnei	r2,r2,99
  809d70:	10000a1e 	bne	r2,zero,809d9c <xprintf+0x19c>
  809d74:	e0bffe17 	ldw	r2,-8(fp)
  809d78:	10c00104 	addi	r3,r2,4
  809d7c:	e0fffe15 	stw	r3,-8(fp)
  809d80:	10800017 	ldw	r2,0(r2)
  809d84:	10803fcc 	andi	r2,r2,255
  809d88:	1080201c 	xori	r2,r2,128
  809d8c:	10bfe004 	addi	r2,r2,-128
  809d90:	1009883a 	mov	r4,r2
  809d94:	08099900 	call	809990 <xputc>
  809d98:	00003806 	br	809e7c <xprintf+0x27c>
  809d9c:	e0bffc07 	ldb	r2,-16(fp)
  809da0:	10801d58 	cmpnei	r2,r2,117
  809da4:	1000021e 	bne	r2,zero,809db0 <xprintf+0x1b0>
  809da8:	00800284 	movi	r2,10
  809dac:	e0bffc45 	stb	r2,-15(fp)
  809db0:	e0bffc07 	ldb	r2,-16(fp)
  809db4:	10801918 	cmpnei	r2,r2,100
  809db8:	1000021e 	bne	r2,zero,809dc4 <xprintf+0x1c4>
  809dbc:	00bffd84 	movi	r2,-10
  809dc0:	e0bffc45 	stb	r2,-15(fp)
  809dc4:	e0bffc07 	ldb	r2,-16(fp)
  809dc8:	10801618 	cmpnei	r2,r2,88
  809dcc:	1000021e 	bne	r2,zero,809dd8 <xprintf+0x1d8>
  809dd0:	00800404 	movi	r2,16
  809dd4:	e0bffc45 	stb	r2,-15(fp)
  809dd8:	e0bffc07 	ldb	r2,-16(fp)
  809ddc:	10801898 	cmpnei	r2,r2,98
  809de0:	1000021e 	bne	r2,zero,809dec <xprintf+0x1ec>
  809de4:	00800084 	movi	r2,2
  809de8:	e0bffc45 	stb	r2,-15(fp)
  809dec:	e0bffc47 	ldb	r2,-15(fp)
  809df0:	1000011e 	bne	r2,zero,809df8 <xprintf+0x1f8>
  809df4:	00002806 	br	809e98 <xprintf+0x298>
  809df8:	e0bffd07 	ldb	r2,-12(fp)
  809dfc:	10000a26 	beq	r2,zero,809e28 <xprintf+0x228>
  809e00:	e0bffe17 	ldw	r2,-8(fp)
  809e04:	10c00104 	addi	r3,r2,4
  809e08:	e0fffe15 	stw	r3,-8(fp)
  809e0c:	11000017 	ldw	r4,0(r2)
  809e10:	e0fffc47 	ldb	r3,-15(fp)
  809e14:	e0bffc87 	ldb	r2,-14(fp)
  809e18:	180b883a 	mov	r5,r3
  809e1c:	100d883a 	mov	r6,r2
  809e20:	0809a480 	call	809a48 <xitoa>
  809e24:	00001506 	br	809e7c <xprintf+0x27c>
  809e28:	e0bffc47 	ldb	r2,-15(fp)
  809e2c:	00800a0e 	bge	zero,r2,809e58 <xprintf+0x258>
  809e30:	e0bffe17 	ldw	r2,-8(fp)
  809e34:	10c00104 	addi	r3,r2,4
  809e38:	e0fffe15 	stw	r3,-8(fp)
  809e3c:	11000017 	ldw	r4,0(r2)
  809e40:	e0fffc47 	ldb	r3,-15(fp)
  809e44:	e0bffc87 	ldb	r2,-14(fp)
  809e48:	180b883a 	mov	r5,r3
  809e4c:	100d883a 	mov	r6,r2
  809e50:	0809a480 	call	809a48 <xitoa>
  809e54:	00000906 	br	809e7c <xprintf+0x27c>
  809e58:	e0bffe17 	ldw	r2,-8(fp)
  809e5c:	10c00104 	addi	r3,r2,4
  809e60:	e0fffe15 	stw	r3,-8(fp)
  809e64:	11000017 	ldw	r4,0(r2)
  809e68:	e0fffc47 	ldb	r3,-15(fp)
  809e6c:	e0bffc87 	ldb	r2,-14(fp)
  809e70:	180b883a 	mov	r5,r3
  809e74:	100d883a 	mov	r6,r2
  809e78:	0809a480 	call	809a48 <xitoa>
  809e7c:	e0bfff17 	ldw	r2,-4(fp)
  809e80:	10c00044 	addi	r3,r2,1
  809e84:	e0ffff15 	stw	r3,-4(fp)
  809e88:	10800003 	ldbu	r2,0(r2)
  809e8c:	e0bffc05 	stb	r2,-16(fp)
  809e90:	e0bffc07 	ldb	r2,-16(fp)
  809e94:	103f651e 	bne	r2,zero,809c2c <__alt_data_end+0xff809c2c>
  809e98:	e037883a 	mov	sp,fp
  809e9c:	dfc00117 	ldw	ra,4(sp)
  809ea0:	df000017 	ldw	fp,0(sp)
  809ea4:	dec00504 	addi	sp,sp,20
  809ea8:	f800283a 	ret

00809eac <put_dump>:
  809eac:	defffa04 	addi	sp,sp,-24
  809eb0:	dfc00515 	stw	ra,20(sp)
  809eb4:	df000415 	stw	fp,16(sp)
  809eb8:	df000404 	addi	fp,sp,16
  809ebc:	e13ffd15 	stw	r4,-12(fp)
  809ec0:	e17ffe15 	stw	r5,-8(fp)
  809ec4:	e1bfff15 	stw	r6,-4(fp)
  809ec8:	01002074 	movhi	r4,129
  809ecc:	2104be04 	addi	r4,r4,4856
  809ed0:	e17ffe17 	ldw	r5,-8(fp)
  809ed4:	0809c000 	call	809c00 <xprintf>
  809ed8:	e03ffc05 	stb	zero,-16(fp)
  809edc:	00000c06 	br	809f10 <put_dump+0x64>
  809ee0:	e0bffc03 	ldbu	r2,-16(fp)
  809ee4:	e0fffd17 	ldw	r3,-12(fp)
  809ee8:	1885883a 	add	r2,r3,r2
  809eec:	10800003 	ldbu	r2,0(r2)
  809ef0:	10803fcc 	andi	r2,r2,255
  809ef4:	01002074 	movhi	r4,129
  809ef8:	2104c004 	addi	r4,r4,4864
  809efc:	100b883a 	mov	r5,r2
  809f00:	0809c000 	call	809c00 <xprintf>
  809f04:	e0bffc03 	ldbu	r2,-16(fp)
  809f08:	10800044 	addi	r2,r2,1
  809f0c:	e0bffc05 	stb	r2,-16(fp)
  809f10:	e0fffc03 	ldbu	r3,-16(fp)
  809f14:	e0bfff17 	ldw	r2,-4(fp)
  809f18:	18bff116 	blt	r3,r2,809ee0 <__alt_data_end+0xff809ee0>
  809f1c:	01000804 	movi	r4,32
  809f20:	08099900 	call	809990 <xputc>
  809f24:	e03ffc05 	stb	zero,-16(fp)
  809f28:	00001d06 	br	809fa0 <put_dump+0xf4>
  809f2c:	e0bffc03 	ldbu	r2,-16(fp)
  809f30:	e0fffd17 	ldw	r3,-12(fp)
  809f34:	1885883a 	add	r2,r3,r2
  809f38:	10800003 	ldbu	r2,0(r2)
  809f3c:	10803fcc 	andi	r2,r2,255
  809f40:	10800830 	cmpltui	r2,r2,32
  809f44:	1000071e 	bne	r2,zero,809f64 <put_dump+0xb8>
  809f48:	e0bffc03 	ldbu	r2,-16(fp)
  809f4c:	e0fffd17 	ldw	r3,-12(fp)
  809f50:	1885883a 	add	r2,r3,r2
  809f54:	10800003 	ldbu	r2,0(r2)
  809f58:	10803fcc 	andi	r2,r2,255
  809f5c:	10801ff0 	cmpltui	r2,r2,127
  809f60:	1000031e 	bne	r2,zero,809f70 <put_dump+0xc4>
  809f64:	01000b84 	movi	r4,46
  809f68:	08099900 	call	809990 <xputc>
  809f6c:	00000906 	br	809f94 <put_dump+0xe8>
  809f70:	e0bffc03 	ldbu	r2,-16(fp)
  809f74:	e0fffd17 	ldw	r3,-12(fp)
  809f78:	1885883a 	add	r2,r3,r2
  809f7c:	10800003 	ldbu	r2,0(r2)
  809f80:	10803fcc 	andi	r2,r2,255
  809f84:	1080201c 	xori	r2,r2,128
  809f88:	10bfe004 	addi	r2,r2,-128
  809f8c:	1009883a 	mov	r4,r2
  809f90:	08099900 	call	809990 <xputc>
  809f94:	e0bffc03 	ldbu	r2,-16(fp)
  809f98:	10800044 	addi	r2,r2,1
  809f9c:	e0bffc05 	stb	r2,-16(fp)
  809fa0:	e0fffc03 	ldbu	r3,-16(fp)
  809fa4:	e0bfff17 	ldw	r2,-4(fp)
  809fa8:	18bfe016 	blt	r3,r2,809f2c <__alt_data_end+0xff809f2c>
  809fac:	01000284 	movi	r4,10
  809fb0:	08099900 	call	809990 <xputc>
  809fb4:	e037883a 	mov	sp,fp
  809fb8:	dfc00117 	ldw	ra,4(sp)
  809fbc:	df000017 	ldw	fp,0(sp)
  809fc0:	dec00204 	addi	sp,sp,8
  809fc4:	f800283a 	ret

00809fc8 <get_line>:
  809fc8:	defffa04 	addi	sp,sp,-24
  809fcc:	dfc00515 	stw	ra,20(sp)
  809fd0:	df000415 	stw	fp,16(sp)
  809fd4:	df000404 	addi	fp,sp,16
  809fd8:	e13ffe15 	stw	r4,-8(fp)
  809fdc:	e17fff15 	stw	r5,-4(fp)
  809fe0:	e03ffc15 	stw	zero,-16(fp)
  809fe4:	080a0dc0 	call	80a0dc <uart0_get>
  809fe8:	e0bffd05 	stb	r2,-12(fp)
  809fec:	e0bffd07 	ldb	r2,-12(fp)
  809ff0:	10800358 	cmpnei	r2,r2,13
  809ff4:	1000011e 	bne	r2,zero,809ffc <get_line+0x34>
  809ff8:	00001906 	br	80a060 <get_line+0x98>
  809ffc:	e0bffd07 	ldb	r2,-12(fp)
  80a000:	10800218 	cmpnei	r2,r2,8
  80a004:	1000051e 	bne	r2,zero,80a01c <get_line+0x54>
  80a008:	e0bffc17 	ldw	r2,-16(fp)
  80a00c:	10000326 	beq	r2,zero,80a01c <get_line+0x54>
  80a010:	e0bffc17 	ldw	r2,-16(fp)
  80a014:	10bfffc4 	addi	r2,r2,-1
  80a018:	e0bffc15 	stw	r2,-16(fp)
  80a01c:	e0bffd03 	ldbu	r2,-12(fp)
  80a020:	10803fcc 	andi	r2,r2,255
  80a024:	10800830 	cmpltui	r2,r2,32
  80a028:	10000c1e 	bne	r2,zero,80a05c <get_line+0x94>
  80a02c:	e0bfff17 	ldw	r2,-4(fp)
  80a030:	10bfffc4 	addi	r2,r2,-1
  80a034:	e0fffc17 	ldw	r3,-16(fp)
  80a038:	1880080e 	bge	r3,r2,80a05c <get_line+0x94>
  80a03c:	e0bffc17 	ldw	r2,-16(fp)
  80a040:	10c00044 	addi	r3,r2,1
  80a044:	e0fffc15 	stw	r3,-16(fp)
  80a048:	1007883a 	mov	r3,r2
  80a04c:	e0bffe17 	ldw	r2,-8(fp)
  80a050:	10c5883a 	add	r2,r2,r3
  80a054:	e0fffd03 	ldbu	r3,-12(fp)
  80a058:	10c00005 	stb	r3,0(r2)
  80a05c:	003fe106 	br	809fe4 <__alt_data_end+0xff809fe4>
  80a060:	e0bffc17 	ldw	r2,-16(fp)
  80a064:	e0fffe17 	ldw	r3,-8(fp)
  80a068:	1885883a 	add	r2,r3,r2
  80a06c:	10000005 	stb	zero,0(r2)
  80a070:	e037883a 	mov	sp,fp
  80a074:	dfc00117 	ldw	ra,4(sp)
  80a078:	df000017 	ldw	fp,0(sp)
  80a07c:	dec00204 	addi	sp,sp,8
  80a080:	f800283a 	ret

0080a084 <uart0_init>:
  80a084:	defffe04 	addi	sp,sp,-8
  80a088:	df000115 	stw	fp,4(sp)
  80a08c:	df000104 	addi	fp,sp,4
  80a090:	e13fff15 	stw	r4,-4(fp)
  80a094:	e037883a 	mov	sp,fp
  80a098:	df000017 	ldw	fp,0(sp)
  80a09c:	dec00104 	addi	sp,sp,4
  80a0a0:	f800283a 	ret

0080a0a4 <uart0_put>:
  80a0a4:	defffd04 	addi	sp,sp,-12
  80a0a8:	dfc00215 	stw	ra,8(sp)
  80a0ac:	df000115 	stw	fp,4(sp)
  80a0b0:	df000104 	addi	fp,sp,4
  80a0b4:	2005883a 	mov	r2,r4
  80a0b8:	e0bfff05 	stb	r2,-4(fp)
  80a0bc:	e0bfff03 	ldbu	r2,-4(fp)
  80a0c0:	1009883a 	mov	r4,r2
  80a0c4:	080b3e80 	call	80b3e8 <putchar>
  80a0c8:	e037883a 	mov	sp,fp
  80a0cc:	dfc00117 	ldw	ra,4(sp)
  80a0d0:	df000017 	ldw	fp,0(sp)
  80a0d4:	dec00204 	addi	sp,sp,8
  80a0d8:	f800283a 	ret

0080a0dc <uart0_get>:
  80a0dc:	defffd04 	addi	sp,sp,-12
  80a0e0:	dfc00215 	stw	ra,8(sp)
  80a0e4:	df000115 	stw	fp,4(sp)
  80a0e8:	df000104 	addi	fp,sp,4
  80a0ec:	00802074 	movhi	r2,129
  80a0f0:	10889404 	addi	r2,r2,8784
  80a0f4:	10800017 	ldw	r2,0(r2)
  80a0f8:	10800117 	ldw	r2,4(r2)
  80a0fc:	1009883a 	mov	r4,r2
  80a100:	080a9540 	call	80a954 <getc>
  80a104:	e0bfff05 	stb	r2,-4(fp)
  80a108:	e0bfff07 	ldb	r2,-4(fp)
  80a10c:	10800298 	cmpnei	r2,r2,10
  80a110:	1000021e 	bne	r2,zero,80a11c <uart0_get+0x40>
  80a114:	00800344 	movi	r2,13
  80a118:	e0bfff05 	stb	r2,-4(fp)
  80a11c:	e0bfff03 	ldbu	r2,-4(fp)
  80a120:	e037883a 	mov	sp,fp
  80a124:	dfc00117 	ldw	ra,4(sp)
  80a128:	df000017 	ldw	fp,0(sp)
  80a12c:	dec00204 	addi	sp,sp,8
  80a130:	f800283a 	ret

0080a134 <udivmodsi4>:
  80a134:	2900182e 	bgeu	r5,r4,80a198 <udivmodsi4+0x64>
  80a138:	28001716 	blt	r5,zero,80a198 <udivmodsi4+0x64>
  80a13c:	00800804 	movi	r2,32
  80a140:	00c00044 	movi	r3,1
  80a144:	00000206 	br	80a150 <udivmodsi4+0x1c>
  80a148:	10001126 	beq	r2,zero,80a190 <udivmodsi4+0x5c>
  80a14c:	28000516 	blt	r5,zero,80a164 <udivmodsi4+0x30>
  80a150:	294b883a 	add	r5,r5,r5
  80a154:	10bfffc4 	addi	r2,r2,-1
  80a158:	18c7883a 	add	r3,r3,r3
  80a15c:	293ffa36 	bltu	r5,r4,80a148 <__alt_data_end+0xff80a148>
  80a160:	18000b26 	beq	r3,zero,80a190 <udivmodsi4+0x5c>
  80a164:	0005883a 	mov	r2,zero
  80a168:	21400236 	bltu	r4,r5,80a174 <udivmodsi4+0x40>
  80a16c:	2149c83a 	sub	r4,r4,r5
  80a170:	10c4b03a 	or	r2,r2,r3
  80a174:	1806d07a 	srli	r3,r3,1
  80a178:	280ad07a 	srli	r5,r5,1
  80a17c:	183ffa1e 	bne	r3,zero,80a168 <__alt_data_end+0xff80a168>
  80a180:	3000011e 	bne	r6,zero,80a188 <udivmodsi4+0x54>
  80a184:	f800283a 	ret
  80a188:	2005883a 	mov	r2,r4
  80a18c:	f800283a 	ret
  80a190:	0005883a 	mov	r2,zero
  80a194:	003ffa06 	br	80a180 <__alt_data_end+0xff80a180>
  80a198:	00c00044 	movi	r3,1
  80a19c:	003ff106 	br	80a164 <__alt_data_end+0xff80a164>

0080a1a0 <__divsi3>:
  80a1a0:	defffe04 	addi	sp,sp,-8
  80a1a4:	dfc00115 	stw	ra,4(sp)
  80a1a8:	dc000015 	stw	r16,0(sp)
  80a1ac:	20000b16 	blt	r4,zero,80a1dc <__divsi3+0x3c>
  80a1b0:	0021883a 	mov	r16,zero
  80a1b4:	28000c16 	blt	r5,zero,80a1e8 <__divsi3+0x48>
  80a1b8:	000d883a 	mov	r6,zero
  80a1bc:	080a1340 	call	80a134 <udivmodsi4>
  80a1c0:	0407c83a 	sub	r3,zero,r16
  80a1c4:	1884f03a 	xor	r2,r3,r2
  80a1c8:	1405883a 	add	r2,r2,r16
  80a1cc:	dfc00117 	ldw	ra,4(sp)
  80a1d0:	dc000017 	ldw	r16,0(sp)
  80a1d4:	dec00204 	addi	sp,sp,8
  80a1d8:	f800283a 	ret
  80a1dc:	0109c83a 	sub	r4,zero,r4
  80a1e0:	04000044 	movi	r16,1
  80a1e4:	283ff40e 	bge	r5,zero,80a1b8 <__alt_data_end+0xff80a1b8>
  80a1e8:	014bc83a 	sub	r5,zero,r5
  80a1ec:	8400005c 	xori	r16,r16,1
  80a1f0:	003ff106 	br	80a1b8 <__alt_data_end+0xff80a1b8>

0080a1f4 <__modsi3>:
  80a1f4:	defffd04 	addi	sp,sp,-12
  80a1f8:	dfc00215 	stw	ra,8(sp)
  80a1fc:	dc400115 	stw	r17,4(sp)
  80a200:	dc000015 	stw	r16,0(sp)
  80a204:	20000c16 	blt	r4,zero,80a238 <__modsi3+0x44>
  80a208:	0023883a 	mov	r17,zero
  80a20c:	0021883a 	mov	r16,zero
  80a210:	28000d16 	blt	r5,zero,80a248 <__modsi3+0x54>
  80a214:	01800044 	movi	r6,1
  80a218:	080a1340 	call	80a134 <udivmodsi4>
  80a21c:	1404f03a 	xor	r2,r2,r16
  80a220:	8885883a 	add	r2,r17,r2
  80a224:	dfc00217 	ldw	ra,8(sp)
  80a228:	dc400117 	ldw	r17,4(sp)
  80a22c:	dc000017 	ldw	r16,0(sp)
  80a230:	dec00304 	addi	sp,sp,12
  80a234:	f800283a 	ret
  80a238:	0109c83a 	sub	r4,zero,r4
  80a23c:	04400044 	movi	r17,1
  80a240:	043fffc4 	movi	r16,-1
  80a244:	283ff30e 	bge	r5,zero,80a214 <__alt_data_end+0xff80a214>
  80a248:	014bc83a 	sub	r5,zero,r5
  80a24c:	003ff106 	br	80a214 <__alt_data_end+0xff80a214>

0080a250 <__udivsi3>:
  80a250:	000d883a 	mov	r6,zero
  80a254:	080a1341 	jmpi	80a134 <udivmodsi4>

0080a258 <__umodsi3>:
  80a258:	01800044 	movi	r6,1
  80a25c:	080a1341 	jmpi	80a134 <udivmodsi4>

0080a260 <_fread_r>:
  80a260:	defff504 	addi	sp,sp,-44
  80a264:	dd800715 	stw	r22,28(sp)
  80a268:	39ad383a 	mul	r22,r7,r6
  80a26c:	ddc00815 	stw	r23,32(sp)
  80a270:	dd400615 	stw	r21,24(sp)
  80a274:	dc000115 	stw	r16,4(sp)
  80a278:	dfc00a15 	stw	ra,40(sp)
  80a27c:	df000915 	stw	fp,36(sp)
  80a280:	dd000515 	stw	r20,20(sp)
  80a284:	dcc00415 	stw	r19,16(sp)
  80a288:	dc800315 	stw	r18,12(sp)
  80a28c:	dc400215 	stw	r17,8(sp)
  80a290:	302f883a 	mov	r23,r6
  80a294:	382b883a 	mov	r21,r7
  80a298:	dc000b17 	ldw	r16,44(sp)
  80a29c:	b0003926 	beq	r22,zero,80a384 <_fread_r+0x124>
  80a2a0:	2029883a 	mov	r20,r4
  80a2a4:	2825883a 	mov	r18,r5
  80a2a8:	20000226 	beq	r4,zero,80a2b4 <_fread_r+0x54>
  80a2ac:	20800e17 	ldw	r2,56(r4)
  80a2b0:	10006f26 	beq	r2,zero,80a470 <_fread_r+0x210>
  80a2b4:	80c0030b 	ldhu	r3,12(r16)
  80a2b8:	1888000c 	andi	r2,r3,8192
  80a2bc:	1000061e 	bne	r2,zero,80a2d8 <_fread_r+0x78>
  80a2c0:	81001917 	ldw	r4,100(r16)
  80a2c4:	00b7ffc4 	movi	r2,-8193
  80a2c8:	18c80014 	ori	r3,r3,8192
  80a2cc:	2084703a 	and	r2,r4,r2
  80a2d0:	80c0030d 	sth	r3,12(r16)
  80a2d4:	80801915 	stw	r2,100(r16)
  80a2d8:	84400117 	ldw	r17,4(r16)
  80a2dc:	88002f16 	blt	r17,zero,80a39c <_fread_r+0x13c>
  80a2e0:	18c0008c 	andi	r3,r3,2
  80a2e4:	8805883a 	mov	r2,r17
  80a2e8:	1800311e 	bne	r3,zero,80a3b0 <_fread_r+0x150>
  80a2ec:	b027883a 	mov	r19,r22
  80a2f0:	00000b06 	br	80a320 <_fread_r+0xc0>
  80a2f4:	080b1840 	call	80b184 <memcpy>
  80a2f8:	80800017 	ldw	r2,0(r16)
  80a2fc:	9465883a 	add	r18,r18,r17
  80a300:	9c67c83a 	sub	r19,r19,r17
  80a304:	1463883a 	add	r17,r2,r17
  80a308:	a009883a 	mov	r4,r20
  80a30c:	800b883a 	mov	r5,r16
  80a310:	84400015 	stw	r17,0(r16)
  80a314:	080b41c0 	call	80b41c <__srefill_r>
  80a318:	10001c1e 	bne	r2,zero,80a38c <_fread_r+0x12c>
  80a31c:	84400117 	ldw	r17,4(r16)
  80a320:	9009883a 	mov	r4,r18
  80a324:	880d883a 	mov	r6,r17
  80a328:	81400017 	ldw	r5,0(r16)
  80a32c:	8cfff136 	bltu	r17,r19,80a2f4 <__alt_data_end+0xff80a2f4>
  80a330:	980d883a 	mov	r6,r19
  80a334:	080b1840 	call	80b184 <memcpy>
  80a338:	80c00117 	ldw	r3,4(r16)
  80a33c:	81000017 	ldw	r4,0(r16)
  80a340:	a805883a 	mov	r2,r21
  80a344:	1cc7c83a 	sub	r3,r3,r19
  80a348:	24e7883a 	add	r19,r4,r19
  80a34c:	80c00115 	stw	r3,4(r16)
  80a350:	84c00015 	stw	r19,0(r16)
  80a354:	dfc00a17 	ldw	ra,40(sp)
  80a358:	df000917 	ldw	fp,36(sp)
  80a35c:	ddc00817 	ldw	r23,32(sp)
  80a360:	dd800717 	ldw	r22,28(sp)
  80a364:	dd400617 	ldw	r21,24(sp)
  80a368:	dd000517 	ldw	r20,20(sp)
  80a36c:	dcc00417 	ldw	r19,16(sp)
  80a370:	dc800317 	ldw	r18,12(sp)
  80a374:	dc400217 	ldw	r17,8(sp)
  80a378:	dc000117 	ldw	r16,4(sp)
  80a37c:	dec00b04 	addi	sp,sp,44
  80a380:	f800283a 	ret
  80a384:	0005883a 	mov	r2,zero
  80a388:	003ff206 	br	80a354 <__alt_data_end+0xff80a354>
  80a38c:	b4c9c83a 	sub	r4,r22,r19
  80a390:	b80b883a 	mov	r5,r23
  80a394:	080a2500 	call	80a250 <__udivsi3>
  80a398:	003fee06 	br	80a354 <__alt_data_end+0xff80a354>
  80a39c:	80000115 	stw	zero,4(r16)
  80a3a0:	18c0008c 	andi	r3,r3,2
  80a3a4:	0005883a 	mov	r2,zero
  80a3a8:	0023883a 	mov	r17,zero
  80a3ac:	183fcf26 	beq	r3,zero,80a2ec <__alt_data_end+0xff80a2ec>
  80a3b0:	1023883a 	mov	r17,r2
  80a3b4:	b080012e 	bgeu	r22,r2,80a3bc <_fread_r+0x15c>
  80a3b8:	b023883a 	mov	r17,r22
  80a3bc:	81400017 	ldw	r5,0(r16)
  80a3c0:	9009883a 	mov	r4,r18
  80a3c4:	880d883a 	mov	r6,r17
  80a3c8:	080b1840 	call	80b184 <memcpy>
  80a3cc:	80800117 	ldw	r2,4(r16)
  80a3d0:	84c00017 	ldw	r19,0(r16)
  80a3d4:	81400c17 	ldw	r5,48(r16)
  80a3d8:	1445c83a 	sub	r2,r2,r17
  80a3dc:	9c67883a 	add	r19,r19,r17
  80a3e0:	84c00015 	stw	r19,0(r16)
  80a3e4:	80800115 	stw	r2,4(r16)
  80a3e8:	9465883a 	add	r18,r18,r17
  80a3ec:	b463c83a 	sub	r17,r22,r17
  80a3f0:	28002426 	beq	r5,zero,80a484 <_fread_r+0x224>
  80a3f4:	88002426 	beq	r17,zero,80a488 <_fread_r+0x228>
  80a3f8:	80801004 	addi	r2,r16,64
  80a3fc:	28800326 	beq	r5,r2,80a40c <_fread_r+0x1ac>
  80a400:	a009883a 	mov	r4,r20
  80a404:	080a5f40 	call	80a5f4 <_free_r>
  80a408:	84c00017 	ldw	r19,0(r16)
  80a40c:	80000c15 	stw	zero,48(r16)
  80a410:	80c00417 	ldw	r3,16(r16)
  80a414:	87000517 	ldw	fp,20(r16)
  80a418:	d8c00015 	stw	r3,0(sp)
  80a41c:	00000106 	br	80a424 <_fread_r+0x1c4>
  80a420:	88001926 	beq	r17,zero,80a488 <_fread_r+0x228>
  80a424:	84800415 	stw	r18,16(r16)
  80a428:	84400515 	stw	r17,20(r16)
  80a42c:	84800015 	stw	r18,0(r16)
  80a430:	a009883a 	mov	r4,r20
  80a434:	800b883a 	mov	r5,r16
  80a438:	080b41c0 	call	80b41c <__srefill_r>
  80a43c:	d8c00017 	ldw	r3,0(sp)
  80a440:	81000117 	ldw	r4,4(r16)
  80a444:	87000515 	stw	fp,20(r16)
  80a448:	80c00415 	stw	r3,16(r16)
  80a44c:	84c00015 	stw	r19,0(r16)
  80a450:	80000115 	stw	zero,4(r16)
  80a454:	8923c83a 	sub	r17,r17,r4
  80a458:	9125883a 	add	r18,r18,r4
  80a45c:	103ff026 	beq	r2,zero,80a420 <__alt_data_end+0xff80a420>
  80a460:	b449c83a 	sub	r4,r22,r17
  80a464:	b80b883a 	mov	r5,r23
  80a468:	080a2500 	call	80a250 <__udivsi3>
  80a46c:	003fb906 	br	80a354 <__alt_data_end+0xff80a354>
  80a470:	080bdd80 	call	80bdd8 <__sinit>
  80a474:	80c0030b 	ldhu	r3,12(r16)
  80a478:	1888000c 	andi	r2,r3,8192
  80a47c:	103f961e 	bne	r2,zero,80a2d8 <__alt_data_end+0xff80a2d8>
  80a480:	003f8f06 	br	80a2c0 <__alt_data_end+0xff80a2c0>
  80a484:	883fe21e 	bne	r17,zero,80a410 <__alt_data_end+0xff80a410>
  80a488:	a805883a 	mov	r2,r21
  80a48c:	003fb106 	br	80a354 <__alt_data_end+0xff80a354>

0080a490 <fread>:
  80a490:	00802074 	movhi	r2,129
  80a494:	10889404 	addi	r2,r2,8784
  80a498:	2011883a 	mov	r8,r4
  80a49c:	11000017 	ldw	r4,0(r2)
  80a4a0:	defffe04 	addi	sp,sp,-8
  80a4a4:	2807883a 	mov	r3,r5
  80a4a8:	3005883a 	mov	r2,r6
  80a4ac:	d9c00015 	stw	r7,0(sp)
  80a4b0:	400b883a 	mov	r5,r8
  80a4b4:	180d883a 	mov	r6,r3
  80a4b8:	100f883a 	mov	r7,r2
  80a4bc:	dfc00115 	stw	ra,4(sp)
  80a4c0:	080a2600 	call	80a260 <_fread_r>
  80a4c4:	dfc00117 	ldw	ra,4(sp)
  80a4c8:	dec00204 	addi	sp,sp,8
  80a4cc:	f800283a 	ret

0080a4d0 <_malloc_trim_r>:
  80a4d0:	defffb04 	addi	sp,sp,-20
  80a4d4:	dcc00315 	stw	r19,12(sp)
  80a4d8:	04c02074 	movhi	r19,129
  80a4dc:	dc800215 	stw	r18,8(sp)
  80a4e0:	dc400115 	stw	r17,4(sp)
  80a4e4:	dc000015 	stw	r16,0(sp)
  80a4e8:	dfc00415 	stw	ra,16(sp)
  80a4ec:	2821883a 	mov	r16,r5
  80a4f0:	9cc68904 	addi	r19,r19,6692
  80a4f4:	2025883a 	mov	r18,r4
  80a4f8:	080d0d00 	call	80d0d0 <__malloc_lock>
  80a4fc:	98800217 	ldw	r2,8(r19)
  80a500:	14400117 	ldw	r17,4(r2)
  80a504:	00bfff04 	movi	r2,-4
  80a508:	88a2703a 	and	r17,r17,r2
  80a50c:	8c21c83a 	sub	r16,r17,r16
  80a510:	8403fbc4 	addi	r16,r16,4079
  80a514:	8020d33a 	srli	r16,r16,12
  80a518:	0083ffc4 	movi	r2,4095
  80a51c:	843fffc4 	addi	r16,r16,-1
  80a520:	8020933a 	slli	r16,r16,12
  80a524:	1400060e 	bge	r2,r16,80a540 <_malloc_trim_r+0x70>
  80a528:	9009883a 	mov	r4,r18
  80a52c:	000b883a 	mov	r5,zero
  80a530:	080b6780 	call	80b678 <_sbrk_r>
  80a534:	98c00217 	ldw	r3,8(r19)
  80a538:	1c47883a 	add	r3,r3,r17
  80a53c:	10c00a26 	beq	r2,r3,80a568 <_malloc_trim_r+0x98>
  80a540:	9009883a 	mov	r4,r18
  80a544:	080d0f00 	call	80d0f0 <__malloc_unlock>
  80a548:	0005883a 	mov	r2,zero
  80a54c:	dfc00417 	ldw	ra,16(sp)
  80a550:	dcc00317 	ldw	r19,12(sp)
  80a554:	dc800217 	ldw	r18,8(sp)
  80a558:	dc400117 	ldw	r17,4(sp)
  80a55c:	dc000017 	ldw	r16,0(sp)
  80a560:	dec00504 	addi	sp,sp,20
  80a564:	f800283a 	ret
  80a568:	9009883a 	mov	r4,r18
  80a56c:	040bc83a 	sub	r5,zero,r16
  80a570:	080b6780 	call	80b678 <_sbrk_r>
  80a574:	00ffffc4 	movi	r3,-1
  80a578:	10c00d26 	beq	r2,r3,80a5b0 <_malloc_trim_r+0xe0>
  80a57c:	00c02074 	movhi	r3,129
  80a580:	18cbe104 	addi	r3,r3,12164
  80a584:	18800017 	ldw	r2,0(r3)
  80a588:	99000217 	ldw	r4,8(r19)
  80a58c:	8c23c83a 	sub	r17,r17,r16
  80a590:	8c400054 	ori	r17,r17,1
  80a594:	1421c83a 	sub	r16,r2,r16
  80a598:	24400115 	stw	r17,4(r4)
  80a59c:	9009883a 	mov	r4,r18
  80a5a0:	1c000015 	stw	r16,0(r3)
  80a5a4:	080d0f00 	call	80d0f0 <__malloc_unlock>
  80a5a8:	00800044 	movi	r2,1
  80a5ac:	003fe706 	br	80a54c <__alt_data_end+0xff80a54c>
  80a5b0:	9009883a 	mov	r4,r18
  80a5b4:	000b883a 	mov	r5,zero
  80a5b8:	080b6780 	call	80b678 <_sbrk_r>
  80a5bc:	99000217 	ldw	r4,8(r19)
  80a5c0:	014003c4 	movi	r5,15
  80a5c4:	1107c83a 	sub	r3,r2,r4
  80a5c8:	28ffdd0e 	bge	r5,r3,80a540 <__alt_data_end+0xff80a540>
  80a5cc:	01402074 	movhi	r5,129
  80a5d0:	29489504 	addi	r5,r5,8788
  80a5d4:	29400017 	ldw	r5,0(r5)
  80a5d8:	18c00054 	ori	r3,r3,1
  80a5dc:	20c00115 	stw	r3,4(r4)
  80a5e0:	00c02074 	movhi	r3,129
  80a5e4:	1145c83a 	sub	r2,r2,r5
  80a5e8:	18cbe104 	addi	r3,r3,12164
  80a5ec:	18800015 	stw	r2,0(r3)
  80a5f0:	003fd306 	br	80a540 <__alt_data_end+0xff80a540>

0080a5f4 <_free_r>:
  80a5f4:	28004c26 	beq	r5,zero,80a728 <_free_r+0x134>
  80a5f8:	defffd04 	addi	sp,sp,-12
  80a5fc:	dc400115 	stw	r17,4(sp)
  80a600:	dc000015 	stw	r16,0(sp)
  80a604:	2023883a 	mov	r17,r4
  80a608:	2821883a 	mov	r16,r5
  80a60c:	dfc00215 	stw	ra,8(sp)
  80a610:	080d0d00 	call	80d0d0 <__malloc_lock>
  80a614:	813fff17 	ldw	r4,-4(r16)
  80a618:	00bfff84 	movi	r2,-2
  80a61c:	02402074 	movhi	r9,129
  80a620:	81bffe04 	addi	r6,r16,-8
  80a624:	2084703a 	and	r2,r4,r2
  80a628:	4a468904 	addi	r9,r9,6692
  80a62c:	308b883a 	add	r5,r6,r2
  80a630:	2a000117 	ldw	r8,4(r5)
  80a634:	49c00217 	ldw	r7,8(r9)
  80a638:	00ffff04 	movi	r3,-4
  80a63c:	40c6703a 	and	r3,r8,r3
  80a640:	39405326 	beq	r7,r5,80a790 <_free_r+0x19c>
  80a644:	28c00115 	stw	r3,4(r5)
  80a648:	2100004c 	andi	r4,r4,1
  80a64c:	2000091e 	bne	r4,zero,80a674 <_free_r+0x80>
  80a650:	81fffe17 	ldw	r7,-8(r16)
  80a654:	4a000204 	addi	r8,r9,8
  80a658:	31cdc83a 	sub	r6,r6,r7
  80a65c:	31000217 	ldw	r4,8(r6)
  80a660:	11c5883a 	add	r2,r2,r7
  80a664:	22006126 	beq	r4,r8,80a7ec <_free_r+0x1f8>
  80a668:	31c00317 	ldw	r7,12(r6)
  80a66c:	21c00315 	stw	r7,12(r4)
  80a670:	39000215 	stw	r4,8(r7)
  80a674:	28c9883a 	add	r4,r5,r3
  80a678:	21c00117 	ldw	r7,4(r4)
  80a67c:	39c0004c 	andi	r7,r7,1
  80a680:	38000d1e 	bne	r7,zero,80a6b8 <_free_r+0xc4>
  80a684:	29000217 	ldw	r4,8(r5)
  80a688:	10c5883a 	add	r2,r2,r3
  80a68c:	00c02074 	movhi	r3,129
  80a690:	18c68b04 	addi	r3,r3,6700
  80a694:	20c07526 	beq	r4,r3,80a86c <_free_r+0x278>
  80a698:	29c00317 	ldw	r7,12(r5)
  80a69c:	11400054 	ori	r5,r2,1
  80a6a0:	3087883a 	add	r3,r6,r2
  80a6a4:	21c00315 	stw	r7,12(r4)
  80a6a8:	39000215 	stw	r4,8(r7)
  80a6ac:	31400115 	stw	r5,4(r6)
  80a6b0:	18800015 	stw	r2,0(r3)
  80a6b4:	00000406 	br	80a6c8 <_free_r+0xd4>
  80a6b8:	10c00054 	ori	r3,r2,1
  80a6bc:	30c00115 	stw	r3,4(r6)
  80a6c0:	3087883a 	add	r3,r6,r2
  80a6c4:	18800015 	stw	r2,0(r3)
  80a6c8:	00c07fc4 	movi	r3,511
  80a6cc:	18801736 	bltu	r3,r2,80a72c <_free_r+0x138>
  80a6d0:	1004d0fa 	srli	r2,r2,3
  80a6d4:	01400044 	movi	r5,1
  80a6d8:	49000117 	ldw	r4,4(r9)
  80a6dc:	1087883a 	add	r3,r2,r2
  80a6e0:	18c7883a 	add	r3,r3,r3
  80a6e4:	1005d0ba 	srai	r2,r2,2
  80a6e8:	18c7883a 	add	r3,r3,r3
  80a6ec:	1a47883a 	add	r3,r3,r9
  80a6f0:	19c00217 	ldw	r7,8(r3)
  80a6f4:	2884983a 	sll	r2,r5,r2
  80a6f8:	30c00315 	stw	r3,12(r6)
  80a6fc:	31c00215 	stw	r7,8(r6)
  80a700:	1104b03a 	or	r2,r2,r4
  80a704:	19800215 	stw	r6,8(r3)
  80a708:	48800115 	stw	r2,4(r9)
  80a70c:	39800315 	stw	r6,12(r7)
  80a710:	8809883a 	mov	r4,r17
  80a714:	dfc00217 	ldw	ra,8(sp)
  80a718:	dc400117 	ldw	r17,4(sp)
  80a71c:	dc000017 	ldw	r16,0(sp)
  80a720:	dec00304 	addi	sp,sp,12
  80a724:	080d0f01 	jmpi	80d0f0 <__malloc_unlock>
  80a728:	f800283a 	ret
  80a72c:	1006d27a 	srli	r3,r2,9
  80a730:	01000104 	movi	r4,4
  80a734:	20c04036 	bltu	r4,r3,80a838 <_free_r+0x244>
  80a738:	1006d1ba 	srli	r3,r2,6
  80a73c:	19400e04 	addi	r5,r3,56
  80a740:	2947883a 	add	r3,r5,r5
  80a744:	18c7883a 	add	r3,r3,r3
  80a748:	18c7883a 	add	r3,r3,r3
  80a74c:	1a49883a 	add	r4,r3,r9
  80a750:	20c00217 	ldw	r3,8(r4)
  80a754:	01c02074 	movhi	r7,129
  80a758:	39c68904 	addi	r7,r7,6692
  80a75c:	19003b26 	beq	r3,r4,80a84c <_free_r+0x258>
  80a760:	01ffff04 	movi	r7,-4
  80a764:	19400117 	ldw	r5,4(r3)
  80a768:	29ca703a 	and	r5,r5,r7
  80a76c:	1140022e 	bgeu	r2,r5,80a778 <_free_r+0x184>
  80a770:	18c00217 	ldw	r3,8(r3)
  80a774:	20fffb1e 	bne	r4,r3,80a764 <__alt_data_end+0xff80a764>
  80a778:	18800317 	ldw	r2,12(r3)
  80a77c:	30800315 	stw	r2,12(r6)
  80a780:	30c00215 	stw	r3,8(r6)
  80a784:	11800215 	stw	r6,8(r2)
  80a788:	19800315 	stw	r6,12(r3)
  80a78c:	003fe006 	br	80a710 <__alt_data_end+0xff80a710>
  80a790:	2100004c 	andi	r4,r4,1
  80a794:	1885883a 	add	r2,r3,r2
  80a798:	2000071e 	bne	r4,zero,80a7b8 <_free_r+0x1c4>
  80a79c:	817ffe17 	ldw	r5,-8(r16)
  80a7a0:	314dc83a 	sub	r6,r6,r5
  80a7a4:	30c00317 	ldw	r3,12(r6)
  80a7a8:	31000217 	ldw	r4,8(r6)
  80a7ac:	1145883a 	add	r2,r2,r5
  80a7b0:	20c00315 	stw	r3,12(r4)
  80a7b4:	19000215 	stw	r4,8(r3)
  80a7b8:	10c00054 	ori	r3,r2,1
  80a7bc:	30c00115 	stw	r3,4(r6)
  80a7c0:	00c02074 	movhi	r3,129
  80a7c4:	18c89604 	addi	r3,r3,8792
  80a7c8:	18c00017 	ldw	r3,0(r3)
  80a7cc:	49800215 	stw	r6,8(r9)
  80a7d0:	10ffcf36 	bltu	r2,r3,80a710 <__alt_data_end+0xff80a710>
  80a7d4:	00802074 	movhi	r2,129
  80a7d8:	108bd204 	addi	r2,r2,12104
  80a7dc:	11400017 	ldw	r5,0(r2)
  80a7e0:	8809883a 	mov	r4,r17
  80a7e4:	080a4d00 	call	80a4d0 <_malloc_trim_r>
  80a7e8:	003fc906 	br	80a710 <__alt_data_end+0xff80a710>
  80a7ec:	28c9883a 	add	r4,r5,r3
  80a7f0:	21000117 	ldw	r4,4(r4)
  80a7f4:	2100004c 	andi	r4,r4,1
  80a7f8:	20000a1e 	bne	r4,zero,80a824 <_free_r+0x230>
  80a7fc:	29000317 	ldw	r4,12(r5)
  80a800:	29400217 	ldw	r5,8(r5)
  80a804:	10c5883a 	add	r2,r2,r3
  80a808:	10c00054 	ori	r3,r2,1
  80a80c:	29000315 	stw	r4,12(r5)
  80a810:	21400215 	stw	r5,8(r4)
  80a814:	30c00115 	stw	r3,4(r6)
  80a818:	308d883a 	add	r6,r6,r2
  80a81c:	30800015 	stw	r2,0(r6)
  80a820:	003fbb06 	br	80a710 <__alt_data_end+0xff80a710>
  80a824:	10c00054 	ori	r3,r2,1
  80a828:	30c00115 	stw	r3,4(r6)
  80a82c:	308d883a 	add	r6,r6,r2
  80a830:	30800015 	stw	r2,0(r6)
  80a834:	003fb606 	br	80a710 <__alt_data_end+0xff80a710>
  80a838:	01000504 	movi	r4,20
  80a83c:	20c01436 	bltu	r4,r3,80a890 <_free_r+0x29c>
  80a840:	194016c4 	addi	r5,r3,91
  80a844:	2947883a 	add	r3,r5,r5
  80a848:	003fbe06 	br	80a744 <__alt_data_end+0xff80a744>
  80a84c:	280bd0ba 	srai	r5,r5,2
  80a850:	00800044 	movi	r2,1
  80a854:	39000117 	ldw	r4,4(r7)
  80a858:	114a983a 	sll	r5,r2,r5
  80a85c:	1805883a 	mov	r2,r3
  80a860:	2908b03a 	or	r4,r5,r4
  80a864:	39000115 	stw	r4,4(r7)
  80a868:	003fc406 	br	80a77c <__alt_data_end+0xff80a77c>
  80a86c:	49800515 	stw	r6,20(r9)
  80a870:	49800415 	stw	r6,16(r9)
  80a874:	10c00054 	ori	r3,r2,1
  80a878:	31000315 	stw	r4,12(r6)
  80a87c:	31000215 	stw	r4,8(r6)
  80a880:	30c00115 	stw	r3,4(r6)
  80a884:	308d883a 	add	r6,r6,r2
  80a888:	30800015 	stw	r2,0(r6)
  80a88c:	003fa006 	br	80a710 <__alt_data_end+0xff80a710>
  80a890:	01001504 	movi	r4,84
  80a894:	20c00436 	bltu	r4,r3,80a8a8 <_free_r+0x2b4>
  80a898:	1006d33a 	srli	r3,r2,12
  80a89c:	19401b84 	addi	r5,r3,110
  80a8a0:	2947883a 	add	r3,r5,r5
  80a8a4:	003fa706 	br	80a744 <__alt_data_end+0xff80a744>
  80a8a8:	01005504 	movi	r4,340
  80a8ac:	20c00436 	bltu	r4,r3,80a8c0 <_free_r+0x2cc>
  80a8b0:	1006d3fa 	srli	r3,r2,15
  80a8b4:	19401dc4 	addi	r5,r3,119
  80a8b8:	2947883a 	add	r3,r5,r5
  80a8bc:	003fa106 	br	80a744 <__alt_data_end+0xff80a744>
  80a8c0:	01015504 	movi	r4,1364
  80a8c4:	20c00436 	bltu	r4,r3,80a8d8 <_free_r+0x2e4>
  80a8c8:	1006d4ba 	srli	r3,r2,18
  80a8cc:	19401f04 	addi	r5,r3,124
  80a8d0:	2947883a 	add	r3,r5,r5
  80a8d4:	003f9b06 	br	80a744 <__alt_data_end+0xff80a744>
  80a8d8:	00c03f04 	movi	r3,252
  80a8dc:	01401f84 	movi	r5,126
  80a8e0:	003f9806 	br	80a744 <__alt_data_end+0xff80a744>

0080a8e4 <_getc_r>:
  80a8e4:	defffd04 	addi	sp,sp,-12
  80a8e8:	dc000115 	stw	r16,4(sp)
  80a8ec:	dfc00215 	stw	ra,8(sp)
  80a8f0:	2021883a 	mov	r16,r4
  80a8f4:	20000226 	beq	r4,zero,80a900 <_getc_r+0x1c>
  80a8f8:	20800e17 	ldw	r2,56(r4)
  80a8fc:	10000c26 	beq	r2,zero,80a930 <_getc_r+0x4c>
  80a900:	28800117 	ldw	r2,4(r5)
  80a904:	10bfffc4 	addi	r2,r2,-1
  80a908:	28800115 	stw	r2,4(r5)
  80a90c:	10000c16 	blt	r2,zero,80a940 <_getc_r+0x5c>
  80a910:	28800017 	ldw	r2,0(r5)
  80a914:	10c00044 	addi	r3,r2,1
  80a918:	28c00015 	stw	r3,0(r5)
  80a91c:	10800003 	ldbu	r2,0(r2)
  80a920:	dfc00217 	ldw	ra,8(sp)
  80a924:	dc000117 	ldw	r16,4(sp)
  80a928:	dec00304 	addi	sp,sp,12
  80a92c:	f800283a 	ret
  80a930:	d9400015 	stw	r5,0(sp)
  80a934:	080bdd80 	call	80bdd8 <__sinit>
  80a938:	d9400017 	ldw	r5,0(sp)
  80a93c:	003ff006 	br	80a900 <__alt_data_end+0xff80a900>
  80a940:	8009883a 	mov	r4,r16
  80a944:	dfc00217 	ldw	ra,8(sp)
  80a948:	dc000117 	ldw	r16,4(sp)
  80a94c:	dec00304 	addi	sp,sp,12
  80a950:	080b5f01 	jmpi	80b5f0 <__srget_r>

0080a954 <getc>:
  80a954:	00802074 	movhi	r2,129
  80a958:	defffd04 	addi	sp,sp,-12
  80a95c:	10889404 	addi	r2,r2,8784
  80a960:	dc400115 	stw	r17,4(sp)
  80a964:	14400017 	ldw	r17,0(r2)
  80a968:	dc000015 	stw	r16,0(sp)
  80a96c:	dfc00215 	stw	ra,8(sp)
  80a970:	2021883a 	mov	r16,r4
  80a974:	88000226 	beq	r17,zero,80a980 <getc+0x2c>
  80a978:	88800e17 	ldw	r2,56(r17)
  80a97c:	10000d26 	beq	r2,zero,80a9b4 <getc+0x60>
  80a980:	80800117 	ldw	r2,4(r16)
  80a984:	10bfffc4 	addi	r2,r2,-1
  80a988:	80800115 	stw	r2,4(r16)
  80a98c:	10000c16 	blt	r2,zero,80a9c0 <getc+0x6c>
  80a990:	80800017 	ldw	r2,0(r16)
  80a994:	10c00044 	addi	r3,r2,1
  80a998:	80c00015 	stw	r3,0(r16)
  80a99c:	10800003 	ldbu	r2,0(r2)
  80a9a0:	dfc00217 	ldw	ra,8(sp)
  80a9a4:	dc400117 	ldw	r17,4(sp)
  80a9a8:	dc000017 	ldw	r16,0(sp)
  80a9ac:	dec00304 	addi	sp,sp,12
  80a9b0:	f800283a 	ret
  80a9b4:	8809883a 	mov	r4,r17
  80a9b8:	080bdd80 	call	80bdd8 <__sinit>
  80a9bc:	003ff006 	br	80a980 <__alt_data_end+0xff80a980>
  80a9c0:	8809883a 	mov	r4,r17
  80a9c4:	800b883a 	mov	r5,r16
  80a9c8:	dfc00217 	ldw	ra,8(sp)
  80a9cc:	dc400117 	ldw	r17,4(sp)
  80a9d0:	dc000017 	ldw	r16,0(sp)
  80a9d4:	dec00304 	addi	sp,sp,12
  80a9d8:	080b5f01 	jmpi	80b5f0 <__srget_r>

0080a9dc <_malloc_r>:
  80a9dc:	defff504 	addi	sp,sp,-44
  80a9e0:	dc800315 	stw	r18,12(sp)
  80a9e4:	dfc00a15 	stw	ra,40(sp)
  80a9e8:	df000915 	stw	fp,36(sp)
  80a9ec:	ddc00815 	stw	r23,32(sp)
  80a9f0:	dd800715 	stw	r22,28(sp)
  80a9f4:	dd400615 	stw	r21,24(sp)
  80a9f8:	dd000515 	stw	r20,20(sp)
  80a9fc:	dcc00415 	stw	r19,16(sp)
  80aa00:	dc400215 	stw	r17,8(sp)
  80aa04:	dc000115 	stw	r16,4(sp)
  80aa08:	288002c4 	addi	r2,r5,11
  80aa0c:	00c00584 	movi	r3,22
  80aa10:	2025883a 	mov	r18,r4
  80aa14:	18802a2e 	bgeu	r3,r2,80aac0 <_malloc_r+0xe4>
  80aa18:	047ffe04 	movi	r17,-8
  80aa1c:	1462703a 	and	r17,r2,r17
  80aa20:	88009e16 	blt	r17,zero,80ac9c <_malloc_r+0x2c0>
  80aa24:	89409d36 	bltu	r17,r5,80ac9c <_malloc_r+0x2c0>
  80aa28:	080d0d00 	call	80d0d0 <__malloc_lock>
  80aa2c:	00807dc4 	movi	r2,503
  80aa30:	14402736 	bltu	r2,r17,80aad0 <_malloc_r+0xf4>
  80aa34:	8806d0fa 	srli	r3,r17,3
  80aa38:	04c02074 	movhi	r19,129
  80aa3c:	9cc68904 	addi	r19,r19,6692
  80aa40:	18c5883a 	add	r2,r3,r3
  80aa44:	1085883a 	add	r2,r2,r2
  80aa48:	1085883a 	add	r2,r2,r2
  80aa4c:	9885883a 	add	r2,r19,r2
  80aa50:	14000317 	ldw	r16,12(r2)
  80aa54:	80814a26 	beq	r16,r2,80af80 <_malloc_r+0x5a4>
  80aa58:	80c00117 	ldw	r3,4(r16)
  80aa5c:	81000317 	ldw	r4,12(r16)
  80aa60:	00bfff04 	movi	r2,-4
  80aa64:	1884703a 	and	r2,r3,r2
  80aa68:	81400217 	ldw	r5,8(r16)
  80aa6c:	8085883a 	add	r2,r16,r2
  80aa70:	10c00117 	ldw	r3,4(r2)
  80aa74:	29000315 	stw	r4,12(r5)
  80aa78:	21400215 	stw	r5,8(r4)
  80aa7c:	18c00054 	ori	r3,r3,1
  80aa80:	10c00115 	stw	r3,4(r2)
  80aa84:	9009883a 	mov	r4,r18
  80aa88:	080d0f00 	call	80d0f0 <__malloc_unlock>
  80aa8c:	80800204 	addi	r2,r16,8
  80aa90:	dfc00a17 	ldw	ra,40(sp)
  80aa94:	df000917 	ldw	fp,36(sp)
  80aa98:	ddc00817 	ldw	r23,32(sp)
  80aa9c:	dd800717 	ldw	r22,28(sp)
  80aaa0:	dd400617 	ldw	r21,24(sp)
  80aaa4:	dd000517 	ldw	r20,20(sp)
  80aaa8:	dcc00417 	ldw	r19,16(sp)
  80aaac:	dc800317 	ldw	r18,12(sp)
  80aab0:	dc400217 	ldw	r17,8(sp)
  80aab4:	dc000117 	ldw	r16,4(sp)
  80aab8:	dec00b04 	addi	sp,sp,44
  80aabc:	f800283a 	ret
  80aac0:	04400404 	movi	r17,16
  80aac4:	89407536 	bltu	r17,r5,80ac9c <_malloc_r+0x2c0>
  80aac8:	080d0d00 	call	80d0d0 <__malloc_lock>
  80aacc:	003fd906 	br	80aa34 <__alt_data_end+0xff80aa34>
  80aad0:	8806d27a 	srli	r3,r17,9
  80aad4:	18007526 	beq	r3,zero,80acac <_malloc_r+0x2d0>
  80aad8:	00800104 	movi	r2,4
  80aadc:	10c0ef36 	bltu	r2,r3,80ae9c <_malloc_r+0x4c0>
  80aae0:	8806d1ba 	srli	r3,r17,6
  80aae4:	19c00e04 	addi	r7,r3,56
  80aae8:	39cb883a 	add	r5,r7,r7
  80aaec:	04c02074 	movhi	r19,129
  80aaf0:	294b883a 	add	r5,r5,r5
  80aaf4:	9cc68904 	addi	r19,r19,6692
  80aaf8:	294b883a 	add	r5,r5,r5
  80aafc:	994b883a 	add	r5,r19,r5
  80ab00:	2c000317 	ldw	r16,12(r5)
  80ab04:	2c000e26 	beq	r5,r16,80ab40 <_malloc_r+0x164>
  80ab08:	80800117 	ldw	r2,4(r16)
  80ab0c:	01bfff04 	movi	r6,-4
  80ab10:	010003c4 	movi	r4,15
  80ab14:	1184703a 	and	r2,r2,r6
  80ab18:	1447c83a 	sub	r3,r2,r17
  80ab1c:	20c00716 	blt	r4,r3,80ab3c <_malloc_r+0x160>
  80ab20:	1800650e 	bge	r3,zero,80acb8 <_malloc_r+0x2dc>
  80ab24:	84000317 	ldw	r16,12(r16)
  80ab28:	2c000526 	beq	r5,r16,80ab40 <_malloc_r+0x164>
  80ab2c:	80800117 	ldw	r2,4(r16)
  80ab30:	1184703a 	and	r2,r2,r6
  80ab34:	1447c83a 	sub	r3,r2,r17
  80ab38:	20fff90e 	bge	r4,r3,80ab20 <__alt_data_end+0xff80ab20>
  80ab3c:	39ffffc4 	addi	r7,r7,-1
  80ab40:	38c00044 	addi	r3,r7,1
  80ab44:	01802074 	movhi	r6,129
  80ab48:	9c000417 	ldw	r16,16(r19)
  80ab4c:	31868904 	addi	r6,r6,6692
  80ab50:	32400204 	addi	r9,r6,8
  80ab54:	82410326 	beq	r16,r9,80af64 <_malloc_r+0x588>
  80ab58:	81000117 	ldw	r4,4(r16)
  80ab5c:	00bfff04 	movi	r2,-4
  80ab60:	208e703a 	and	r7,r4,r2
  80ab64:	3c45c83a 	sub	r2,r7,r17
  80ab68:	010003c4 	movi	r4,15
  80ab6c:	2080ee16 	blt	r4,r2,80af28 <_malloc_r+0x54c>
  80ab70:	32400515 	stw	r9,20(r6)
  80ab74:	32400415 	stw	r9,16(r6)
  80ab78:	1000510e 	bge	r2,zero,80acc0 <_malloc_r+0x2e4>
  80ab7c:	00807fc4 	movi	r2,511
  80ab80:	11c0ce36 	bltu	r2,r7,80aebc <_malloc_r+0x4e0>
  80ab84:	3808d0fa 	srli	r4,r7,3
  80ab88:	01c00044 	movi	r7,1
  80ab8c:	30800117 	ldw	r2,4(r6)
  80ab90:	210b883a 	add	r5,r4,r4
  80ab94:	294b883a 	add	r5,r5,r5
  80ab98:	2009d0ba 	srai	r4,r4,2
  80ab9c:	294b883a 	add	r5,r5,r5
  80aba0:	298b883a 	add	r5,r5,r6
  80aba4:	2a000217 	ldw	r8,8(r5)
  80aba8:	3908983a 	sll	r4,r7,r4
  80abac:	81400315 	stw	r5,12(r16)
  80abb0:	82000215 	stw	r8,8(r16)
  80abb4:	2088b03a 	or	r4,r4,r2
  80abb8:	2c000215 	stw	r16,8(r5)
  80abbc:	31000115 	stw	r4,4(r6)
  80abc0:	44000315 	stw	r16,12(r8)
  80abc4:	1805d0ba 	srai	r2,r3,2
  80abc8:	01400044 	movi	r5,1
  80abcc:	288a983a 	sll	r5,r5,r2
  80abd0:	21404336 	bltu	r4,r5,80ace0 <_malloc_r+0x304>
  80abd4:	2144703a 	and	r2,r4,r5
  80abd8:	10000a1e 	bne	r2,zero,80ac04 <_malloc_r+0x228>
  80abdc:	00bfff04 	movi	r2,-4
  80abe0:	294b883a 	add	r5,r5,r5
  80abe4:	1886703a 	and	r3,r3,r2
  80abe8:	2144703a 	and	r2,r4,r5
  80abec:	18c00104 	addi	r3,r3,4
  80abf0:	1000041e 	bne	r2,zero,80ac04 <_malloc_r+0x228>
  80abf4:	294b883a 	add	r5,r5,r5
  80abf8:	2144703a 	and	r2,r4,r5
  80abfc:	18c00104 	addi	r3,r3,4
  80ac00:	103ffc26 	beq	r2,zero,80abf4 <__alt_data_end+0xff80abf4>
  80ac04:	023fff04 	movi	r8,-4
  80ac08:	01c003c4 	movi	r7,15
  80ac0c:	18c5883a 	add	r2,r3,r3
  80ac10:	1085883a 	add	r2,r2,r2
  80ac14:	1085883a 	add	r2,r2,r2
  80ac18:	9895883a 	add	r10,r19,r2
  80ac1c:	52c00304 	addi	r11,r10,12
  80ac20:	1819883a 	mov	r12,r3
  80ac24:	5c000017 	ldw	r16,0(r11)
  80ac28:	59bffd04 	addi	r6,r11,-12
  80ac2c:	8180041e 	bne	r16,r6,80ac40 <_malloc_r+0x264>
  80ac30:	0000ce06 	br	80af6c <_malloc_r+0x590>
  80ac34:	2000d70e 	bge	r4,zero,80af94 <_malloc_r+0x5b8>
  80ac38:	84000317 	ldw	r16,12(r16)
  80ac3c:	8180cb26 	beq	r16,r6,80af6c <_malloc_r+0x590>
  80ac40:	80800117 	ldw	r2,4(r16)
  80ac44:	1204703a 	and	r2,r2,r8
  80ac48:	1449c83a 	sub	r4,r2,r17
  80ac4c:	393ff90e 	bge	r7,r4,80ac34 <__alt_data_end+0xff80ac34>
  80ac50:	80800317 	ldw	r2,12(r16)
  80ac54:	80c00217 	ldw	r3,8(r16)
  80ac58:	89400054 	ori	r5,r17,1
  80ac5c:	81400115 	stw	r5,4(r16)
  80ac60:	18800315 	stw	r2,12(r3)
  80ac64:	10c00215 	stw	r3,8(r2)
  80ac68:	8463883a 	add	r17,r16,r17
  80ac6c:	9c400515 	stw	r17,20(r19)
  80ac70:	9c400415 	stw	r17,16(r19)
  80ac74:	20800054 	ori	r2,r4,1
  80ac78:	88800115 	stw	r2,4(r17)
  80ac7c:	8a400315 	stw	r9,12(r17)
  80ac80:	8a400215 	stw	r9,8(r17)
  80ac84:	8923883a 	add	r17,r17,r4
  80ac88:	89000015 	stw	r4,0(r17)
  80ac8c:	9009883a 	mov	r4,r18
  80ac90:	080d0f00 	call	80d0f0 <__malloc_unlock>
  80ac94:	80800204 	addi	r2,r16,8
  80ac98:	003f7d06 	br	80aa90 <__alt_data_end+0xff80aa90>
  80ac9c:	00800304 	movi	r2,12
  80aca0:	90800015 	stw	r2,0(r18)
  80aca4:	0005883a 	mov	r2,zero
  80aca8:	003f7906 	br	80aa90 <__alt_data_end+0xff80aa90>
  80acac:	01401f84 	movi	r5,126
  80acb0:	01c00fc4 	movi	r7,63
  80acb4:	003f8d06 	br	80aaec <__alt_data_end+0xff80aaec>
  80acb8:	81000317 	ldw	r4,12(r16)
  80acbc:	003f6a06 	br	80aa68 <__alt_data_end+0xff80aa68>
  80acc0:	81c5883a 	add	r2,r16,r7
  80acc4:	10c00117 	ldw	r3,4(r2)
  80acc8:	9009883a 	mov	r4,r18
  80accc:	18c00054 	ori	r3,r3,1
  80acd0:	10c00115 	stw	r3,4(r2)
  80acd4:	080d0f00 	call	80d0f0 <__malloc_unlock>
  80acd8:	80800204 	addi	r2,r16,8
  80acdc:	003f6c06 	br	80aa90 <__alt_data_end+0xff80aa90>
  80ace0:	9c000217 	ldw	r16,8(r19)
  80ace4:	00bfff04 	movi	r2,-4
  80ace8:	85800117 	ldw	r22,4(r16)
  80acec:	b0ac703a 	and	r22,r22,r2
  80acf0:	b4400336 	bltu	r22,r17,80ad00 <_malloc_r+0x324>
  80acf4:	b445c83a 	sub	r2,r22,r17
  80acf8:	00c003c4 	movi	r3,15
  80acfc:	18805d16 	blt	r3,r2,80ae74 <_malloc_r+0x498>
  80ad00:	05c02074 	movhi	r23,129
  80ad04:	00802074 	movhi	r2,129
  80ad08:	bdc89504 	addi	r23,r23,8788
  80ad0c:	108bd204 	addi	r2,r2,12104
  80ad10:	15400017 	ldw	r21,0(r2)
  80ad14:	b9000017 	ldw	r4,0(r23)
  80ad18:	00ffffc4 	movi	r3,-1
  80ad1c:	858d883a 	add	r6,r16,r22
  80ad20:	8d6b883a 	add	r21,r17,r21
  80ad24:	20c0e426 	beq	r4,r3,80b0b8 <_malloc_r+0x6dc>
  80ad28:	ad4403c4 	addi	r21,r21,4111
  80ad2c:	00fc0004 	movi	r3,-4096
  80ad30:	a8ea703a 	and	r21,r21,r3
  80ad34:	9009883a 	mov	r4,r18
  80ad38:	a80b883a 	mov	r5,r21
  80ad3c:	d9800015 	stw	r6,0(sp)
  80ad40:	080b6780 	call	80b678 <_sbrk_r>
  80ad44:	00ffffc4 	movi	r3,-1
  80ad48:	1029883a 	mov	r20,r2
  80ad4c:	d9800017 	ldw	r6,0(sp)
  80ad50:	10c0a426 	beq	r2,r3,80afe4 <_malloc_r+0x608>
  80ad54:	1180a236 	bltu	r2,r6,80afe0 <_malloc_r+0x604>
  80ad58:	07002074 	movhi	fp,129
  80ad5c:	e70be104 	addi	fp,fp,12164
  80ad60:	e0c00017 	ldw	r3,0(fp)
  80ad64:	a8c7883a 	add	r3,r21,r3
  80ad68:	e0c00015 	stw	r3,0(fp)
  80ad6c:	3500da26 	beq	r6,r20,80b0d8 <_malloc_r+0x6fc>
  80ad70:	b9000017 	ldw	r4,0(r23)
  80ad74:	00bfffc4 	movi	r2,-1
  80ad78:	2080e426 	beq	r4,r2,80b10c <_malloc_r+0x730>
  80ad7c:	a185c83a 	sub	r2,r20,r6
  80ad80:	1885883a 	add	r2,r3,r2
  80ad84:	e0800015 	stw	r2,0(fp)
  80ad88:	a0c001cc 	andi	r3,r20,7
  80ad8c:	1800b526 	beq	r3,zero,80b064 <_malloc_r+0x688>
  80ad90:	a0e9c83a 	sub	r20,r20,r3
  80ad94:	00840204 	movi	r2,4104
  80ad98:	a5000204 	addi	r20,r20,8
  80ad9c:	10c7c83a 	sub	r3,r2,r3
  80ada0:	a545883a 	add	r2,r20,r21
  80ada4:	1083ffcc 	andi	r2,r2,4095
  80ada8:	18abc83a 	sub	r21,r3,r2
  80adac:	9009883a 	mov	r4,r18
  80adb0:	a80b883a 	mov	r5,r21
  80adb4:	080b6780 	call	80b678 <_sbrk_r>
  80adb8:	00ffffc4 	movi	r3,-1
  80adbc:	10c0d026 	beq	r2,r3,80b100 <_malloc_r+0x724>
  80adc0:	1507c83a 	sub	r3,r2,r20
  80adc4:	a8c7883a 	add	r3,r21,r3
  80adc8:	18c00054 	ori	r3,r3,1
  80adcc:	e0800017 	ldw	r2,0(fp)
  80add0:	9d000215 	stw	r20,8(r19)
  80add4:	a0c00115 	stw	r3,4(r20)
  80add8:	a887883a 	add	r3,r21,r2
  80addc:	e0c00015 	stw	r3,0(fp)
  80ade0:	84c00e26 	beq	r16,r19,80ae1c <_malloc_r+0x440>
  80ade4:	018003c4 	movi	r6,15
  80ade8:	3580a02e 	bgeu	r6,r22,80b06c <_malloc_r+0x690>
  80adec:	81400117 	ldw	r5,4(r16)
  80adf0:	013ffe04 	movi	r4,-8
  80adf4:	b0bffd04 	addi	r2,r22,-12
  80adf8:	1104703a 	and	r2,r2,r4
  80adfc:	2900004c 	andi	r4,r5,1
  80ae00:	1108b03a 	or	r4,r2,r4
  80ae04:	81000115 	stw	r4,4(r16)
  80ae08:	01400144 	movi	r5,5
  80ae0c:	8089883a 	add	r4,r16,r2
  80ae10:	21400115 	stw	r5,4(r4)
  80ae14:	21400215 	stw	r5,8(r4)
  80ae18:	3080c036 	bltu	r6,r2,80b11c <_malloc_r+0x740>
  80ae1c:	00802074 	movhi	r2,129
  80ae20:	108bd104 	addi	r2,r2,12100
  80ae24:	11000017 	ldw	r4,0(r2)
  80ae28:	20c0012e 	bgeu	r4,r3,80ae30 <_malloc_r+0x454>
  80ae2c:	10c00015 	stw	r3,0(r2)
  80ae30:	00802074 	movhi	r2,129
  80ae34:	108bd004 	addi	r2,r2,12096
  80ae38:	11000017 	ldw	r4,0(r2)
  80ae3c:	9c000217 	ldw	r16,8(r19)
  80ae40:	20c0012e 	bgeu	r4,r3,80ae48 <_malloc_r+0x46c>
  80ae44:	10c00015 	stw	r3,0(r2)
  80ae48:	80c00117 	ldw	r3,4(r16)
  80ae4c:	00bfff04 	movi	r2,-4
  80ae50:	1886703a 	and	r3,r3,r2
  80ae54:	1c45c83a 	sub	r2,r3,r17
  80ae58:	1c400236 	bltu	r3,r17,80ae64 <_malloc_r+0x488>
  80ae5c:	00c003c4 	movi	r3,15
  80ae60:	18800416 	blt	r3,r2,80ae74 <_malloc_r+0x498>
  80ae64:	9009883a 	mov	r4,r18
  80ae68:	080d0f00 	call	80d0f0 <__malloc_unlock>
  80ae6c:	0005883a 	mov	r2,zero
  80ae70:	003f0706 	br	80aa90 <__alt_data_end+0xff80aa90>
  80ae74:	88c00054 	ori	r3,r17,1
  80ae78:	80c00115 	stw	r3,4(r16)
  80ae7c:	8463883a 	add	r17,r16,r17
  80ae80:	10800054 	ori	r2,r2,1
  80ae84:	9c400215 	stw	r17,8(r19)
  80ae88:	88800115 	stw	r2,4(r17)
  80ae8c:	9009883a 	mov	r4,r18
  80ae90:	080d0f00 	call	80d0f0 <__malloc_unlock>
  80ae94:	80800204 	addi	r2,r16,8
  80ae98:	003efd06 	br	80aa90 <__alt_data_end+0xff80aa90>
  80ae9c:	00800504 	movi	r2,20
  80aea0:	10c0482e 	bgeu	r2,r3,80afc4 <_malloc_r+0x5e8>
  80aea4:	00801504 	movi	r2,84
  80aea8:	10c06836 	bltu	r2,r3,80b04c <_malloc_r+0x670>
  80aeac:	8806d33a 	srli	r3,r17,12
  80aeb0:	19c01b84 	addi	r7,r3,110
  80aeb4:	39cb883a 	add	r5,r7,r7
  80aeb8:	003f0c06 	br	80aaec <__alt_data_end+0xff80aaec>
  80aebc:	3804d27a 	srli	r2,r7,9
  80aec0:	01000104 	movi	r4,4
  80aec4:	2080422e 	bgeu	r4,r2,80afd0 <_malloc_r+0x5f4>
  80aec8:	01000504 	movi	r4,20
  80aecc:	20807c36 	bltu	r4,r2,80b0c0 <_malloc_r+0x6e4>
  80aed0:	110016c4 	addi	r4,r2,91
  80aed4:	210b883a 	add	r5,r4,r4
  80aed8:	294b883a 	add	r5,r5,r5
  80aedc:	294b883a 	add	r5,r5,r5
  80aee0:	994b883a 	add	r5,r19,r5
  80aee4:	28800217 	ldw	r2,8(r5)
  80aee8:	02002074 	movhi	r8,129
  80aeec:	42068904 	addi	r8,r8,6692
  80aef0:	11406326 	beq	r2,r5,80b080 <_malloc_r+0x6a4>
  80aef4:	01bfff04 	movi	r6,-4
  80aef8:	11000117 	ldw	r4,4(r2)
  80aefc:	2188703a 	and	r4,r4,r6
  80af00:	3900022e 	bgeu	r7,r4,80af0c <_malloc_r+0x530>
  80af04:	10800217 	ldw	r2,8(r2)
  80af08:	28bffb1e 	bne	r5,r2,80aef8 <__alt_data_end+0xff80aef8>
  80af0c:	11800317 	ldw	r6,12(r2)
  80af10:	99000117 	ldw	r4,4(r19)
  80af14:	81800315 	stw	r6,12(r16)
  80af18:	80800215 	stw	r2,8(r16)
  80af1c:	34000215 	stw	r16,8(r6)
  80af20:	14000315 	stw	r16,12(r2)
  80af24:	003f2706 	br	80abc4 <__alt_data_end+0xff80abc4>
  80af28:	88c00054 	ori	r3,r17,1
  80af2c:	80c00115 	stw	r3,4(r16)
  80af30:	8463883a 	add	r17,r16,r17
  80af34:	34400515 	stw	r17,20(r6)
  80af38:	34400415 	stw	r17,16(r6)
  80af3c:	10c00054 	ori	r3,r2,1
  80af40:	8a400315 	stw	r9,12(r17)
  80af44:	8a400215 	stw	r9,8(r17)
  80af48:	88c00115 	stw	r3,4(r17)
  80af4c:	88a3883a 	add	r17,r17,r2
  80af50:	88800015 	stw	r2,0(r17)
  80af54:	9009883a 	mov	r4,r18
  80af58:	080d0f00 	call	80d0f0 <__malloc_unlock>
  80af5c:	80800204 	addi	r2,r16,8
  80af60:	003ecb06 	br	80aa90 <__alt_data_end+0xff80aa90>
  80af64:	31000117 	ldw	r4,4(r6)
  80af68:	003f1606 	br	80abc4 <__alt_data_end+0xff80abc4>
  80af6c:	63000044 	addi	r12,r12,1
  80af70:	608000cc 	andi	r2,r12,3
  80af74:	5ac00204 	addi	r11,r11,8
  80af78:	103f2a1e 	bne	r2,zero,80ac24 <__alt_data_end+0xff80ac24>
  80af7c:	00002106 	br	80b004 <_malloc_r+0x628>
  80af80:	80800204 	addi	r2,r16,8
  80af84:	84000517 	ldw	r16,20(r16)
  80af88:	143eb31e 	bne	r2,r16,80aa58 <__alt_data_end+0xff80aa58>
  80af8c:	18c00084 	addi	r3,r3,2
  80af90:	003eec06 	br	80ab44 <__alt_data_end+0xff80ab44>
  80af94:	8085883a 	add	r2,r16,r2
  80af98:	10c00117 	ldw	r3,4(r2)
  80af9c:	81000317 	ldw	r4,12(r16)
  80afa0:	81400217 	ldw	r5,8(r16)
  80afa4:	18c00054 	ori	r3,r3,1
  80afa8:	10c00115 	stw	r3,4(r2)
  80afac:	29000315 	stw	r4,12(r5)
  80afb0:	21400215 	stw	r5,8(r4)
  80afb4:	9009883a 	mov	r4,r18
  80afb8:	080d0f00 	call	80d0f0 <__malloc_unlock>
  80afbc:	80800204 	addi	r2,r16,8
  80afc0:	003eb306 	br	80aa90 <__alt_data_end+0xff80aa90>
  80afc4:	19c016c4 	addi	r7,r3,91
  80afc8:	39cb883a 	add	r5,r7,r7
  80afcc:	003ec706 	br	80aaec <__alt_data_end+0xff80aaec>
  80afd0:	3804d1ba 	srli	r2,r7,6
  80afd4:	11000e04 	addi	r4,r2,56
  80afd8:	210b883a 	add	r5,r4,r4
  80afdc:	003fbe06 	br	80aed8 <__alt_data_end+0xff80aed8>
  80afe0:	84ff5d26 	beq	r16,r19,80ad58 <__alt_data_end+0xff80ad58>
  80afe4:	9c000217 	ldw	r16,8(r19)
  80afe8:	00bfff04 	movi	r2,-4
  80afec:	80c00117 	ldw	r3,4(r16)
  80aff0:	1886703a 	and	r3,r3,r2
  80aff4:	003f9706 	br	80ae54 <__alt_data_end+0xff80ae54>
  80aff8:	52800017 	ldw	r10,0(r10)
  80affc:	18ffffc4 	addi	r3,r3,-1
  80b000:	50805c1e 	bne	r10,r2,80b174 <_malloc_r+0x798>
  80b004:	190000cc 	andi	r4,r3,3
  80b008:	50bffe04 	addi	r2,r10,-8
  80b00c:	203ffa1e 	bne	r4,zero,80aff8 <__alt_data_end+0xff80aff8>
  80b010:	98800117 	ldw	r2,4(r19)
  80b014:	0146303a 	nor	r3,zero,r5
  80b018:	1884703a 	and	r2,r3,r2
  80b01c:	98800115 	stw	r2,4(r19)
  80b020:	294b883a 	add	r5,r5,r5
  80b024:	117f2e36 	bltu	r2,r5,80ace0 <__alt_data_end+0xff80ace0>
  80b028:	283f2d26 	beq	r5,zero,80ace0 <__alt_data_end+0xff80ace0>
  80b02c:	1146703a 	and	r3,r2,r5
  80b030:	1800521e 	bne	r3,zero,80b17c <_malloc_r+0x7a0>
  80b034:	6007883a 	mov	r3,r12
  80b038:	294b883a 	add	r5,r5,r5
  80b03c:	1148703a 	and	r4,r2,r5
  80b040:	18c00104 	addi	r3,r3,4
  80b044:	203ffc26 	beq	r4,zero,80b038 <__alt_data_end+0xff80b038>
  80b048:	003ef006 	br	80ac0c <__alt_data_end+0xff80ac0c>
  80b04c:	00805504 	movi	r2,340
  80b050:	10c01336 	bltu	r2,r3,80b0a0 <_malloc_r+0x6c4>
  80b054:	8806d3fa 	srli	r3,r17,15
  80b058:	19c01dc4 	addi	r7,r3,119
  80b05c:	39cb883a 	add	r5,r7,r7
  80b060:	003ea206 	br	80aaec <__alt_data_end+0xff80aaec>
  80b064:	00c40004 	movi	r3,4096
  80b068:	003f4d06 	br	80ada0 <__alt_data_end+0xff80ada0>
  80b06c:	00800044 	movi	r2,1
  80b070:	a0800115 	stw	r2,4(r20)
  80b074:	a021883a 	mov	r16,r20
  80b078:	0007883a 	mov	r3,zero
  80b07c:	003f7506 	br	80ae54 <__alt_data_end+0xff80ae54>
  80b080:	200bd0ba 	srai	r5,r4,2
  80b084:	01800044 	movi	r6,1
  80b088:	41000117 	ldw	r4,4(r8)
  80b08c:	314a983a 	sll	r5,r6,r5
  80b090:	100d883a 	mov	r6,r2
  80b094:	2908b03a 	or	r4,r5,r4
  80b098:	41000115 	stw	r4,4(r8)
  80b09c:	003f9d06 	br	80af14 <__alt_data_end+0xff80af14>
  80b0a0:	00815504 	movi	r2,1364
  80b0a4:	10c01336 	bltu	r2,r3,80b0f4 <_malloc_r+0x718>
  80b0a8:	8806d4ba 	srli	r3,r17,18
  80b0ac:	19c01f04 	addi	r7,r3,124
  80b0b0:	39cb883a 	add	r5,r7,r7
  80b0b4:	003e8d06 	br	80aaec <__alt_data_end+0xff80aaec>
  80b0b8:	ad400404 	addi	r21,r21,16
  80b0bc:	003f1d06 	br	80ad34 <__alt_data_end+0xff80ad34>
  80b0c0:	01001504 	movi	r4,84
  80b0c4:	20801c36 	bltu	r4,r2,80b138 <_malloc_r+0x75c>
  80b0c8:	3804d33a 	srli	r2,r7,12
  80b0cc:	11001b84 	addi	r4,r2,110
  80b0d0:	210b883a 	add	r5,r4,r4
  80b0d4:	003f8006 	br	80aed8 <__alt_data_end+0xff80aed8>
  80b0d8:	3083ffcc 	andi	r2,r6,4095
  80b0dc:	103f241e 	bne	r2,zero,80ad70 <__alt_data_end+0xff80ad70>
  80b0e0:	99000217 	ldw	r4,8(r19)
  80b0e4:	ad85883a 	add	r2,r21,r22
  80b0e8:	10800054 	ori	r2,r2,1
  80b0ec:	20800115 	stw	r2,4(r4)
  80b0f0:	003f4a06 	br	80ae1c <__alt_data_end+0xff80ae1c>
  80b0f4:	01403f04 	movi	r5,252
  80b0f8:	01c01f84 	movi	r7,126
  80b0fc:	003e7b06 	br	80aaec <__alt_data_end+0xff80aaec>
  80b100:	00c00044 	movi	r3,1
  80b104:	002b883a 	mov	r21,zero
  80b108:	003f3006 	br	80adcc <__alt_data_end+0xff80adcc>
  80b10c:	00802074 	movhi	r2,129
  80b110:	10889504 	addi	r2,r2,8788
  80b114:	15000015 	stw	r20,0(r2)
  80b118:	003f1b06 	br	80ad88 <__alt_data_end+0xff80ad88>
  80b11c:	9009883a 	mov	r4,r18
  80b120:	81400204 	addi	r5,r16,8
  80b124:	080a5f40 	call	80a5f4 <_free_r>
  80b128:	00802074 	movhi	r2,129
  80b12c:	108be104 	addi	r2,r2,12164
  80b130:	10c00017 	ldw	r3,0(r2)
  80b134:	003f3906 	br	80ae1c <__alt_data_end+0xff80ae1c>
  80b138:	01005504 	movi	r4,340
  80b13c:	20800436 	bltu	r4,r2,80b150 <_malloc_r+0x774>
  80b140:	3804d3fa 	srli	r2,r7,15
  80b144:	11001dc4 	addi	r4,r2,119
  80b148:	210b883a 	add	r5,r4,r4
  80b14c:	003f6206 	br	80aed8 <__alt_data_end+0xff80aed8>
  80b150:	01015504 	movi	r4,1364
  80b154:	20800436 	bltu	r4,r2,80b168 <_malloc_r+0x78c>
  80b158:	3804d4ba 	srli	r2,r7,18
  80b15c:	11001f04 	addi	r4,r2,124
  80b160:	210b883a 	add	r5,r4,r4
  80b164:	003f5c06 	br	80aed8 <__alt_data_end+0xff80aed8>
  80b168:	01403f04 	movi	r5,252
  80b16c:	01001f84 	movi	r4,126
  80b170:	003f5906 	br	80aed8 <__alt_data_end+0xff80aed8>
  80b174:	98800117 	ldw	r2,4(r19)
  80b178:	003fa906 	br	80b020 <__alt_data_end+0xff80b020>
  80b17c:	6007883a 	mov	r3,r12
  80b180:	003ea206 	br	80ac0c <__alt_data_end+0xff80ac0c>

0080b184 <memcpy>:
  80b184:	deffff04 	addi	sp,sp,-4
  80b188:	dc000015 	stw	r16,0(sp)
  80b18c:	00c003c4 	movi	r3,15
  80b190:	2005883a 	mov	r2,r4
  80b194:	1980432e 	bgeu	r3,r6,80b2a4 <memcpy+0x120>
  80b198:	2146b03a 	or	r3,r4,r5
  80b19c:	18c000cc 	andi	r3,r3,3
  80b1a0:	1800421e 	bne	r3,zero,80b2ac <memcpy+0x128>
  80b1a4:	343ffc04 	addi	r16,r6,-16
  80b1a8:	8020d13a 	srli	r16,r16,4
  80b1ac:	28c00104 	addi	r3,r5,4
  80b1b0:	23400104 	addi	r13,r4,4
  80b1b4:	801e913a 	slli	r15,r16,4
  80b1b8:	2b000204 	addi	r12,r5,8
  80b1bc:	22c00204 	addi	r11,r4,8
  80b1c0:	7bc00504 	addi	r15,r15,20
  80b1c4:	2a800304 	addi	r10,r5,12
  80b1c8:	22400304 	addi	r9,r4,12
  80b1cc:	2bdf883a 	add	r15,r5,r15
  80b1d0:	2811883a 	mov	r8,r5
  80b1d4:	200f883a 	mov	r7,r4
  80b1d8:	41000017 	ldw	r4,0(r8)
  80b1dc:	39c00404 	addi	r7,r7,16
  80b1e0:	18c00404 	addi	r3,r3,16
  80b1e4:	393ffc15 	stw	r4,-16(r7)
  80b1e8:	1bbffc17 	ldw	r14,-16(r3)
  80b1ec:	6b400404 	addi	r13,r13,16
  80b1f0:	5ac00404 	addi	r11,r11,16
  80b1f4:	6bbffc15 	stw	r14,-16(r13)
  80b1f8:	63800017 	ldw	r14,0(r12)
  80b1fc:	4a400404 	addi	r9,r9,16
  80b200:	42000404 	addi	r8,r8,16
  80b204:	5bbffc15 	stw	r14,-16(r11)
  80b208:	53800017 	ldw	r14,0(r10)
  80b20c:	63000404 	addi	r12,r12,16
  80b210:	52800404 	addi	r10,r10,16
  80b214:	4bbffc15 	stw	r14,-16(r9)
  80b218:	1bffef1e 	bne	r3,r15,80b1d8 <__alt_data_end+0xff80b1d8>
  80b21c:	81c00044 	addi	r7,r16,1
  80b220:	380e913a 	slli	r7,r7,4
  80b224:	310003cc 	andi	r4,r6,15
  80b228:	02c000c4 	movi	r11,3
  80b22c:	11c7883a 	add	r3,r2,r7
  80b230:	29cb883a 	add	r5,r5,r7
  80b234:	59001f2e 	bgeu	r11,r4,80b2b4 <memcpy+0x130>
  80b238:	1813883a 	mov	r9,r3
  80b23c:	2811883a 	mov	r8,r5
  80b240:	200f883a 	mov	r7,r4
  80b244:	42800017 	ldw	r10,0(r8)
  80b248:	4a400104 	addi	r9,r9,4
  80b24c:	39ffff04 	addi	r7,r7,-4
  80b250:	4abfff15 	stw	r10,-4(r9)
  80b254:	42000104 	addi	r8,r8,4
  80b258:	59fffa36 	bltu	r11,r7,80b244 <__alt_data_end+0xff80b244>
  80b25c:	213fff04 	addi	r4,r4,-4
  80b260:	2008d0ba 	srli	r4,r4,2
  80b264:	318000cc 	andi	r6,r6,3
  80b268:	21000044 	addi	r4,r4,1
  80b26c:	2109883a 	add	r4,r4,r4
  80b270:	2109883a 	add	r4,r4,r4
  80b274:	1907883a 	add	r3,r3,r4
  80b278:	290b883a 	add	r5,r5,r4
  80b27c:	30000626 	beq	r6,zero,80b298 <memcpy+0x114>
  80b280:	198d883a 	add	r6,r3,r6
  80b284:	29c00003 	ldbu	r7,0(r5)
  80b288:	18c00044 	addi	r3,r3,1
  80b28c:	29400044 	addi	r5,r5,1
  80b290:	19ffffc5 	stb	r7,-1(r3)
  80b294:	19bffb1e 	bne	r3,r6,80b284 <__alt_data_end+0xff80b284>
  80b298:	dc000017 	ldw	r16,0(sp)
  80b29c:	dec00104 	addi	sp,sp,4
  80b2a0:	f800283a 	ret
  80b2a4:	2007883a 	mov	r3,r4
  80b2a8:	003ff406 	br	80b27c <__alt_data_end+0xff80b27c>
  80b2ac:	2007883a 	mov	r3,r4
  80b2b0:	003ff306 	br	80b280 <__alt_data_end+0xff80b280>
  80b2b4:	200d883a 	mov	r6,r4
  80b2b8:	003ff006 	br	80b27c <__alt_data_end+0xff80b27c>

0080b2bc <memset>:
  80b2bc:	20c000cc 	andi	r3,r4,3
  80b2c0:	2005883a 	mov	r2,r4
  80b2c4:	18004326 	beq	r3,zero,80b3d4 <memset+0x118>
  80b2c8:	31ffffc4 	addi	r7,r6,-1
  80b2cc:	30004026 	beq	r6,zero,80b3d0 <memset+0x114>
  80b2d0:	2813883a 	mov	r9,r5
  80b2d4:	200d883a 	mov	r6,r4
  80b2d8:	2007883a 	mov	r3,r4
  80b2dc:	00000406 	br	80b2f0 <memset+0x34>
  80b2e0:	3a3fffc4 	addi	r8,r7,-1
  80b2e4:	31800044 	addi	r6,r6,1
  80b2e8:	38003926 	beq	r7,zero,80b3d0 <memset+0x114>
  80b2ec:	400f883a 	mov	r7,r8
  80b2f0:	18c00044 	addi	r3,r3,1
  80b2f4:	32400005 	stb	r9,0(r6)
  80b2f8:	1a0000cc 	andi	r8,r3,3
  80b2fc:	403ff81e 	bne	r8,zero,80b2e0 <__alt_data_end+0xff80b2e0>
  80b300:	010000c4 	movi	r4,3
  80b304:	21c02d2e 	bgeu	r4,r7,80b3bc <memset+0x100>
  80b308:	29803fcc 	andi	r6,r5,255
  80b30c:	3008923a 	slli	r4,r6,8
  80b310:	218cb03a 	or	r6,r4,r6
  80b314:	3008943a 	slli	r4,r6,16
  80b318:	218cb03a 	or	r6,r4,r6
  80b31c:	010003c4 	movi	r4,15
  80b320:	21c0182e 	bgeu	r4,r7,80b384 <memset+0xc8>
  80b324:	3b3ffc04 	addi	r12,r7,-16
  80b328:	6018d13a 	srli	r12,r12,4
  80b32c:	1a000104 	addi	r8,r3,4
  80b330:	1ac00204 	addi	r11,r3,8
  80b334:	6008913a 	slli	r4,r12,4
  80b338:	1a800304 	addi	r10,r3,12
  80b33c:	1813883a 	mov	r9,r3
  80b340:	21000504 	addi	r4,r4,20
  80b344:	1909883a 	add	r4,r3,r4
  80b348:	49800015 	stw	r6,0(r9)
  80b34c:	41800015 	stw	r6,0(r8)
  80b350:	59800015 	stw	r6,0(r11)
  80b354:	51800015 	stw	r6,0(r10)
  80b358:	42000404 	addi	r8,r8,16
  80b35c:	4a400404 	addi	r9,r9,16
  80b360:	5ac00404 	addi	r11,r11,16
  80b364:	52800404 	addi	r10,r10,16
  80b368:	413ff71e 	bne	r8,r4,80b348 <__alt_data_end+0xff80b348>
  80b36c:	63000044 	addi	r12,r12,1
  80b370:	6018913a 	slli	r12,r12,4
  80b374:	39c003cc 	andi	r7,r7,15
  80b378:	010000c4 	movi	r4,3
  80b37c:	1b07883a 	add	r3,r3,r12
  80b380:	21c00e2e 	bgeu	r4,r7,80b3bc <memset+0x100>
  80b384:	1813883a 	mov	r9,r3
  80b388:	3811883a 	mov	r8,r7
  80b38c:	010000c4 	movi	r4,3
  80b390:	49800015 	stw	r6,0(r9)
  80b394:	423fff04 	addi	r8,r8,-4
  80b398:	4a400104 	addi	r9,r9,4
  80b39c:	223ffc36 	bltu	r4,r8,80b390 <__alt_data_end+0xff80b390>
  80b3a0:	393fff04 	addi	r4,r7,-4
  80b3a4:	2008d0ba 	srli	r4,r4,2
  80b3a8:	39c000cc 	andi	r7,r7,3
  80b3ac:	21000044 	addi	r4,r4,1
  80b3b0:	2109883a 	add	r4,r4,r4
  80b3b4:	2109883a 	add	r4,r4,r4
  80b3b8:	1907883a 	add	r3,r3,r4
  80b3bc:	38000426 	beq	r7,zero,80b3d0 <memset+0x114>
  80b3c0:	19cf883a 	add	r7,r3,r7
  80b3c4:	19400005 	stb	r5,0(r3)
  80b3c8:	18c00044 	addi	r3,r3,1
  80b3cc:	19fffd1e 	bne	r3,r7,80b3c4 <__alt_data_end+0xff80b3c4>
  80b3d0:	f800283a 	ret
  80b3d4:	2007883a 	mov	r3,r4
  80b3d8:	300f883a 	mov	r7,r6
  80b3dc:	003fc806 	br	80b300 <__alt_data_end+0xff80b300>

0080b3e0 <_putchar_r>:
  80b3e0:	21800217 	ldw	r6,8(r4)
  80b3e4:	080c1681 	jmpi	80c168 <_putc_r>

0080b3e8 <putchar>:
  80b3e8:	00802074 	movhi	r2,129
  80b3ec:	10889404 	addi	r2,r2,8784
  80b3f0:	200b883a 	mov	r5,r4
  80b3f4:	11000017 	ldw	r4,0(r2)
  80b3f8:	21800217 	ldw	r6,8(r4)
  80b3fc:	080c1681 	jmpi	80c168 <_putc_r>

0080b400 <lflush>:
  80b400:	2080030b 	ldhu	r2,12(r4)
  80b404:	00c00244 	movi	r3,9
  80b408:	1080024c 	andi	r2,r2,9
  80b40c:	10c00226 	beq	r2,r3,80b418 <lflush+0x18>
  80b410:	0005883a 	mov	r2,zero
  80b414:	f800283a 	ret
  80b418:	080ba581 	jmpi	80ba58 <fflush>

0080b41c <__srefill_r>:
  80b41c:	defffc04 	addi	sp,sp,-16
  80b420:	dc400115 	stw	r17,4(sp)
  80b424:	dc000015 	stw	r16,0(sp)
  80b428:	dfc00315 	stw	ra,12(sp)
  80b42c:	dc800215 	stw	r18,8(sp)
  80b430:	2023883a 	mov	r17,r4
  80b434:	2821883a 	mov	r16,r5
  80b438:	20000226 	beq	r4,zero,80b444 <__srefill_r+0x28>
  80b43c:	20800e17 	ldw	r2,56(r4)
  80b440:	10003c26 	beq	r2,zero,80b534 <__srefill_r+0x118>
  80b444:	80c0030b 	ldhu	r3,12(r16)
  80b448:	1908000c 	andi	r4,r3,8192
  80b44c:	1805883a 	mov	r2,r3
  80b450:	2000071e 	bne	r4,zero,80b470 <__srefill_r+0x54>
  80b454:	81001917 	ldw	r4,100(r16)
  80b458:	18880014 	ori	r2,r3,8192
  80b45c:	00f7ffc4 	movi	r3,-8193
  80b460:	20c8703a 	and	r4,r4,r3
  80b464:	8080030d 	sth	r2,12(r16)
  80b468:	1007883a 	mov	r3,r2
  80b46c:	81001915 	stw	r4,100(r16)
  80b470:	80000115 	stw	zero,4(r16)
  80b474:	1100080c 	andi	r4,r2,32
  80b478:	2000571e 	bne	r4,zero,80b5d8 <__srefill_r+0x1bc>
  80b47c:	1100010c 	andi	r4,r2,4
  80b480:	20001f26 	beq	r4,zero,80b500 <__srefill_r+0xe4>
  80b484:	81400c17 	ldw	r5,48(r16)
  80b488:	28000826 	beq	r5,zero,80b4ac <__srefill_r+0x90>
  80b48c:	80801004 	addi	r2,r16,64
  80b490:	28800226 	beq	r5,r2,80b49c <__srefill_r+0x80>
  80b494:	8809883a 	mov	r4,r17
  80b498:	080a5f40 	call	80a5f4 <_free_r>
  80b49c:	80800f17 	ldw	r2,60(r16)
  80b4a0:	80000c15 	stw	zero,48(r16)
  80b4a4:	80800115 	stw	r2,4(r16)
  80b4a8:	1000391e 	bne	r2,zero,80b590 <__srefill_r+0x174>
  80b4ac:	80800417 	ldw	r2,16(r16)
  80b4b0:	10004b26 	beq	r2,zero,80b5e0 <__srefill_r+0x1c4>
  80b4b4:	8480030b 	ldhu	r18,12(r16)
  80b4b8:	908000cc 	andi	r2,r18,3
  80b4bc:	10001f1e 	bne	r2,zero,80b53c <__srefill_r+0x120>
  80b4c0:	81800417 	ldw	r6,16(r16)
  80b4c4:	80800817 	ldw	r2,32(r16)
  80b4c8:	81400717 	ldw	r5,28(r16)
  80b4cc:	81c00517 	ldw	r7,20(r16)
  80b4d0:	81800015 	stw	r6,0(r16)
  80b4d4:	8809883a 	mov	r4,r17
  80b4d8:	103ee83a 	callr	r2
  80b4dc:	80800115 	stw	r2,4(r16)
  80b4e0:	00800e0e 	bge	zero,r2,80b51c <__srefill_r+0x100>
  80b4e4:	0005883a 	mov	r2,zero
  80b4e8:	dfc00317 	ldw	ra,12(sp)
  80b4ec:	dc800217 	ldw	r18,8(sp)
  80b4f0:	dc400117 	ldw	r17,4(sp)
  80b4f4:	dc000017 	ldw	r16,0(sp)
  80b4f8:	dec00404 	addi	sp,sp,16
  80b4fc:	f800283a 	ret
  80b500:	1100040c 	andi	r4,r2,16
  80b504:	20003026 	beq	r4,zero,80b5c8 <__srefill_r+0x1ac>
  80b508:	1080020c 	andi	r2,r2,8
  80b50c:	1000241e 	bne	r2,zero,80b5a0 <__srefill_r+0x184>
  80b510:	18c00114 	ori	r3,r3,4
  80b514:	80c0030d 	sth	r3,12(r16)
  80b518:	003fe406 	br	80b4ac <__alt_data_end+0xff80b4ac>
  80b51c:	80c0030b 	ldhu	r3,12(r16)
  80b520:	1000161e 	bne	r2,zero,80b57c <__srefill_r+0x160>
  80b524:	18c00814 	ori	r3,r3,32
  80b528:	00bfffc4 	movi	r2,-1
  80b52c:	80c0030d 	sth	r3,12(r16)
  80b530:	003fed06 	br	80b4e8 <__alt_data_end+0xff80b4e8>
  80b534:	080bdd80 	call	80bdd8 <__sinit>
  80b538:	003fc206 	br	80b444 <__alt_data_end+0xff80b444>
  80b53c:	00802074 	movhi	r2,129
  80b540:	10889304 	addi	r2,r2,8780
  80b544:	11000017 	ldw	r4,0(r2)
  80b548:	01402074 	movhi	r5,129
  80b54c:	00800044 	movi	r2,1
  80b550:	296d0004 	addi	r5,r5,-19456
  80b554:	8080030d 	sth	r2,12(r16)
  80b558:	080be280 	call	80be28 <_fwalk>
  80b55c:	00800244 	movi	r2,9
  80b560:	8480030d 	sth	r18,12(r16)
  80b564:	9480024c 	andi	r18,r18,9
  80b568:	90bfd51e 	bne	r18,r2,80b4c0 <__alt_data_end+0xff80b4c0>
  80b56c:	8809883a 	mov	r4,r17
  80b570:	800b883a 	mov	r5,r16
  80b574:	080b7f40 	call	80b7f4 <__sflush_r>
  80b578:	003fd106 	br	80b4c0 <__alt_data_end+0xff80b4c0>
  80b57c:	18c01014 	ori	r3,r3,64
  80b580:	80000115 	stw	zero,4(r16)
  80b584:	00bfffc4 	movi	r2,-1
  80b588:	80c0030d 	sth	r3,12(r16)
  80b58c:	003fd606 	br	80b4e8 <__alt_data_end+0xff80b4e8>
  80b590:	80c00e17 	ldw	r3,56(r16)
  80b594:	0005883a 	mov	r2,zero
  80b598:	80c00015 	stw	r3,0(r16)
  80b59c:	003fd206 	br	80b4e8 <__alt_data_end+0xff80b4e8>
  80b5a0:	8809883a 	mov	r4,r17
  80b5a4:	800b883a 	mov	r5,r16
  80b5a8:	080b9fc0 	call	80b9fc <_fflush_r>
  80b5ac:	10000a1e 	bne	r2,zero,80b5d8 <__srefill_r+0x1bc>
  80b5b0:	8080030b 	ldhu	r2,12(r16)
  80b5b4:	00fffdc4 	movi	r3,-9
  80b5b8:	80000215 	stw	zero,8(r16)
  80b5bc:	1886703a 	and	r3,r3,r2
  80b5c0:	80000615 	stw	zero,24(r16)
  80b5c4:	003fd206 	br	80b510 <__alt_data_end+0xff80b510>
  80b5c8:	00800244 	movi	r2,9
  80b5cc:	88800015 	stw	r2,0(r17)
  80b5d0:	18c01014 	ori	r3,r3,64
  80b5d4:	80c0030d 	sth	r3,12(r16)
  80b5d8:	00bfffc4 	movi	r2,-1
  80b5dc:	003fc206 	br	80b4e8 <__alt_data_end+0xff80b4e8>
  80b5e0:	8809883a 	mov	r4,r17
  80b5e4:	800b883a 	mov	r5,r16
  80b5e8:	080bfb00 	call	80bfb0 <__smakebuf_r>
  80b5ec:	003fb106 	br	80b4b4 <__alt_data_end+0xff80b4b4>

0080b5f0 <__srget_r>:
  80b5f0:	defffd04 	addi	sp,sp,-12
  80b5f4:	dc400115 	stw	r17,4(sp)
  80b5f8:	dc000015 	stw	r16,0(sp)
  80b5fc:	dfc00215 	stw	ra,8(sp)
  80b600:	2023883a 	mov	r17,r4
  80b604:	2821883a 	mov	r16,r5
  80b608:	20000226 	beq	r4,zero,80b614 <__srget_r+0x24>
  80b60c:	20800e17 	ldw	r2,56(r4)
  80b610:	10001026 	beq	r2,zero,80b654 <__srget_r+0x64>
  80b614:	8809883a 	mov	r4,r17
  80b618:	800b883a 	mov	r5,r16
  80b61c:	080b41c0 	call	80b41c <__srefill_r>
  80b620:	10000e1e 	bne	r2,zero,80b65c <__srget_r+0x6c>
  80b624:	80c00017 	ldw	r3,0(r16)
  80b628:	80800117 	ldw	r2,4(r16)
  80b62c:	19000044 	addi	r4,r3,1
  80b630:	10bfffc4 	addi	r2,r2,-1
  80b634:	80800115 	stw	r2,4(r16)
  80b638:	81000015 	stw	r4,0(r16)
  80b63c:	18800003 	ldbu	r2,0(r3)
  80b640:	dfc00217 	ldw	ra,8(sp)
  80b644:	dc400117 	ldw	r17,4(sp)
  80b648:	dc000017 	ldw	r16,0(sp)
  80b64c:	dec00304 	addi	sp,sp,12
  80b650:	f800283a 	ret
  80b654:	080bdd80 	call	80bdd8 <__sinit>
  80b658:	003fee06 	br	80b614 <__alt_data_end+0xff80b614>
  80b65c:	00bfffc4 	movi	r2,-1
  80b660:	003ff706 	br	80b640 <__alt_data_end+0xff80b640>

0080b664 <__srget>:
  80b664:	00802074 	movhi	r2,129
  80b668:	10889404 	addi	r2,r2,8784
  80b66c:	200b883a 	mov	r5,r4
  80b670:	11000017 	ldw	r4,0(r2)
  80b674:	080b5f01 	jmpi	80b5f0 <__srget_r>

0080b678 <_sbrk_r>:
  80b678:	defffd04 	addi	sp,sp,-12
  80b67c:	dc000015 	stw	r16,0(sp)
  80b680:	04002074 	movhi	r16,129
  80b684:	dc400115 	stw	r17,4(sp)
  80b688:	840bd304 	addi	r16,r16,12108
  80b68c:	2023883a 	mov	r17,r4
  80b690:	2809883a 	mov	r4,r5
  80b694:	dfc00215 	stw	ra,8(sp)
  80b698:	80000015 	stw	zero,0(r16)
  80b69c:	080d5280 	call	80d528 <sbrk>
  80b6a0:	00ffffc4 	movi	r3,-1
  80b6a4:	10c00526 	beq	r2,r3,80b6bc <_sbrk_r+0x44>
  80b6a8:	dfc00217 	ldw	ra,8(sp)
  80b6ac:	dc400117 	ldw	r17,4(sp)
  80b6b0:	dc000017 	ldw	r16,0(sp)
  80b6b4:	dec00304 	addi	sp,sp,12
  80b6b8:	f800283a 	ret
  80b6bc:	80c00017 	ldw	r3,0(r16)
  80b6c0:	183ff926 	beq	r3,zero,80b6a8 <__alt_data_end+0xff80b6a8>
  80b6c4:	88c00015 	stw	r3,0(r17)
  80b6c8:	003ff706 	br	80b6a8 <__alt_data_end+0xff80b6a8>

0080b6cc <strcpy>:
  80b6cc:	2906b03a 	or	r3,r5,r4
  80b6d0:	18c000cc 	andi	r3,r3,3
  80b6d4:	2005883a 	mov	r2,r4
  80b6d8:	1800161e 	bne	r3,zero,80b734 <strcpy+0x68>
  80b6dc:	29c00017 	ldw	r7,0(r5)
  80b6e0:	02ffbff4 	movhi	r11,65279
  80b6e4:	5affbfc4 	addi	r11,r11,-257
  80b6e8:	02a02074 	movhi	r10,32897
  80b6ec:	01c8303a 	nor	r4,zero,r7
  80b6f0:	3ac7883a 	add	r3,r7,r11
  80b6f4:	52a02004 	addi	r10,r10,-32640
  80b6f8:	20c6703a 	and	r3,r4,r3
  80b6fc:	1a86703a 	and	r3,r3,r10
  80b700:	18000c1e 	bne	r3,zero,80b734 <strcpy+0x68>
  80b704:	1011883a 	mov	r8,r2
  80b708:	41c00015 	stw	r7,0(r8)
  80b70c:	29400104 	addi	r5,r5,4
  80b710:	29c00017 	ldw	r7,0(r5)
  80b714:	41800104 	addi	r6,r8,4
  80b718:	3011883a 	mov	r8,r6
  80b71c:	01d2303a 	nor	r9,zero,r7
  80b720:	3ac7883a 	add	r3,r7,r11
  80b724:	48c6703a 	and	r3,r9,r3
  80b728:	1a86703a 	and	r3,r3,r10
  80b72c:	183ff626 	beq	r3,zero,80b708 <__alt_data_end+0xff80b708>
  80b730:	00000106 	br	80b738 <strcpy+0x6c>
  80b734:	100d883a 	mov	r6,r2
  80b738:	28c00003 	ldbu	r3,0(r5)
  80b73c:	31800044 	addi	r6,r6,1
  80b740:	29400044 	addi	r5,r5,1
  80b744:	30ffffc5 	stb	r3,-1(r6)
  80b748:	18c03fcc 	andi	r3,r3,255
  80b74c:	18c0201c 	xori	r3,r3,128
  80b750:	18ffe004 	addi	r3,r3,-128
  80b754:	183ff81e 	bne	r3,zero,80b738 <__alt_data_end+0xff80b738>
  80b758:	f800283a 	ret

0080b75c <strlen>:
  80b75c:	208000cc 	andi	r2,r4,3
  80b760:	10002026 	beq	r2,zero,80b7e4 <strlen+0x88>
  80b764:	20800007 	ldb	r2,0(r4)
  80b768:	10002026 	beq	r2,zero,80b7ec <strlen+0x90>
  80b76c:	2005883a 	mov	r2,r4
  80b770:	00000206 	br	80b77c <strlen+0x20>
  80b774:	10c00007 	ldb	r3,0(r2)
  80b778:	18001826 	beq	r3,zero,80b7dc <strlen+0x80>
  80b77c:	10800044 	addi	r2,r2,1
  80b780:	10c000cc 	andi	r3,r2,3
  80b784:	183ffb1e 	bne	r3,zero,80b774 <__alt_data_end+0xff80b774>
  80b788:	10c00017 	ldw	r3,0(r2)
  80b78c:	01ffbff4 	movhi	r7,65279
  80b790:	39ffbfc4 	addi	r7,r7,-257
  80b794:	00ca303a 	nor	r5,zero,r3
  80b798:	01a02074 	movhi	r6,32897
  80b79c:	19c7883a 	add	r3,r3,r7
  80b7a0:	31a02004 	addi	r6,r6,-32640
  80b7a4:	1946703a 	and	r3,r3,r5
  80b7a8:	1986703a 	and	r3,r3,r6
  80b7ac:	1800091e 	bne	r3,zero,80b7d4 <strlen+0x78>
  80b7b0:	10800104 	addi	r2,r2,4
  80b7b4:	10c00017 	ldw	r3,0(r2)
  80b7b8:	19cb883a 	add	r5,r3,r7
  80b7bc:	00c6303a 	nor	r3,zero,r3
  80b7c0:	28c6703a 	and	r3,r5,r3
  80b7c4:	1986703a 	and	r3,r3,r6
  80b7c8:	183ff926 	beq	r3,zero,80b7b0 <__alt_data_end+0xff80b7b0>
  80b7cc:	00000106 	br	80b7d4 <strlen+0x78>
  80b7d0:	10800044 	addi	r2,r2,1
  80b7d4:	10c00007 	ldb	r3,0(r2)
  80b7d8:	183ffd1e 	bne	r3,zero,80b7d0 <__alt_data_end+0xff80b7d0>
  80b7dc:	1105c83a 	sub	r2,r2,r4
  80b7e0:	f800283a 	ret
  80b7e4:	2005883a 	mov	r2,r4
  80b7e8:	003fe706 	br	80b788 <__alt_data_end+0xff80b788>
  80b7ec:	0005883a 	mov	r2,zero
  80b7f0:	f800283a 	ret

0080b7f4 <__sflush_r>:
  80b7f4:	2880030b 	ldhu	r2,12(r5)
  80b7f8:	defffb04 	addi	sp,sp,-20
  80b7fc:	dcc00315 	stw	r19,12(sp)
  80b800:	dc400115 	stw	r17,4(sp)
  80b804:	dfc00415 	stw	ra,16(sp)
  80b808:	dc800215 	stw	r18,8(sp)
  80b80c:	dc000015 	stw	r16,0(sp)
  80b810:	10c0020c 	andi	r3,r2,8
  80b814:	2823883a 	mov	r17,r5
  80b818:	2027883a 	mov	r19,r4
  80b81c:	1800311e 	bne	r3,zero,80b8e4 <__sflush_r+0xf0>
  80b820:	28c00117 	ldw	r3,4(r5)
  80b824:	10820014 	ori	r2,r2,2048
  80b828:	2880030d 	sth	r2,12(r5)
  80b82c:	00c04b0e 	bge	zero,r3,80b95c <__sflush_r+0x168>
  80b830:	8a000a17 	ldw	r8,40(r17)
  80b834:	40002326 	beq	r8,zero,80b8c4 <__sflush_r+0xd0>
  80b838:	9c000017 	ldw	r16,0(r19)
  80b83c:	10c4000c 	andi	r3,r2,4096
  80b840:	98000015 	stw	zero,0(r19)
  80b844:	18004826 	beq	r3,zero,80b968 <__sflush_r+0x174>
  80b848:	89801417 	ldw	r6,80(r17)
  80b84c:	10c0010c 	andi	r3,r2,4
  80b850:	18000626 	beq	r3,zero,80b86c <__sflush_r+0x78>
  80b854:	88c00117 	ldw	r3,4(r17)
  80b858:	88800c17 	ldw	r2,48(r17)
  80b85c:	30cdc83a 	sub	r6,r6,r3
  80b860:	10000226 	beq	r2,zero,80b86c <__sflush_r+0x78>
  80b864:	88800f17 	ldw	r2,60(r17)
  80b868:	308dc83a 	sub	r6,r6,r2
  80b86c:	89400717 	ldw	r5,28(r17)
  80b870:	9809883a 	mov	r4,r19
  80b874:	000f883a 	mov	r7,zero
  80b878:	403ee83a 	callr	r8
  80b87c:	00ffffc4 	movi	r3,-1
  80b880:	10c04426 	beq	r2,r3,80b994 <__sflush_r+0x1a0>
  80b884:	88c0030b 	ldhu	r3,12(r17)
  80b888:	89000417 	ldw	r4,16(r17)
  80b88c:	88000115 	stw	zero,4(r17)
  80b890:	197dffcc 	andi	r5,r3,63487
  80b894:	8940030d 	sth	r5,12(r17)
  80b898:	89000015 	stw	r4,0(r17)
  80b89c:	18c4000c 	andi	r3,r3,4096
  80b8a0:	18002c1e 	bne	r3,zero,80b954 <__sflush_r+0x160>
  80b8a4:	89400c17 	ldw	r5,48(r17)
  80b8a8:	9c000015 	stw	r16,0(r19)
  80b8ac:	28000526 	beq	r5,zero,80b8c4 <__sflush_r+0xd0>
  80b8b0:	88801004 	addi	r2,r17,64
  80b8b4:	28800226 	beq	r5,r2,80b8c0 <__sflush_r+0xcc>
  80b8b8:	9809883a 	mov	r4,r19
  80b8bc:	080a5f40 	call	80a5f4 <_free_r>
  80b8c0:	88000c15 	stw	zero,48(r17)
  80b8c4:	0005883a 	mov	r2,zero
  80b8c8:	dfc00417 	ldw	ra,16(sp)
  80b8cc:	dcc00317 	ldw	r19,12(sp)
  80b8d0:	dc800217 	ldw	r18,8(sp)
  80b8d4:	dc400117 	ldw	r17,4(sp)
  80b8d8:	dc000017 	ldw	r16,0(sp)
  80b8dc:	dec00504 	addi	sp,sp,20
  80b8e0:	f800283a 	ret
  80b8e4:	2c800417 	ldw	r18,16(r5)
  80b8e8:	903ff626 	beq	r18,zero,80b8c4 <__alt_data_end+0xff80b8c4>
  80b8ec:	2c000017 	ldw	r16,0(r5)
  80b8f0:	108000cc 	andi	r2,r2,3
  80b8f4:	2c800015 	stw	r18,0(r5)
  80b8f8:	84a1c83a 	sub	r16,r16,r18
  80b8fc:	1000131e 	bne	r2,zero,80b94c <__sflush_r+0x158>
  80b900:	28800517 	ldw	r2,20(r5)
  80b904:	88800215 	stw	r2,8(r17)
  80b908:	04000316 	blt	zero,r16,80b918 <__sflush_r+0x124>
  80b90c:	003fed06 	br	80b8c4 <__alt_data_end+0xff80b8c4>
  80b910:	90a5883a 	add	r18,r18,r2
  80b914:	043feb0e 	bge	zero,r16,80b8c4 <__alt_data_end+0xff80b8c4>
  80b918:	88800917 	ldw	r2,36(r17)
  80b91c:	89400717 	ldw	r5,28(r17)
  80b920:	800f883a 	mov	r7,r16
  80b924:	900d883a 	mov	r6,r18
  80b928:	9809883a 	mov	r4,r19
  80b92c:	103ee83a 	callr	r2
  80b930:	80a1c83a 	sub	r16,r16,r2
  80b934:	00bff616 	blt	zero,r2,80b910 <__alt_data_end+0xff80b910>
  80b938:	88c0030b 	ldhu	r3,12(r17)
  80b93c:	00bfffc4 	movi	r2,-1
  80b940:	18c01014 	ori	r3,r3,64
  80b944:	88c0030d 	sth	r3,12(r17)
  80b948:	003fdf06 	br	80b8c8 <__alt_data_end+0xff80b8c8>
  80b94c:	0005883a 	mov	r2,zero
  80b950:	003fec06 	br	80b904 <__alt_data_end+0xff80b904>
  80b954:	88801415 	stw	r2,80(r17)
  80b958:	003fd206 	br	80b8a4 <__alt_data_end+0xff80b8a4>
  80b95c:	28c00f17 	ldw	r3,60(r5)
  80b960:	00ffb316 	blt	zero,r3,80b830 <__alt_data_end+0xff80b830>
  80b964:	003fd706 	br	80b8c4 <__alt_data_end+0xff80b8c4>
  80b968:	89400717 	ldw	r5,28(r17)
  80b96c:	000d883a 	mov	r6,zero
  80b970:	9809883a 	mov	r4,r19
  80b974:	01c00044 	movi	r7,1
  80b978:	403ee83a 	callr	r8
  80b97c:	100d883a 	mov	r6,r2
  80b980:	00bfffc4 	movi	r2,-1
  80b984:	30801426 	beq	r6,r2,80b9d8 <__sflush_r+0x1e4>
  80b988:	8880030b 	ldhu	r2,12(r17)
  80b98c:	8a000a17 	ldw	r8,40(r17)
  80b990:	003fae06 	br	80b84c <__alt_data_end+0xff80b84c>
  80b994:	98c00017 	ldw	r3,0(r19)
  80b998:	183fba26 	beq	r3,zero,80b884 <__alt_data_end+0xff80b884>
  80b99c:	01000744 	movi	r4,29
  80b9a0:	19000626 	beq	r3,r4,80b9bc <__sflush_r+0x1c8>
  80b9a4:	01000584 	movi	r4,22
  80b9a8:	19000426 	beq	r3,r4,80b9bc <__sflush_r+0x1c8>
  80b9ac:	88c0030b 	ldhu	r3,12(r17)
  80b9b0:	18c01014 	ori	r3,r3,64
  80b9b4:	88c0030d 	sth	r3,12(r17)
  80b9b8:	003fc306 	br	80b8c8 <__alt_data_end+0xff80b8c8>
  80b9bc:	8880030b 	ldhu	r2,12(r17)
  80b9c0:	88c00417 	ldw	r3,16(r17)
  80b9c4:	88000115 	stw	zero,4(r17)
  80b9c8:	10bdffcc 	andi	r2,r2,63487
  80b9cc:	8880030d 	sth	r2,12(r17)
  80b9d0:	88c00015 	stw	r3,0(r17)
  80b9d4:	003fb306 	br	80b8a4 <__alt_data_end+0xff80b8a4>
  80b9d8:	98800017 	ldw	r2,0(r19)
  80b9dc:	103fea26 	beq	r2,zero,80b988 <__alt_data_end+0xff80b988>
  80b9e0:	00c00744 	movi	r3,29
  80b9e4:	10c00226 	beq	r2,r3,80b9f0 <__sflush_r+0x1fc>
  80b9e8:	00c00584 	movi	r3,22
  80b9ec:	10ffd21e 	bne	r2,r3,80b938 <__alt_data_end+0xff80b938>
  80b9f0:	9c000015 	stw	r16,0(r19)
  80b9f4:	0005883a 	mov	r2,zero
  80b9f8:	003fb306 	br	80b8c8 <__alt_data_end+0xff80b8c8>

0080b9fc <_fflush_r>:
  80b9fc:	defffd04 	addi	sp,sp,-12
  80ba00:	dc000115 	stw	r16,4(sp)
  80ba04:	dfc00215 	stw	ra,8(sp)
  80ba08:	2021883a 	mov	r16,r4
  80ba0c:	20000226 	beq	r4,zero,80ba18 <_fflush_r+0x1c>
  80ba10:	20800e17 	ldw	r2,56(r4)
  80ba14:	10000c26 	beq	r2,zero,80ba48 <_fflush_r+0x4c>
  80ba18:	2880030f 	ldh	r2,12(r5)
  80ba1c:	1000051e 	bne	r2,zero,80ba34 <_fflush_r+0x38>
  80ba20:	0005883a 	mov	r2,zero
  80ba24:	dfc00217 	ldw	ra,8(sp)
  80ba28:	dc000117 	ldw	r16,4(sp)
  80ba2c:	dec00304 	addi	sp,sp,12
  80ba30:	f800283a 	ret
  80ba34:	8009883a 	mov	r4,r16
  80ba38:	dfc00217 	ldw	ra,8(sp)
  80ba3c:	dc000117 	ldw	r16,4(sp)
  80ba40:	dec00304 	addi	sp,sp,12
  80ba44:	080b7f41 	jmpi	80b7f4 <__sflush_r>
  80ba48:	d9400015 	stw	r5,0(sp)
  80ba4c:	080bdd80 	call	80bdd8 <__sinit>
  80ba50:	d9400017 	ldw	r5,0(sp)
  80ba54:	003ff006 	br	80ba18 <__alt_data_end+0xff80ba18>

0080ba58 <fflush>:
  80ba58:	20000526 	beq	r4,zero,80ba70 <fflush+0x18>
  80ba5c:	00802074 	movhi	r2,129
  80ba60:	10889404 	addi	r2,r2,8784
  80ba64:	200b883a 	mov	r5,r4
  80ba68:	11000017 	ldw	r4,0(r2)
  80ba6c:	080b9fc1 	jmpi	80b9fc <_fflush_r>
  80ba70:	00802074 	movhi	r2,129
  80ba74:	10889304 	addi	r2,r2,8780
  80ba78:	11000017 	ldw	r4,0(r2)
  80ba7c:	01402074 	movhi	r5,129
  80ba80:	296e7f04 	addi	r5,r5,-17924
  80ba84:	080beec1 	jmpi	80beec <_fwalk_reent>

0080ba88 <__fp_lock>:
  80ba88:	0005883a 	mov	r2,zero
  80ba8c:	f800283a 	ret

0080ba90 <__fp_unlock>:
  80ba90:	0005883a 	mov	r2,zero
  80ba94:	f800283a 	ret

0080ba98 <_cleanup_r>:
  80ba98:	01402074 	movhi	r5,129
  80ba9c:	2971da04 	addi	r5,r5,-14488
  80baa0:	080beec1 	jmpi	80beec <_fwalk_reent>

0080baa4 <__sinit.part.1>:
  80baa4:	defff704 	addi	sp,sp,-36
  80baa8:	00c02074 	movhi	r3,129
  80baac:	dfc00815 	stw	ra,32(sp)
  80bab0:	ddc00715 	stw	r23,28(sp)
  80bab4:	dd800615 	stw	r22,24(sp)
  80bab8:	dd400515 	stw	r21,20(sp)
  80babc:	dd000415 	stw	r20,16(sp)
  80bac0:	dcc00315 	stw	r19,12(sp)
  80bac4:	dc800215 	stw	r18,8(sp)
  80bac8:	dc400115 	stw	r17,4(sp)
  80bacc:	dc000015 	stw	r16,0(sp)
  80bad0:	18eea604 	addi	r3,r3,-17768
  80bad4:	24000117 	ldw	r16,4(r4)
  80bad8:	20c00f15 	stw	r3,60(r4)
  80badc:	2080bb04 	addi	r2,r4,748
  80bae0:	00c000c4 	movi	r3,3
  80bae4:	20c0b915 	stw	r3,740(r4)
  80bae8:	2080ba15 	stw	r2,744(r4)
  80baec:	2000b815 	stw	zero,736(r4)
  80baf0:	05c00204 	movi	r23,8
  80baf4:	00800104 	movi	r2,4
  80baf8:	2025883a 	mov	r18,r4
  80bafc:	b80d883a 	mov	r6,r23
  80bb00:	81001704 	addi	r4,r16,92
  80bb04:	000b883a 	mov	r5,zero
  80bb08:	80000015 	stw	zero,0(r16)
  80bb0c:	80000115 	stw	zero,4(r16)
  80bb10:	80000215 	stw	zero,8(r16)
  80bb14:	8080030d 	sth	r2,12(r16)
  80bb18:	80001915 	stw	zero,100(r16)
  80bb1c:	8000038d 	sth	zero,14(r16)
  80bb20:	80000415 	stw	zero,16(r16)
  80bb24:	80000515 	stw	zero,20(r16)
  80bb28:	80000615 	stw	zero,24(r16)
  80bb2c:	080b2bc0 	call	80b2bc <memset>
  80bb30:	05802074 	movhi	r22,129
  80bb34:	94400217 	ldw	r17,8(r18)
  80bb38:	05402074 	movhi	r21,129
  80bb3c:	05002074 	movhi	r20,129
  80bb40:	04c02074 	movhi	r19,129
  80bb44:	b5b0b504 	addi	r22,r22,-15660
  80bb48:	ad70cc04 	addi	r21,r21,-15568
  80bb4c:	a530eb04 	addi	r20,r20,-15444
  80bb50:	9cf10204 	addi	r19,r19,-15352
  80bb54:	85800815 	stw	r22,32(r16)
  80bb58:	85400915 	stw	r21,36(r16)
  80bb5c:	85000a15 	stw	r20,40(r16)
  80bb60:	84c00b15 	stw	r19,44(r16)
  80bb64:	84000715 	stw	r16,28(r16)
  80bb68:	00800284 	movi	r2,10
  80bb6c:	8880030d 	sth	r2,12(r17)
  80bb70:	00800044 	movi	r2,1
  80bb74:	89001704 	addi	r4,r17,92
  80bb78:	b80d883a 	mov	r6,r23
  80bb7c:	000b883a 	mov	r5,zero
  80bb80:	88000015 	stw	zero,0(r17)
  80bb84:	88000115 	stw	zero,4(r17)
  80bb88:	88000215 	stw	zero,8(r17)
  80bb8c:	88001915 	stw	zero,100(r17)
  80bb90:	8880038d 	sth	r2,14(r17)
  80bb94:	88000415 	stw	zero,16(r17)
  80bb98:	88000515 	stw	zero,20(r17)
  80bb9c:	88000615 	stw	zero,24(r17)
  80bba0:	080b2bc0 	call	80b2bc <memset>
  80bba4:	94000317 	ldw	r16,12(r18)
  80bba8:	00800484 	movi	r2,18
  80bbac:	8c400715 	stw	r17,28(r17)
  80bbb0:	8d800815 	stw	r22,32(r17)
  80bbb4:	8d400915 	stw	r21,36(r17)
  80bbb8:	8d000a15 	stw	r20,40(r17)
  80bbbc:	8cc00b15 	stw	r19,44(r17)
  80bbc0:	8080030d 	sth	r2,12(r16)
  80bbc4:	00800084 	movi	r2,2
  80bbc8:	80000015 	stw	zero,0(r16)
  80bbcc:	80000115 	stw	zero,4(r16)
  80bbd0:	80000215 	stw	zero,8(r16)
  80bbd4:	80001915 	stw	zero,100(r16)
  80bbd8:	8080038d 	sth	r2,14(r16)
  80bbdc:	80000415 	stw	zero,16(r16)
  80bbe0:	80000515 	stw	zero,20(r16)
  80bbe4:	80000615 	stw	zero,24(r16)
  80bbe8:	81001704 	addi	r4,r16,92
  80bbec:	000b883a 	mov	r5,zero
  80bbf0:	b80d883a 	mov	r6,r23
  80bbf4:	080b2bc0 	call	80b2bc <memset>
  80bbf8:	00800044 	movi	r2,1
  80bbfc:	84000715 	stw	r16,28(r16)
  80bc00:	85800815 	stw	r22,32(r16)
  80bc04:	85400915 	stw	r21,36(r16)
  80bc08:	85000a15 	stw	r20,40(r16)
  80bc0c:	84c00b15 	stw	r19,44(r16)
  80bc10:	90800e15 	stw	r2,56(r18)
  80bc14:	dfc00817 	ldw	ra,32(sp)
  80bc18:	ddc00717 	ldw	r23,28(sp)
  80bc1c:	dd800617 	ldw	r22,24(sp)
  80bc20:	dd400517 	ldw	r21,20(sp)
  80bc24:	dd000417 	ldw	r20,16(sp)
  80bc28:	dcc00317 	ldw	r19,12(sp)
  80bc2c:	dc800217 	ldw	r18,8(sp)
  80bc30:	dc400117 	ldw	r17,4(sp)
  80bc34:	dc000017 	ldw	r16,0(sp)
  80bc38:	dec00904 	addi	sp,sp,36
  80bc3c:	f800283a 	ret

0080bc40 <__sfmoreglue>:
  80bc40:	defffc04 	addi	sp,sp,-16
  80bc44:	dc400115 	stw	r17,4(sp)
  80bc48:	2c7fffc4 	addi	r17,r5,-1
  80bc4c:	8c401a24 	muli	r17,r17,104
  80bc50:	dc800215 	stw	r18,8(sp)
  80bc54:	2825883a 	mov	r18,r5
  80bc58:	89401d04 	addi	r5,r17,116
  80bc5c:	dc000015 	stw	r16,0(sp)
  80bc60:	dfc00315 	stw	ra,12(sp)
  80bc64:	080a9dc0 	call	80a9dc <_malloc_r>
  80bc68:	1021883a 	mov	r16,r2
  80bc6c:	10000726 	beq	r2,zero,80bc8c <__sfmoreglue+0x4c>
  80bc70:	11000304 	addi	r4,r2,12
  80bc74:	10000015 	stw	zero,0(r2)
  80bc78:	14800115 	stw	r18,4(r2)
  80bc7c:	11000215 	stw	r4,8(r2)
  80bc80:	000b883a 	mov	r5,zero
  80bc84:	89801a04 	addi	r6,r17,104
  80bc88:	080b2bc0 	call	80b2bc <memset>
  80bc8c:	8005883a 	mov	r2,r16
  80bc90:	dfc00317 	ldw	ra,12(sp)
  80bc94:	dc800217 	ldw	r18,8(sp)
  80bc98:	dc400117 	ldw	r17,4(sp)
  80bc9c:	dc000017 	ldw	r16,0(sp)
  80bca0:	dec00404 	addi	sp,sp,16
  80bca4:	f800283a 	ret

0080bca8 <__sfp>:
  80bca8:	00802074 	movhi	r2,129
  80bcac:	defffb04 	addi	sp,sp,-20
  80bcb0:	10889304 	addi	r2,r2,8780
  80bcb4:	dc800215 	stw	r18,8(sp)
  80bcb8:	14800017 	ldw	r18,0(r2)
  80bcbc:	dcc00315 	stw	r19,12(sp)
  80bcc0:	dfc00415 	stw	ra,16(sp)
  80bcc4:	90800e17 	ldw	r2,56(r18)
  80bcc8:	dc400115 	stw	r17,4(sp)
  80bccc:	dc000015 	stw	r16,0(sp)
  80bcd0:	2027883a 	mov	r19,r4
  80bcd4:	1000021e 	bne	r2,zero,80bce0 <__sfp+0x38>
  80bcd8:	9009883a 	mov	r4,r18
  80bcdc:	080baa40 	call	80baa4 <__sinit.part.1>
  80bce0:	9480b804 	addi	r18,r18,736
  80bce4:	047fffc4 	movi	r17,-1
  80bce8:	91400117 	ldw	r5,4(r18)
  80bcec:	94000217 	ldw	r16,8(r18)
  80bcf0:	297fffc4 	addi	r5,r5,-1
  80bcf4:	28000a16 	blt	r5,zero,80bd20 <__sfp+0x78>
  80bcf8:	8080030f 	ldh	r2,12(r16)
  80bcfc:	10000c26 	beq	r2,zero,80bd30 <__sfp+0x88>
  80bd00:	80c01d04 	addi	r3,r16,116
  80bd04:	00000206 	br	80bd10 <__sfp+0x68>
  80bd08:	18bfe60f 	ldh	r2,-104(r3)
  80bd0c:	10000826 	beq	r2,zero,80bd30 <__sfp+0x88>
  80bd10:	297fffc4 	addi	r5,r5,-1
  80bd14:	1c3ffd04 	addi	r16,r3,-12
  80bd18:	18c01a04 	addi	r3,r3,104
  80bd1c:	2c7ffa1e 	bne	r5,r17,80bd08 <__alt_data_end+0xff80bd08>
  80bd20:	90800017 	ldw	r2,0(r18)
  80bd24:	10001d26 	beq	r2,zero,80bd9c <__sfp+0xf4>
  80bd28:	1025883a 	mov	r18,r2
  80bd2c:	003fee06 	br	80bce8 <__alt_data_end+0xff80bce8>
  80bd30:	00bfffc4 	movi	r2,-1
  80bd34:	8080038d 	sth	r2,14(r16)
  80bd38:	00800044 	movi	r2,1
  80bd3c:	8080030d 	sth	r2,12(r16)
  80bd40:	80001915 	stw	zero,100(r16)
  80bd44:	80000015 	stw	zero,0(r16)
  80bd48:	80000215 	stw	zero,8(r16)
  80bd4c:	80000115 	stw	zero,4(r16)
  80bd50:	80000415 	stw	zero,16(r16)
  80bd54:	80000515 	stw	zero,20(r16)
  80bd58:	80000615 	stw	zero,24(r16)
  80bd5c:	81001704 	addi	r4,r16,92
  80bd60:	000b883a 	mov	r5,zero
  80bd64:	01800204 	movi	r6,8
  80bd68:	080b2bc0 	call	80b2bc <memset>
  80bd6c:	8005883a 	mov	r2,r16
  80bd70:	80000c15 	stw	zero,48(r16)
  80bd74:	80000d15 	stw	zero,52(r16)
  80bd78:	80001115 	stw	zero,68(r16)
  80bd7c:	80001215 	stw	zero,72(r16)
  80bd80:	dfc00417 	ldw	ra,16(sp)
  80bd84:	dcc00317 	ldw	r19,12(sp)
  80bd88:	dc800217 	ldw	r18,8(sp)
  80bd8c:	dc400117 	ldw	r17,4(sp)
  80bd90:	dc000017 	ldw	r16,0(sp)
  80bd94:	dec00504 	addi	sp,sp,20
  80bd98:	f800283a 	ret
  80bd9c:	9809883a 	mov	r4,r19
  80bda0:	01400104 	movi	r5,4
  80bda4:	080bc400 	call	80bc40 <__sfmoreglue>
  80bda8:	90800015 	stw	r2,0(r18)
  80bdac:	103fde1e 	bne	r2,zero,80bd28 <__alt_data_end+0xff80bd28>
  80bdb0:	00800304 	movi	r2,12
  80bdb4:	98800015 	stw	r2,0(r19)
  80bdb8:	0005883a 	mov	r2,zero
  80bdbc:	003ff006 	br	80bd80 <__alt_data_end+0xff80bd80>

0080bdc0 <_cleanup>:
  80bdc0:	00802074 	movhi	r2,129
  80bdc4:	10889304 	addi	r2,r2,8780
  80bdc8:	11000017 	ldw	r4,0(r2)
  80bdcc:	01402074 	movhi	r5,129
  80bdd0:	2971da04 	addi	r5,r5,-14488
  80bdd4:	080beec1 	jmpi	80beec <_fwalk_reent>

0080bdd8 <__sinit>:
  80bdd8:	20800e17 	ldw	r2,56(r4)
  80bddc:	10000126 	beq	r2,zero,80bde4 <__sinit+0xc>
  80bde0:	f800283a 	ret
  80bde4:	080baa41 	jmpi	80baa4 <__sinit.part.1>

0080bde8 <__sfp_lock_acquire>:
  80bde8:	f800283a 	ret

0080bdec <__sfp_lock_release>:
  80bdec:	f800283a 	ret

0080bdf0 <__sinit_lock_acquire>:
  80bdf0:	f800283a 	ret

0080bdf4 <__sinit_lock_release>:
  80bdf4:	f800283a 	ret

0080bdf8 <__fp_lock_all>:
  80bdf8:	00802074 	movhi	r2,129
  80bdfc:	10889404 	addi	r2,r2,8784
  80be00:	11000017 	ldw	r4,0(r2)
  80be04:	01402074 	movhi	r5,129
  80be08:	296ea204 	addi	r5,r5,-17784
  80be0c:	080be281 	jmpi	80be28 <_fwalk>

0080be10 <__fp_unlock_all>:
  80be10:	00802074 	movhi	r2,129
  80be14:	10889404 	addi	r2,r2,8784
  80be18:	11000017 	ldw	r4,0(r2)
  80be1c:	01402074 	movhi	r5,129
  80be20:	296ea404 	addi	r5,r5,-17776
  80be24:	080be281 	jmpi	80be28 <_fwalk>

0080be28 <_fwalk>:
  80be28:	defff704 	addi	sp,sp,-36
  80be2c:	dd000415 	stw	r20,16(sp)
  80be30:	dfc00815 	stw	ra,32(sp)
  80be34:	ddc00715 	stw	r23,28(sp)
  80be38:	dd800615 	stw	r22,24(sp)
  80be3c:	dd400515 	stw	r21,20(sp)
  80be40:	dcc00315 	stw	r19,12(sp)
  80be44:	dc800215 	stw	r18,8(sp)
  80be48:	dc400115 	stw	r17,4(sp)
  80be4c:	dc000015 	stw	r16,0(sp)
  80be50:	2500b804 	addi	r20,r4,736
  80be54:	a0002326 	beq	r20,zero,80bee4 <_fwalk+0xbc>
  80be58:	282b883a 	mov	r21,r5
  80be5c:	002f883a 	mov	r23,zero
  80be60:	05800044 	movi	r22,1
  80be64:	04ffffc4 	movi	r19,-1
  80be68:	a4400117 	ldw	r17,4(r20)
  80be6c:	a4800217 	ldw	r18,8(r20)
  80be70:	8c7fffc4 	addi	r17,r17,-1
  80be74:	88000d16 	blt	r17,zero,80beac <_fwalk+0x84>
  80be78:	94000304 	addi	r16,r18,12
  80be7c:	94800384 	addi	r18,r18,14
  80be80:	80c0000b 	ldhu	r3,0(r16)
  80be84:	8c7fffc4 	addi	r17,r17,-1
  80be88:	813ffd04 	addi	r4,r16,-12
  80be8c:	b0c0042e 	bgeu	r22,r3,80bea0 <_fwalk+0x78>
  80be90:	90c0000f 	ldh	r3,0(r18)
  80be94:	1cc00226 	beq	r3,r19,80bea0 <_fwalk+0x78>
  80be98:	a83ee83a 	callr	r21
  80be9c:	b8aeb03a 	or	r23,r23,r2
  80bea0:	84001a04 	addi	r16,r16,104
  80bea4:	94801a04 	addi	r18,r18,104
  80bea8:	8cfff51e 	bne	r17,r19,80be80 <__alt_data_end+0xff80be80>
  80beac:	a5000017 	ldw	r20,0(r20)
  80beb0:	a03fed1e 	bne	r20,zero,80be68 <__alt_data_end+0xff80be68>
  80beb4:	b805883a 	mov	r2,r23
  80beb8:	dfc00817 	ldw	ra,32(sp)
  80bebc:	ddc00717 	ldw	r23,28(sp)
  80bec0:	dd800617 	ldw	r22,24(sp)
  80bec4:	dd400517 	ldw	r21,20(sp)
  80bec8:	dd000417 	ldw	r20,16(sp)
  80becc:	dcc00317 	ldw	r19,12(sp)
  80bed0:	dc800217 	ldw	r18,8(sp)
  80bed4:	dc400117 	ldw	r17,4(sp)
  80bed8:	dc000017 	ldw	r16,0(sp)
  80bedc:	dec00904 	addi	sp,sp,36
  80bee0:	f800283a 	ret
  80bee4:	002f883a 	mov	r23,zero
  80bee8:	003ff206 	br	80beb4 <__alt_data_end+0xff80beb4>

0080beec <_fwalk_reent>:
  80beec:	defff704 	addi	sp,sp,-36
  80bef0:	dd400515 	stw	r21,20(sp)
  80bef4:	dfc00815 	stw	ra,32(sp)
  80bef8:	ddc00715 	stw	r23,28(sp)
  80befc:	dd800615 	stw	r22,24(sp)
  80bf00:	dd000415 	stw	r20,16(sp)
  80bf04:	dcc00315 	stw	r19,12(sp)
  80bf08:	dc800215 	stw	r18,8(sp)
  80bf0c:	dc400115 	stw	r17,4(sp)
  80bf10:	dc000015 	stw	r16,0(sp)
  80bf14:	2540b804 	addi	r21,r4,736
  80bf18:	a8002326 	beq	r21,zero,80bfa8 <_fwalk_reent+0xbc>
  80bf1c:	2829883a 	mov	r20,r5
  80bf20:	202d883a 	mov	r22,r4
  80bf24:	002f883a 	mov	r23,zero
  80bf28:	04c00044 	movi	r19,1
  80bf2c:	04bfffc4 	movi	r18,-1
  80bf30:	ac400117 	ldw	r17,4(r21)
  80bf34:	ac000217 	ldw	r16,8(r21)
  80bf38:	8c7fffc4 	addi	r17,r17,-1
  80bf3c:	88000c16 	blt	r17,zero,80bf70 <_fwalk_reent+0x84>
  80bf40:	84000304 	addi	r16,r16,12
  80bf44:	80c0000b 	ldhu	r3,0(r16)
  80bf48:	8c7fffc4 	addi	r17,r17,-1
  80bf4c:	817ffd04 	addi	r5,r16,-12
  80bf50:	98c0052e 	bgeu	r19,r3,80bf68 <_fwalk_reent+0x7c>
  80bf54:	80c0008f 	ldh	r3,2(r16)
  80bf58:	b009883a 	mov	r4,r22
  80bf5c:	1c800226 	beq	r3,r18,80bf68 <_fwalk_reent+0x7c>
  80bf60:	a03ee83a 	callr	r20
  80bf64:	b8aeb03a 	or	r23,r23,r2
  80bf68:	84001a04 	addi	r16,r16,104
  80bf6c:	8cbff51e 	bne	r17,r18,80bf44 <__alt_data_end+0xff80bf44>
  80bf70:	ad400017 	ldw	r21,0(r21)
  80bf74:	a83fee1e 	bne	r21,zero,80bf30 <__alt_data_end+0xff80bf30>
  80bf78:	b805883a 	mov	r2,r23
  80bf7c:	dfc00817 	ldw	ra,32(sp)
  80bf80:	ddc00717 	ldw	r23,28(sp)
  80bf84:	dd800617 	ldw	r22,24(sp)
  80bf88:	dd400517 	ldw	r21,20(sp)
  80bf8c:	dd000417 	ldw	r20,16(sp)
  80bf90:	dcc00317 	ldw	r19,12(sp)
  80bf94:	dc800217 	ldw	r18,8(sp)
  80bf98:	dc400117 	ldw	r17,4(sp)
  80bf9c:	dc000017 	ldw	r16,0(sp)
  80bfa0:	dec00904 	addi	sp,sp,36
  80bfa4:	f800283a 	ret
  80bfa8:	002f883a 	mov	r23,zero
  80bfac:	003ff206 	br	80bf78 <__alt_data_end+0xff80bf78>

0080bfb0 <__smakebuf_r>:
  80bfb0:	2880030b 	ldhu	r2,12(r5)
  80bfb4:	10c0008c 	andi	r3,r2,2
  80bfb8:	1800401e 	bne	r3,zero,80c0bc <__smakebuf_r+0x10c>
  80bfbc:	deffec04 	addi	sp,sp,-80
  80bfc0:	dc000f15 	stw	r16,60(sp)
  80bfc4:	2821883a 	mov	r16,r5
  80bfc8:	2940038f 	ldh	r5,14(r5)
  80bfcc:	dc401015 	stw	r17,64(sp)
  80bfd0:	dfc01315 	stw	ra,76(sp)
  80bfd4:	dcc01215 	stw	r19,72(sp)
  80bfd8:	dc801115 	stw	r18,68(sp)
  80bfdc:	2023883a 	mov	r17,r4
  80bfe0:	28001b16 	blt	r5,zero,80c050 <__smakebuf_r+0xa0>
  80bfe4:	d80d883a 	mov	r6,sp
  80bfe8:	080c86c0 	call	80c86c <_fstat_r>
  80bfec:	10001716 	blt	r2,zero,80c04c <__smakebuf_r+0x9c>
  80bff0:	d8800117 	ldw	r2,4(sp)
  80bff4:	00e00014 	movui	r3,32768
  80bff8:	10bc000c 	andi	r2,r2,61440
  80bffc:	10c03726 	beq	r2,r3,80c0dc <__smakebuf_r+0x12c>
  80c000:	80c0030b 	ldhu	r3,12(r16)
  80c004:	18c20014 	ori	r3,r3,2048
  80c008:	80c0030d 	sth	r3,12(r16)
  80c00c:	00c80004 	movi	r3,8192
  80c010:	10c03c1e 	bne	r2,r3,80c104 <__smakebuf_r+0x154>
  80c014:	8140038f 	ldh	r5,14(r16)
  80c018:	8809883a 	mov	r4,r17
  80c01c:	080c8c40 	call	80c8c4 <_isatty_r>
  80c020:	10004e26 	beq	r2,zero,80c15c <__smakebuf_r+0x1ac>
  80c024:	8080030b 	ldhu	r2,12(r16)
  80c028:	04c00044 	movi	r19,1
  80c02c:	80c010c4 	addi	r3,r16,67
  80c030:	14c4b03a 	or	r2,r2,r19
  80c034:	8080030d 	sth	r2,12(r16)
  80c038:	80c00015 	stw	r3,0(r16)
  80c03c:	80c00415 	stw	r3,16(r16)
  80c040:	84c00515 	stw	r19,20(r16)
  80c044:	04810004 	movi	r18,1024
  80c048:	00000706 	br	80c068 <__smakebuf_r+0xb8>
  80c04c:	8080030b 	ldhu	r2,12(r16)
  80c050:	10c0200c 	andi	r3,r2,128
  80c054:	18001f1e 	bne	r3,zero,80c0d4 <__smakebuf_r+0x124>
  80c058:	04810004 	movi	r18,1024
  80c05c:	10820014 	ori	r2,r2,2048
  80c060:	8080030d 	sth	r2,12(r16)
  80c064:	0027883a 	mov	r19,zero
  80c068:	8809883a 	mov	r4,r17
  80c06c:	900b883a 	mov	r5,r18
  80c070:	080a9dc0 	call	80a9dc <_malloc_r>
  80c074:	10002e26 	beq	r2,zero,80c130 <__smakebuf_r+0x180>
  80c078:	80c0030b 	ldhu	r3,12(r16)
  80c07c:	01002074 	movhi	r4,129
  80c080:	212ea604 	addi	r4,r4,-17768
  80c084:	89000f15 	stw	r4,60(r17)
  80c088:	18c02014 	ori	r3,r3,128
  80c08c:	80c0030d 	sth	r3,12(r16)
  80c090:	80800015 	stw	r2,0(r16)
  80c094:	80800415 	stw	r2,16(r16)
  80c098:	84800515 	stw	r18,20(r16)
  80c09c:	98001c1e 	bne	r19,zero,80c110 <__smakebuf_r+0x160>
  80c0a0:	dfc01317 	ldw	ra,76(sp)
  80c0a4:	dcc01217 	ldw	r19,72(sp)
  80c0a8:	dc801117 	ldw	r18,68(sp)
  80c0ac:	dc401017 	ldw	r17,64(sp)
  80c0b0:	dc000f17 	ldw	r16,60(sp)
  80c0b4:	dec01404 	addi	sp,sp,80
  80c0b8:	f800283a 	ret
  80c0bc:	288010c4 	addi	r2,r5,67
  80c0c0:	28800015 	stw	r2,0(r5)
  80c0c4:	28800415 	stw	r2,16(r5)
  80c0c8:	00800044 	movi	r2,1
  80c0cc:	28800515 	stw	r2,20(r5)
  80c0d0:	f800283a 	ret
  80c0d4:	04801004 	movi	r18,64
  80c0d8:	003fe006 	br	80c05c <__alt_data_end+0xff80c05c>
  80c0dc:	81000a17 	ldw	r4,40(r16)
  80c0e0:	00c02074 	movhi	r3,129
  80c0e4:	18f0eb04 	addi	r3,r3,-15444
  80c0e8:	20ffc51e 	bne	r4,r3,80c000 <__alt_data_end+0xff80c000>
  80c0ec:	80c0030b 	ldhu	r3,12(r16)
  80c0f0:	01010004 	movi	r4,1024
  80c0f4:	81001315 	stw	r4,76(r16)
  80c0f8:	1906b03a 	or	r3,r3,r4
  80c0fc:	80c0030d 	sth	r3,12(r16)
  80c100:	003fc206 	br	80c00c <__alt_data_end+0xff80c00c>
  80c104:	0027883a 	mov	r19,zero
  80c108:	04810004 	movi	r18,1024
  80c10c:	003fd606 	br	80c068 <__alt_data_end+0xff80c068>
  80c110:	8140038f 	ldh	r5,14(r16)
  80c114:	8809883a 	mov	r4,r17
  80c118:	080c8c40 	call	80c8c4 <_isatty_r>
  80c11c:	103fe026 	beq	r2,zero,80c0a0 <__alt_data_end+0xff80c0a0>
  80c120:	8080030b 	ldhu	r2,12(r16)
  80c124:	10800054 	ori	r2,r2,1
  80c128:	8080030d 	sth	r2,12(r16)
  80c12c:	003fdc06 	br	80c0a0 <__alt_data_end+0xff80c0a0>
  80c130:	8080030b 	ldhu	r2,12(r16)
  80c134:	10c0800c 	andi	r3,r2,512
  80c138:	183fd91e 	bne	r3,zero,80c0a0 <__alt_data_end+0xff80c0a0>
  80c13c:	10800094 	ori	r2,r2,2
  80c140:	80c010c4 	addi	r3,r16,67
  80c144:	8080030d 	sth	r2,12(r16)
  80c148:	00800044 	movi	r2,1
  80c14c:	80c00015 	stw	r3,0(r16)
  80c150:	80c00415 	stw	r3,16(r16)
  80c154:	80800515 	stw	r2,20(r16)
  80c158:	003fd106 	br	80c0a0 <__alt_data_end+0xff80c0a0>
  80c15c:	04c00044 	movi	r19,1
  80c160:	04810004 	movi	r18,1024
  80c164:	003fc006 	br	80c068 <__alt_data_end+0xff80c068>

0080c168 <_putc_r>:
  80c168:	defffc04 	addi	sp,sp,-16
  80c16c:	dc000215 	stw	r16,8(sp)
  80c170:	dfc00315 	stw	ra,12(sp)
  80c174:	2021883a 	mov	r16,r4
  80c178:	20000226 	beq	r4,zero,80c184 <_putc_r+0x1c>
  80c17c:	20800e17 	ldw	r2,56(r4)
  80c180:	10001b26 	beq	r2,zero,80c1f0 <_putc_r+0x88>
  80c184:	30800217 	ldw	r2,8(r6)
  80c188:	10bfffc4 	addi	r2,r2,-1
  80c18c:	30800215 	stw	r2,8(r6)
  80c190:	10000a16 	blt	r2,zero,80c1bc <_putc_r+0x54>
  80c194:	30800017 	ldw	r2,0(r6)
  80c198:	11400005 	stb	r5,0(r2)
  80c19c:	30800017 	ldw	r2,0(r6)
  80c1a0:	10c00044 	addi	r3,r2,1
  80c1a4:	30c00015 	stw	r3,0(r6)
  80c1a8:	10800003 	ldbu	r2,0(r2)
  80c1ac:	dfc00317 	ldw	ra,12(sp)
  80c1b0:	dc000217 	ldw	r16,8(sp)
  80c1b4:	dec00404 	addi	sp,sp,16
  80c1b8:	f800283a 	ret
  80c1bc:	30c00617 	ldw	r3,24(r6)
  80c1c0:	10c00616 	blt	r2,r3,80c1dc <_putc_r+0x74>
  80c1c4:	30800017 	ldw	r2,0(r6)
  80c1c8:	00c00284 	movi	r3,10
  80c1cc:	11400005 	stb	r5,0(r2)
  80c1d0:	30800017 	ldw	r2,0(r6)
  80c1d4:	11400003 	ldbu	r5,0(r2)
  80c1d8:	28fff11e 	bne	r5,r3,80c1a0 <__alt_data_end+0xff80c1a0>
  80c1dc:	8009883a 	mov	r4,r16
  80c1e0:	dfc00317 	ldw	ra,12(sp)
  80c1e4:	dc000217 	ldw	r16,8(sp)
  80c1e8:	dec00404 	addi	sp,sp,16
  80c1ec:	080c4101 	jmpi	80c410 <__swbuf_r>
  80c1f0:	d9400015 	stw	r5,0(sp)
  80c1f4:	d9800115 	stw	r6,4(sp)
  80c1f8:	080bdd80 	call	80bdd8 <__sinit>
  80c1fc:	d9800117 	ldw	r6,4(sp)
  80c200:	d9400017 	ldw	r5,0(sp)
  80c204:	003fdf06 	br	80c184 <__alt_data_end+0xff80c184>

0080c208 <putc>:
  80c208:	00802074 	movhi	r2,129
  80c20c:	defffc04 	addi	sp,sp,-16
  80c210:	10889404 	addi	r2,r2,8784
  80c214:	dc400115 	stw	r17,4(sp)
  80c218:	14400017 	ldw	r17,0(r2)
  80c21c:	dc800215 	stw	r18,8(sp)
  80c220:	dc000015 	stw	r16,0(sp)
  80c224:	dfc00315 	stw	ra,12(sp)
  80c228:	2025883a 	mov	r18,r4
  80c22c:	2821883a 	mov	r16,r5
  80c230:	88000226 	beq	r17,zero,80c23c <putc+0x34>
  80c234:	88800e17 	ldw	r2,56(r17)
  80c238:	10001a26 	beq	r2,zero,80c2a4 <putc+0x9c>
  80c23c:	80800217 	ldw	r2,8(r16)
  80c240:	10bfffc4 	addi	r2,r2,-1
  80c244:	80800215 	stw	r2,8(r16)
  80c248:	10000c16 	blt	r2,zero,80c27c <putc+0x74>
  80c24c:	80800017 	ldw	r2,0(r16)
  80c250:	14800005 	stb	r18,0(r2)
  80c254:	80800017 	ldw	r2,0(r16)
  80c258:	10c00044 	addi	r3,r2,1
  80c25c:	80c00015 	stw	r3,0(r16)
  80c260:	10800003 	ldbu	r2,0(r2)
  80c264:	dfc00317 	ldw	ra,12(sp)
  80c268:	dc800217 	ldw	r18,8(sp)
  80c26c:	dc400117 	ldw	r17,4(sp)
  80c270:	dc000017 	ldw	r16,0(sp)
  80c274:	dec00404 	addi	sp,sp,16
  80c278:	f800283a 	ret
  80c27c:	80c00617 	ldw	r3,24(r16)
  80c280:	10c00b16 	blt	r2,r3,80c2b0 <putc+0xa8>
  80c284:	80800017 	ldw	r2,0(r16)
  80c288:	00c00284 	movi	r3,10
  80c28c:	14800005 	stb	r18,0(r2)
  80c290:	80800017 	ldw	r2,0(r16)
  80c294:	11400003 	ldbu	r5,0(r2)
  80c298:	28ffef1e 	bne	r5,r3,80c258 <__alt_data_end+0xff80c258>
  80c29c:	8809883a 	mov	r4,r17
  80c2a0:	00000506 	br	80c2b8 <putc+0xb0>
  80c2a4:	8809883a 	mov	r4,r17
  80c2a8:	080bdd80 	call	80bdd8 <__sinit>
  80c2ac:	003fe306 	br	80c23c <__alt_data_end+0xff80c23c>
  80c2b0:	8809883a 	mov	r4,r17
  80c2b4:	900b883a 	mov	r5,r18
  80c2b8:	800d883a 	mov	r6,r16
  80c2bc:	dfc00317 	ldw	ra,12(sp)
  80c2c0:	dc800217 	ldw	r18,8(sp)
  80c2c4:	dc400117 	ldw	r17,4(sp)
  80c2c8:	dc000017 	ldw	r16,0(sp)
  80c2cc:	dec00404 	addi	sp,sp,16
  80c2d0:	080c4101 	jmpi	80c410 <__swbuf_r>

0080c2d4 <__sread>:
  80c2d4:	defffe04 	addi	sp,sp,-8
  80c2d8:	dc000015 	stw	r16,0(sp)
  80c2dc:	2821883a 	mov	r16,r5
  80c2e0:	2940038f 	ldh	r5,14(r5)
  80c2e4:	dfc00115 	stw	ra,4(sp)
  80c2e8:	080c9740 	call	80c974 <_read_r>
  80c2ec:	10000716 	blt	r2,zero,80c30c <__sread+0x38>
  80c2f0:	80c01417 	ldw	r3,80(r16)
  80c2f4:	1887883a 	add	r3,r3,r2
  80c2f8:	80c01415 	stw	r3,80(r16)
  80c2fc:	dfc00117 	ldw	ra,4(sp)
  80c300:	dc000017 	ldw	r16,0(sp)
  80c304:	dec00204 	addi	sp,sp,8
  80c308:	f800283a 	ret
  80c30c:	80c0030b 	ldhu	r3,12(r16)
  80c310:	18fbffcc 	andi	r3,r3,61439
  80c314:	80c0030d 	sth	r3,12(r16)
  80c318:	dfc00117 	ldw	ra,4(sp)
  80c31c:	dc000017 	ldw	r16,0(sp)
  80c320:	dec00204 	addi	sp,sp,8
  80c324:	f800283a 	ret

0080c328 <__seofread>:
  80c328:	0005883a 	mov	r2,zero
  80c32c:	f800283a 	ret

0080c330 <__swrite>:
  80c330:	2880030b 	ldhu	r2,12(r5)
  80c334:	defffb04 	addi	sp,sp,-20
  80c338:	dcc00315 	stw	r19,12(sp)
  80c33c:	dc800215 	stw	r18,8(sp)
  80c340:	dc400115 	stw	r17,4(sp)
  80c344:	dc000015 	stw	r16,0(sp)
  80c348:	dfc00415 	stw	ra,16(sp)
  80c34c:	10c0400c 	andi	r3,r2,256
  80c350:	2821883a 	mov	r16,r5
  80c354:	2027883a 	mov	r19,r4
  80c358:	3025883a 	mov	r18,r6
  80c35c:	3823883a 	mov	r17,r7
  80c360:	18000526 	beq	r3,zero,80c378 <__swrite+0x48>
  80c364:	2940038f 	ldh	r5,14(r5)
  80c368:	000d883a 	mov	r6,zero
  80c36c:	01c00084 	movi	r7,2
  80c370:	080c9180 	call	80c918 <_lseek_r>
  80c374:	8080030b 	ldhu	r2,12(r16)
  80c378:	8140038f 	ldh	r5,14(r16)
  80c37c:	10bbffcc 	andi	r2,r2,61439
  80c380:	9809883a 	mov	r4,r19
  80c384:	900d883a 	mov	r6,r18
  80c388:	880f883a 	mov	r7,r17
  80c38c:	8080030d 	sth	r2,12(r16)
  80c390:	dfc00417 	ldw	ra,16(sp)
  80c394:	dcc00317 	ldw	r19,12(sp)
  80c398:	dc800217 	ldw	r18,8(sp)
  80c39c:	dc400117 	ldw	r17,4(sp)
  80c3a0:	dc000017 	ldw	r16,0(sp)
  80c3a4:	dec00504 	addi	sp,sp,20
  80c3a8:	080c5641 	jmpi	80c564 <_write_r>

0080c3ac <__sseek>:
  80c3ac:	defffe04 	addi	sp,sp,-8
  80c3b0:	dc000015 	stw	r16,0(sp)
  80c3b4:	2821883a 	mov	r16,r5
  80c3b8:	2940038f 	ldh	r5,14(r5)
  80c3bc:	dfc00115 	stw	ra,4(sp)
  80c3c0:	080c9180 	call	80c918 <_lseek_r>
  80c3c4:	00ffffc4 	movi	r3,-1
  80c3c8:	10c00826 	beq	r2,r3,80c3ec <__sseek+0x40>
  80c3cc:	80c0030b 	ldhu	r3,12(r16)
  80c3d0:	80801415 	stw	r2,80(r16)
  80c3d4:	18c40014 	ori	r3,r3,4096
  80c3d8:	80c0030d 	sth	r3,12(r16)
  80c3dc:	dfc00117 	ldw	ra,4(sp)
  80c3e0:	dc000017 	ldw	r16,0(sp)
  80c3e4:	dec00204 	addi	sp,sp,8
  80c3e8:	f800283a 	ret
  80c3ec:	80c0030b 	ldhu	r3,12(r16)
  80c3f0:	18fbffcc 	andi	r3,r3,61439
  80c3f4:	80c0030d 	sth	r3,12(r16)
  80c3f8:	dfc00117 	ldw	ra,4(sp)
  80c3fc:	dc000017 	ldw	r16,0(sp)
  80c400:	dec00204 	addi	sp,sp,8
  80c404:	f800283a 	ret

0080c408 <__sclose>:
  80c408:	2940038f 	ldh	r5,14(r5)
  80c40c:	080c7141 	jmpi	80c714 <_close_r>

0080c410 <__swbuf_r>:
  80c410:	defffc04 	addi	sp,sp,-16
  80c414:	dc800215 	stw	r18,8(sp)
  80c418:	dc400115 	stw	r17,4(sp)
  80c41c:	dc000015 	stw	r16,0(sp)
  80c420:	dfc00315 	stw	ra,12(sp)
  80c424:	2025883a 	mov	r18,r4
  80c428:	2823883a 	mov	r17,r5
  80c42c:	3021883a 	mov	r16,r6
  80c430:	20000226 	beq	r4,zero,80c43c <__swbuf_r+0x2c>
  80c434:	20800e17 	ldw	r2,56(r4)
  80c438:	10004126 	beq	r2,zero,80c540 <__swbuf_r+0x130>
  80c43c:	80c00617 	ldw	r3,24(r16)
  80c440:	8180030b 	ldhu	r6,12(r16)
  80c444:	80c00215 	stw	r3,8(r16)
  80c448:	30c0020c 	andi	r3,r6,8
  80c44c:	18003526 	beq	r3,zero,80c524 <__swbuf_r+0x114>
  80c450:	80c00417 	ldw	r3,16(r16)
  80c454:	18003326 	beq	r3,zero,80c524 <__swbuf_r+0x114>
  80c458:	3088000c 	andi	r2,r6,8192
  80c45c:	8c403fcc 	andi	r17,r17,255
  80c460:	10001726 	beq	r2,zero,80c4c0 <__swbuf_r+0xb0>
  80c464:	80800017 	ldw	r2,0(r16)
  80c468:	81000517 	ldw	r4,20(r16)
  80c46c:	10c7c83a 	sub	r3,r2,r3
  80c470:	19001d0e 	bge	r3,r4,80c4e8 <__swbuf_r+0xd8>
  80c474:	18c00044 	addi	r3,r3,1
  80c478:	81400217 	ldw	r5,8(r16)
  80c47c:	11000044 	addi	r4,r2,1
  80c480:	81000015 	stw	r4,0(r16)
  80c484:	297fffc4 	addi	r5,r5,-1
  80c488:	81400215 	stw	r5,8(r16)
  80c48c:	14400005 	stb	r17,0(r2)
  80c490:	80800517 	ldw	r2,20(r16)
  80c494:	10c01d26 	beq	r2,r3,80c50c <__swbuf_r+0xfc>
  80c498:	8080030b 	ldhu	r2,12(r16)
  80c49c:	1080004c 	andi	r2,r2,1
  80c4a0:	1000181e 	bne	r2,zero,80c504 <__swbuf_r+0xf4>
  80c4a4:	8805883a 	mov	r2,r17
  80c4a8:	dfc00317 	ldw	ra,12(sp)
  80c4ac:	dc800217 	ldw	r18,8(sp)
  80c4b0:	dc400117 	ldw	r17,4(sp)
  80c4b4:	dc000017 	ldw	r16,0(sp)
  80c4b8:	dec00404 	addi	sp,sp,16
  80c4bc:	f800283a 	ret
  80c4c0:	81001917 	ldw	r4,100(r16)
  80c4c4:	00b7ffc4 	movi	r2,-8193
  80c4c8:	31880014 	ori	r6,r6,8192
  80c4cc:	2084703a 	and	r2,r4,r2
  80c4d0:	80801915 	stw	r2,100(r16)
  80c4d4:	80800017 	ldw	r2,0(r16)
  80c4d8:	81000517 	ldw	r4,20(r16)
  80c4dc:	8180030d 	sth	r6,12(r16)
  80c4e0:	10c7c83a 	sub	r3,r2,r3
  80c4e4:	193fe316 	blt	r3,r4,80c474 <__alt_data_end+0xff80c474>
  80c4e8:	9009883a 	mov	r4,r18
  80c4ec:	800b883a 	mov	r5,r16
  80c4f0:	080b9fc0 	call	80b9fc <_fflush_r>
  80c4f4:	1000091e 	bne	r2,zero,80c51c <__swbuf_r+0x10c>
  80c4f8:	80800017 	ldw	r2,0(r16)
  80c4fc:	00c00044 	movi	r3,1
  80c500:	003fdd06 	br	80c478 <__alt_data_end+0xff80c478>
  80c504:	00800284 	movi	r2,10
  80c508:	88bfe61e 	bne	r17,r2,80c4a4 <__alt_data_end+0xff80c4a4>
  80c50c:	9009883a 	mov	r4,r18
  80c510:	800b883a 	mov	r5,r16
  80c514:	080b9fc0 	call	80b9fc <_fflush_r>
  80c518:	103fe226 	beq	r2,zero,80c4a4 <__alt_data_end+0xff80c4a4>
  80c51c:	00bfffc4 	movi	r2,-1
  80c520:	003fe106 	br	80c4a8 <__alt_data_end+0xff80c4a8>
  80c524:	9009883a 	mov	r4,r18
  80c528:	800b883a 	mov	r5,r16
  80c52c:	080c5c00 	call	80c5c0 <__swsetup_r>
  80c530:	103ffa1e 	bne	r2,zero,80c51c <__alt_data_end+0xff80c51c>
  80c534:	8180030b 	ldhu	r6,12(r16)
  80c538:	80c00417 	ldw	r3,16(r16)
  80c53c:	003fc606 	br	80c458 <__alt_data_end+0xff80c458>
  80c540:	080bdd80 	call	80bdd8 <__sinit>
  80c544:	003fbd06 	br	80c43c <__alt_data_end+0xff80c43c>

0080c548 <__swbuf>:
  80c548:	00c02074 	movhi	r3,129
  80c54c:	18c89404 	addi	r3,r3,8784
  80c550:	2005883a 	mov	r2,r4
  80c554:	19000017 	ldw	r4,0(r3)
  80c558:	280d883a 	mov	r6,r5
  80c55c:	100b883a 	mov	r5,r2
  80c560:	080c4101 	jmpi	80c410 <__swbuf_r>

0080c564 <_write_r>:
  80c564:	defffd04 	addi	sp,sp,-12
  80c568:	dc000015 	stw	r16,0(sp)
  80c56c:	04002074 	movhi	r16,129
  80c570:	dc400115 	stw	r17,4(sp)
  80c574:	840bd304 	addi	r16,r16,12108
  80c578:	2023883a 	mov	r17,r4
  80c57c:	2809883a 	mov	r4,r5
  80c580:	300b883a 	mov	r5,r6
  80c584:	380d883a 	mov	r6,r7
  80c588:	dfc00215 	stw	ra,8(sp)
  80c58c:	80000015 	stw	zero,0(r16)
  80c590:	080d7c40 	call	80d7c4 <write>
  80c594:	00ffffc4 	movi	r3,-1
  80c598:	10c00526 	beq	r2,r3,80c5b0 <_write_r+0x4c>
  80c59c:	dfc00217 	ldw	ra,8(sp)
  80c5a0:	dc400117 	ldw	r17,4(sp)
  80c5a4:	dc000017 	ldw	r16,0(sp)
  80c5a8:	dec00304 	addi	sp,sp,12
  80c5ac:	f800283a 	ret
  80c5b0:	80c00017 	ldw	r3,0(r16)
  80c5b4:	183ff926 	beq	r3,zero,80c59c <__alt_data_end+0xff80c59c>
  80c5b8:	88c00015 	stw	r3,0(r17)
  80c5bc:	003ff706 	br	80c59c <__alt_data_end+0xff80c59c>

0080c5c0 <__swsetup_r>:
  80c5c0:	00802074 	movhi	r2,129
  80c5c4:	defffd04 	addi	sp,sp,-12
  80c5c8:	10889404 	addi	r2,r2,8784
  80c5cc:	dc400115 	stw	r17,4(sp)
  80c5d0:	2023883a 	mov	r17,r4
  80c5d4:	11000017 	ldw	r4,0(r2)
  80c5d8:	dc000015 	stw	r16,0(sp)
  80c5dc:	dfc00215 	stw	ra,8(sp)
  80c5e0:	2821883a 	mov	r16,r5
  80c5e4:	20000226 	beq	r4,zero,80c5f0 <__swsetup_r+0x30>
  80c5e8:	20c00e17 	ldw	r3,56(r4)
  80c5ec:	18003126 	beq	r3,zero,80c6b4 <__swsetup_r+0xf4>
  80c5f0:	8080030b 	ldhu	r2,12(r16)
  80c5f4:	10c0020c 	andi	r3,r2,8
  80c5f8:	100d883a 	mov	r6,r2
  80c5fc:	18000f26 	beq	r3,zero,80c63c <__swsetup_r+0x7c>
  80c600:	80c00417 	ldw	r3,16(r16)
  80c604:	18001526 	beq	r3,zero,80c65c <__swsetup_r+0x9c>
  80c608:	1100004c 	andi	r4,r2,1
  80c60c:	20001c1e 	bne	r4,zero,80c680 <__swsetup_r+0xc0>
  80c610:	1080008c 	andi	r2,r2,2
  80c614:	1000291e 	bne	r2,zero,80c6bc <__swsetup_r+0xfc>
  80c618:	80800517 	ldw	r2,20(r16)
  80c61c:	80800215 	stw	r2,8(r16)
  80c620:	18001c26 	beq	r3,zero,80c694 <__swsetup_r+0xd4>
  80c624:	0005883a 	mov	r2,zero
  80c628:	dfc00217 	ldw	ra,8(sp)
  80c62c:	dc400117 	ldw	r17,4(sp)
  80c630:	dc000017 	ldw	r16,0(sp)
  80c634:	dec00304 	addi	sp,sp,12
  80c638:	f800283a 	ret
  80c63c:	3080040c 	andi	r2,r6,16
  80c640:	10002e26 	beq	r2,zero,80c6fc <__swsetup_r+0x13c>
  80c644:	3080010c 	andi	r2,r6,4
  80c648:	10001e1e 	bne	r2,zero,80c6c4 <__swsetup_r+0x104>
  80c64c:	80c00417 	ldw	r3,16(r16)
  80c650:	30800214 	ori	r2,r6,8
  80c654:	8080030d 	sth	r2,12(r16)
  80c658:	183feb1e 	bne	r3,zero,80c608 <__alt_data_end+0xff80c608>
  80c65c:	1140a00c 	andi	r5,r2,640
  80c660:	01008004 	movi	r4,512
  80c664:	293fe826 	beq	r5,r4,80c608 <__alt_data_end+0xff80c608>
  80c668:	8809883a 	mov	r4,r17
  80c66c:	800b883a 	mov	r5,r16
  80c670:	080bfb00 	call	80bfb0 <__smakebuf_r>
  80c674:	8080030b 	ldhu	r2,12(r16)
  80c678:	80c00417 	ldw	r3,16(r16)
  80c67c:	003fe206 	br	80c608 <__alt_data_end+0xff80c608>
  80c680:	80800517 	ldw	r2,20(r16)
  80c684:	80000215 	stw	zero,8(r16)
  80c688:	0085c83a 	sub	r2,zero,r2
  80c68c:	80800615 	stw	r2,24(r16)
  80c690:	183fe41e 	bne	r3,zero,80c624 <__alt_data_end+0xff80c624>
  80c694:	80c0030b 	ldhu	r3,12(r16)
  80c698:	0005883a 	mov	r2,zero
  80c69c:	1900200c 	andi	r4,r3,128
  80c6a0:	203fe126 	beq	r4,zero,80c628 <__alt_data_end+0xff80c628>
  80c6a4:	18c01014 	ori	r3,r3,64
  80c6a8:	80c0030d 	sth	r3,12(r16)
  80c6ac:	00bfffc4 	movi	r2,-1
  80c6b0:	003fdd06 	br	80c628 <__alt_data_end+0xff80c628>
  80c6b4:	080bdd80 	call	80bdd8 <__sinit>
  80c6b8:	003fcd06 	br	80c5f0 <__alt_data_end+0xff80c5f0>
  80c6bc:	0005883a 	mov	r2,zero
  80c6c0:	003fd606 	br	80c61c <__alt_data_end+0xff80c61c>
  80c6c4:	81400c17 	ldw	r5,48(r16)
  80c6c8:	28000626 	beq	r5,zero,80c6e4 <__swsetup_r+0x124>
  80c6cc:	80801004 	addi	r2,r16,64
  80c6d0:	28800326 	beq	r5,r2,80c6e0 <__swsetup_r+0x120>
  80c6d4:	8809883a 	mov	r4,r17
  80c6d8:	080a5f40 	call	80a5f4 <_free_r>
  80c6dc:	8180030b 	ldhu	r6,12(r16)
  80c6e0:	80000c15 	stw	zero,48(r16)
  80c6e4:	80c00417 	ldw	r3,16(r16)
  80c6e8:	00bff6c4 	movi	r2,-37
  80c6ec:	118c703a 	and	r6,r2,r6
  80c6f0:	80000115 	stw	zero,4(r16)
  80c6f4:	80c00015 	stw	r3,0(r16)
  80c6f8:	003fd506 	br	80c650 <__alt_data_end+0xff80c650>
  80c6fc:	00800244 	movi	r2,9
  80c700:	88800015 	stw	r2,0(r17)
  80c704:	30801014 	ori	r2,r6,64
  80c708:	8080030d 	sth	r2,12(r16)
  80c70c:	00bfffc4 	movi	r2,-1
  80c710:	003fc506 	br	80c628 <__alt_data_end+0xff80c628>

0080c714 <_close_r>:
  80c714:	defffd04 	addi	sp,sp,-12
  80c718:	dc000015 	stw	r16,0(sp)
  80c71c:	04002074 	movhi	r16,129
  80c720:	dc400115 	stw	r17,4(sp)
  80c724:	840bd304 	addi	r16,r16,12108
  80c728:	2023883a 	mov	r17,r4
  80c72c:	2809883a 	mov	r4,r5
  80c730:	dfc00215 	stw	ra,8(sp)
  80c734:	80000015 	stw	zero,0(r16)
  80c738:	080cb600 	call	80cb60 <close>
  80c73c:	00ffffc4 	movi	r3,-1
  80c740:	10c00526 	beq	r2,r3,80c758 <_close_r+0x44>
  80c744:	dfc00217 	ldw	ra,8(sp)
  80c748:	dc400117 	ldw	r17,4(sp)
  80c74c:	dc000017 	ldw	r16,0(sp)
  80c750:	dec00304 	addi	sp,sp,12
  80c754:	f800283a 	ret
  80c758:	80c00017 	ldw	r3,0(r16)
  80c75c:	183ff926 	beq	r3,zero,80c744 <__alt_data_end+0xff80c744>
  80c760:	88c00015 	stw	r3,0(r17)
  80c764:	003ff706 	br	80c744 <__alt_data_end+0xff80c744>

0080c768 <_fclose_r>:
  80c768:	28003926 	beq	r5,zero,80c850 <_fclose_r+0xe8>
  80c76c:	defffc04 	addi	sp,sp,-16
  80c770:	dc400115 	stw	r17,4(sp)
  80c774:	dc000015 	stw	r16,0(sp)
  80c778:	dfc00315 	stw	ra,12(sp)
  80c77c:	dc800215 	stw	r18,8(sp)
  80c780:	2023883a 	mov	r17,r4
  80c784:	2821883a 	mov	r16,r5
  80c788:	20000226 	beq	r4,zero,80c794 <_fclose_r+0x2c>
  80c78c:	20800e17 	ldw	r2,56(r4)
  80c790:	10002726 	beq	r2,zero,80c830 <_fclose_r+0xc8>
  80c794:	8080030f 	ldh	r2,12(r16)
  80c798:	1000071e 	bne	r2,zero,80c7b8 <_fclose_r+0x50>
  80c79c:	0005883a 	mov	r2,zero
  80c7a0:	dfc00317 	ldw	ra,12(sp)
  80c7a4:	dc800217 	ldw	r18,8(sp)
  80c7a8:	dc400117 	ldw	r17,4(sp)
  80c7ac:	dc000017 	ldw	r16,0(sp)
  80c7b0:	dec00404 	addi	sp,sp,16
  80c7b4:	f800283a 	ret
  80c7b8:	8809883a 	mov	r4,r17
  80c7bc:	800b883a 	mov	r5,r16
  80c7c0:	080b7f40 	call	80b7f4 <__sflush_r>
  80c7c4:	1025883a 	mov	r18,r2
  80c7c8:	80800b17 	ldw	r2,44(r16)
  80c7cc:	10000426 	beq	r2,zero,80c7e0 <_fclose_r+0x78>
  80c7d0:	81400717 	ldw	r5,28(r16)
  80c7d4:	8809883a 	mov	r4,r17
  80c7d8:	103ee83a 	callr	r2
  80c7dc:	10001616 	blt	r2,zero,80c838 <_fclose_r+0xd0>
  80c7e0:	8080030b 	ldhu	r2,12(r16)
  80c7e4:	1080200c 	andi	r2,r2,128
  80c7e8:	1000151e 	bne	r2,zero,80c840 <_fclose_r+0xd8>
  80c7ec:	81400c17 	ldw	r5,48(r16)
  80c7f0:	28000526 	beq	r5,zero,80c808 <_fclose_r+0xa0>
  80c7f4:	80801004 	addi	r2,r16,64
  80c7f8:	28800226 	beq	r5,r2,80c804 <_fclose_r+0x9c>
  80c7fc:	8809883a 	mov	r4,r17
  80c800:	080a5f40 	call	80a5f4 <_free_r>
  80c804:	80000c15 	stw	zero,48(r16)
  80c808:	81401117 	ldw	r5,68(r16)
  80c80c:	28000326 	beq	r5,zero,80c81c <_fclose_r+0xb4>
  80c810:	8809883a 	mov	r4,r17
  80c814:	080a5f40 	call	80a5f4 <_free_r>
  80c818:	80001115 	stw	zero,68(r16)
  80c81c:	080bde80 	call	80bde8 <__sfp_lock_acquire>
  80c820:	8000030d 	sth	zero,12(r16)
  80c824:	080bdec0 	call	80bdec <__sfp_lock_release>
  80c828:	9005883a 	mov	r2,r18
  80c82c:	003fdc06 	br	80c7a0 <__alt_data_end+0xff80c7a0>
  80c830:	080bdd80 	call	80bdd8 <__sinit>
  80c834:	003fd706 	br	80c794 <__alt_data_end+0xff80c794>
  80c838:	04bfffc4 	movi	r18,-1
  80c83c:	003fe806 	br	80c7e0 <__alt_data_end+0xff80c7e0>
  80c840:	81400417 	ldw	r5,16(r16)
  80c844:	8809883a 	mov	r4,r17
  80c848:	080a5f40 	call	80a5f4 <_free_r>
  80c84c:	003fe706 	br	80c7ec <__alt_data_end+0xff80c7ec>
  80c850:	0005883a 	mov	r2,zero
  80c854:	f800283a 	ret

0080c858 <fclose>:
  80c858:	00802074 	movhi	r2,129
  80c85c:	10889404 	addi	r2,r2,8784
  80c860:	200b883a 	mov	r5,r4
  80c864:	11000017 	ldw	r4,0(r2)
  80c868:	080c7681 	jmpi	80c768 <_fclose_r>

0080c86c <_fstat_r>:
  80c86c:	defffd04 	addi	sp,sp,-12
  80c870:	dc000015 	stw	r16,0(sp)
  80c874:	04002074 	movhi	r16,129
  80c878:	dc400115 	stw	r17,4(sp)
  80c87c:	840bd304 	addi	r16,r16,12108
  80c880:	2023883a 	mov	r17,r4
  80c884:	2809883a 	mov	r4,r5
  80c888:	300b883a 	mov	r5,r6
  80c88c:	dfc00215 	stw	ra,8(sp)
  80c890:	80000015 	stw	zero,0(r16)
  80c894:	080ccac0 	call	80ccac <fstat>
  80c898:	00ffffc4 	movi	r3,-1
  80c89c:	10c00526 	beq	r2,r3,80c8b4 <_fstat_r+0x48>
  80c8a0:	dfc00217 	ldw	ra,8(sp)
  80c8a4:	dc400117 	ldw	r17,4(sp)
  80c8a8:	dc000017 	ldw	r16,0(sp)
  80c8ac:	dec00304 	addi	sp,sp,12
  80c8b0:	f800283a 	ret
  80c8b4:	80c00017 	ldw	r3,0(r16)
  80c8b8:	183ff926 	beq	r3,zero,80c8a0 <__alt_data_end+0xff80c8a0>
  80c8bc:	88c00015 	stw	r3,0(r17)
  80c8c0:	003ff706 	br	80c8a0 <__alt_data_end+0xff80c8a0>

0080c8c4 <_isatty_r>:
  80c8c4:	defffd04 	addi	sp,sp,-12
  80c8c8:	dc000015 	stw	r16,0(sp)
  80c8cc:	04002074 	movhi	r16,129
  80c8d0:	dc400115 	stw	r17,4(sp)
  80c8d4:	840bd304 	addi	r16,r16,12108
  80c8d8:	2023883a 	mov	r17,r4
  80c8dc:	2809883a 	mov	r4,r5
  80c8e0:	dfc00215 	stw	ra,8(sp)
  80c8e4:	80000015 	stw	zero,0(r16)
  80c8e8:	080cdac0 	call	80cdac <isatty>
  80c8ec:	00ffffc4 	movi	r3,-1
  80c8f0:	10c00526 	beq	r2,r3,80c908 <_isatty_r+0x44>
  80c8f4:	dfc00217 	ldw	ra,8(sp)
  80c8f8:	dc400117 	ldw	r17,4(sp)
  80c8fc:	dc000017 	ldw	r16,0(sp)
  80c900:	dec00304 	addi	sp,sp,12
  80c904:	f800283a 	ret
  80c908:	80c00017 	ldw	r3,0(r16)
  80c90c:	183ff926 	beq	r3,zero,80c8f4 <__alt_data_end+0xff80c8f4>
  80c910:	88c00015 	stw	r3,0(r17)
  80c914:	003ff706 	br	80c8f4 <__alt_data_end+0xff80c8f4>

0080c918 <_lseek_r>:
  80c918:	defffd04 	addi	sp,sp,-12
  80c91c:	dc000015 	stw	r16,0(sp)
  80c920:	04002074 	movhi	r16,129
  80c924:	dc400115 	stw	r17,4(sp)
  80c928:	840bd304 	addi	r16,r16,12108
  80c92c:	2023883a 	mov	r17,r4
  80c930:	2809883a 	mov	r4,r5
  80c934:	300b883a 	mov	r5,r6
  80c938:	380d883a 	mov	r6,r7
  80c93c:	dfc00215 	stw	ra,8(sp)
  80c940:	80000015 	stw	zero,0(r16)
  80c944:	080cf840 	call	80cf84 <lseek>
  80c948:	00ffffc4 	movi	r3,-1
  80c94c:	10c00526 	beq	r2,r3,80c964 <_lseek_r+0x4c>
  80c950:	dfc00217 	ldw	ra,8(sp)
  80c954:	dc400117 	ldw	r17,4(sp)
  80c958:	dc000017 	ldw	r16,0(sp)
  80c95c:	dec00304 	addi	sp,sp,12
  80c960:	f800283a 	ret
  80c964:	80c00017 	ldw	r3,0(r16)
  80c968:	183ff926 	beq	r3,zero,80c950 <__alt_data_end+0xff80c950>
  80c96c:	88c00015 	stw	r3,0(r17)
  80c970:	003ff706 	br	80c950 <__alt_data_end+0xff80c950>

0080c974 <_read_r>:
  80c974:	defffd04 	addi	sp,sp,-12
  80c978:	dc000015 	stw	r16,0(sp)
  80c97c:	04002074 	movhi	r16,129
  80c980:	dc400115 	stw	r17,4(sp)
  80c984:	840bd304 	addi	r16,r16,12108
  80c988:	2023883a 	mov	r17,r4
  80c98c:	2809883a 	mov	r4,r5
  80c990:	300b883a 	mov	r5,r6
  80c994:	380d883a 	mov	r6,r7
  80c998:	dfc00215 	stw	ra,8(sp)
  80c99c:	80000015 	stw	zero,0(r16)
  80c9a0:	080d3cc0 	call	80d3cc <read>
  80c9a4:	00ffffc4 	movi	r3,-1
  80c9a8:	10c00526 	beq	r2,r3,80c9c0 <_read_r+0x4c>
  80c9ac:	dfc00217 	ldw	ra,8(sp)
  80c9b0:	dc400117 	ldw	r17,4(sp)
  80c9b4:	dc000017 	ldw	r16,0(sp)
  80c9b8:	dec00304 	addi	sp,sp,12
  80c9bc:	f800283a 	ret
  80c9c0:	80c00017 	ldw	r3,0(r16)
  80c9c4:	183ff926 	beq	r3,zero,80c9ac <__alt_data_end+0xff80c9ac>
  80c9c8:	88c00015 	stw	r3,0(r17)
  80c9cc:	003ff706 	br	80c9ac <__alt_data_end+0xff80c9ac>

0080c9d0 <alt_alarm_start>:
  80c9d0:	defff504 	addi	sp,sp,-44
  80c9d4:	df000a15 	stw	fp,40(sp)
  80c9d8:	df000a04 	addi	fp,sp,40
  80c9dc:	e13ffc15 	stw	r4,-16(fp)
  80c9e0:	e17ffd15 	stw	r5,-12(fp)
  80c9e4:	e1bffe15 	stw	r6,-8(fp)
  80c9e8:	e1ffff15 	stw	r7,-4(fp)
  80c9ec:	e03ff615 	stw	zero,-40(fp)
  80c9f0:	00802074 	movhi	r2,129
  80c9f4:	108bd704 	addi	r2,r2,12124
  80c9f8:	10800017 	ldw	r2,0(r2)
  80c9fc:	10003f26 	beq	r2,zero,80cafc <alt_alarm_start+0x12c>
  80ca00:	e0bffc17 	ldw	r2,-16(fp)
  80ca04:	10003b26 	beq	r2,zero,80caf4 <alt_alarm_start+0x124>
  80ca08:	e0bffc17 	ldw	r2,-16(fp)
  80ca0c:	e0fffe17 	ldw	r3,-8(fp)
  80ca10:	10c00315 	stw	r3,12(r2)
  80ca14:	e0bffc17 	ldw	r2,-16(fp)
  80ca18:	e0ffff17 	ldw	r3,-4(fp)
  80ca1c:	10c00515 	stw	r3,20(r2)
  80ca20:	0005303a 	rdctl	r2,status
  80ca24:	e0bff815 	stw	r2,-32(fp)
  80ca28:	e0fff817 	ldw	r3,-32(fp)
  80ca2c:	00bfff84 	movi	r2,-2
  80ca30:	1884703a 	and	r2,r3,r2
  80ca34:	1001703a 	wrctl	status,r2
  80ca38:	e0bff817 	ldw	r2,-32(fp)
  80ca3c:	e0bff715 	stw	r2,-36(fp)
  80ca40:	00802074 	movhi	r2,129
  80ca44:	108bd804 	addi	r2,r2,12128
  80ca48:	10800017 	ldw	r2,0(r2)
  80ca4c:	e0bff615 	stw	r2,-40(fp)
  80ca50:	e0fffd17 	ldw	r3,-12(fp)
  80ca54:	e0bff617 	ldw	r2,-40(fp)
  80ca58:	1885883a 	add	r2,r3,r2
  80ca5c:	10c00044 	addi	r3,r2,1
  80ca60:	e0bffc17 	ldw	r2,-16(fp)
  80ca64:	10c00215 	stw	r3,8(r2)
  80ca68:	e0bffc17 	ldw	r2,-16(fp)
  80ca6c:	10c00217 	ldw	r3,8(r2)
  80ca70:	e0bff617 	ldw	r2,-40(fp)
  80ca74:	1880042e 	bgeu	r3,r2,80ca88 <alt_alarm_start+0xb8>
  80ca78:	e0bffc17 	ldw	r2,-16(fp)
  80ca7c:	00c00044 	movi	r3,1
  80ca80:	10c00405 	stb	r3,16(r2)
  80ca84:	00000206 	br	80ca90 <alt_alarm_start+0xc0>
  80ca88:	e0bffc17 	ldw	r2,-16(fp)
  80ca8c:	10000405 	stb	zero,16(r2)
  80ca90:	e0fffc17 	ldw	r3,-16(fp)
  80ca94:	00802074 	movhi	r2,129
  80ca98:	10889e04 	addi	r2,r2,8824
  80ca9c:	e0bff915 	stw	r2,-28(fp)
  80caa0:	e0fffa15 	stw	r3,-24(fp)
  80caa4:	e0bffa17 	ldw	r2,-24(fp)
  80caa8:	e0fff917 	ldw	r3,-28(fp)
  80caac:	10c00115 	stw	r3,4(r2)
  80cab0:	e0bff917 	ldw	r2,-28(fp)
  80cab4:	10c00017 	ldw	r3,0(r2)
  80cab8:	e0bffa17 	ldw	r2,-24(fp)
  80cabc:	10c00015 	stw	r3,0(r2)
  80cac0:	e0bff917 	ldw	r2,-28(fp)
  80cac4:	10800017 	ldw	r2,0(r2)
  80cac8:	e0fffa17 	ldw	r3,-24(fp)
  80cacc:	10c00115 	stw	r3,4(r2)
  80cad0:	e0bff917 	ldw	r2,-28(fp)
  80cad4:	e0fffa17 	ldw	r3,-24(fp)
  80cad8:	10c00015 	stw	r3,0(r2)
  80cadc:	e0bff717 	ldw	r2,-36(fp)
  80cae0:	e0bffb15 	stw	r2,-20(fp)
  80cae4:	e0bffb17 	ldw	r2,-20(fp)
  80cae8:	1001703a 	wrctl	status,r2
  80caec:	0005883a 	mov	r2,zero
  80caf0:	00000306 	br	80cb00 <alt_alarm_start+0x130>
  80caf4:	00bffa84 	movi	r2,-22
  80caf8:	00000106 	br	80cb00 <alt_alarm_start+0x130>
  80cafc:	00bfde84 	movi	r2,-134
  80cb00:	e037883a 	mov	sp,fp
  80cb04:	df000017 	ldw	fp,0(sp)
  80cb08:	dec00104 	addi	sp,sp,4
  80cb0c:	f800283a 	ret

0080cb10 <alt_get_errno>:
  80cb10:	defffe04 	addi	sp,sp,-8
  80cb14:	dfc00115 	stw	ra,4(sp)
  80cb18:	df000015 	stw	fp,0(sp)
  80cb1c:	d839883a 	mov	fp,sp
  80cb20:	00802074 	movhi	r2,129
  80cb24:	10889c04 	addi	r2,r2,8816
  80cb28:	10800017 	ldw	r2,0(r2)
  80cb2c:	10000526 	beq	r2,zero,80cb44 <alt_get_errno+0x34>
  80cb30:	00802074 	movhi	r2,129
  80cb34:	10889c04 	addi	r2,r2,8816
  80cb38:	10800017 	ldw	r2,0(r2)
  80cb3c:	103ee83a 	callr	r2
  80cb40:	00000206 	br	80cb4c <alt_get_errno+0x3c>
  80cb44:	00802074 	movhi	r2,129
  80cb48:	108bd304 	addi	r2,r2,12108
  80cb4c:	e037883a 	mov	sp,fp
  80cb50:	dfc00117 	ldw	ra,4(sp)
  80cb54:	df000017 	ldw	fp,0(sp)
  80cb58:	dec00204 	addi	sp,sp,8
  80cb5c:	f800283a 	ret

0080cb60 <close>:
  80cb60:	defffb04 	addi	sp,sp,-20
  80cb64:	dfc00415 	stw	ra,16(sp)
  80cb68:	df000315 	stw	fp,12(sp)
  80cb6c:	df000304 	addi	fp,sp,12
  80cb70:	e13fff15 	stw	r4,-4(fp)
  80cb74:	e0bfff17 	ldw	r2,-4(fp)
  80cb78:	10000616 	blt	r2,zero,80cb94 <close+0x34>
  80cb7c:	e0bfff17 	ldw	r2,-4(fp)
  80cb80:	10c00324 	muli	r3,r2,12
  80cb84:	00802074 	movhi	r2,129
  80cb88:	10879504 	addi	r2,r2,7764
  80cb8c:	1885883a 	add	r2,r3,r2
  80cb90:	00000106 	br	80cb98 <close+0x38>
  80cb94:	0005883a 	mov	r2,zero
  80cb98:	e0bffd15 	stw	r2,-12(fp)
  80cb9c:	e0bffd17 	ldw	r2,-12(fp)
  80cba0:	10001926 	beq	r2,zero,80cc08 <close+0xa8>
  80cba4:	e0bffd17 	ldw	r2,-12(fp)
  80cba8:	10800017 	ldw	r2,0(r2)
  80cbac:	10800417 	ldw	r2,16(r2)
  80cbb0:	10000626 	beq	r2,zero,80cbcc <close+0x6c>
  80cbb4:	e0bffd17 	ldw	r2,-12(fp)
  80cbb8:	10800017 	ldw	r2,0(r2)
  80cbbc:	10800417 	ldw	r2,16(r2)
  80cbc0:	e13ffd17 	ldw	r4,-12(fp)
  80cbc4:	103ee83a 	callr	r2
  80cbc8:	00000106 	br	80cbd0 <close+0x70>
  80cbcc:	0005883a 	mov	r2,zero
  80cbd0:	e0bffe15 	stw	r2,-8(fp)
  80cbd4:	e13fff17 	ldw	r4,-4(fp)
  80cbd8:	080d4c80 	call	80d4c8 <alt_release_fd>
  80cbdc:	e0bffe17 	ldw	r2,-8(fp)
  80cbe0:	1000070e 	bge	r2,zero,80cc00 <close+0xa0>
  80cbe4:	080cb100 	call	80cb10 <alt_get_errno>
  80cbe8:	1007883a 	mov	r3,r2
  80cbec:	e0bffe17 	ldw	r2,-8(fp)
  80cbf0:	0085c83a 	sub	r2,zero,r2
  80cbf4:	18800015 	stw	r2,0(r3)
  80cbf8:	00bfffc4 	movi	r2,-1
  80cbfc:	00000706 	br	80cc1c <close+0xbc>
  80cc00:	0005883a 	mov	r2,zero
  80cc04:	00000506 	br	80cc1c <close+0xbc>
  80cc08:	080cb100 	call	80cb10 <alt_get_errno>
  80cc0c:	1007883a 	mov	r3,r2
  80cc10:	00801444 	movi	r2,81
  80cc14:	18800015 	stw	r2,0(r3)
  80cc18:	00bfffc4 	movi	r2,-1
  80cc1c:	e037883a 	mov	sp,fp
  80cc20:	dfc00117 	ldw	ra,4(sp)
  80cc24:	df000017 	ldw	fp,0(sp)
  80cc28:	dec00204 	addi	sp,sp,8
  80cc2c:	f800283a 	ret

0080cc30 <alt_dev_null_write>:
  80cc30:	defffc04 	addi	sp,sp,-16
  80cc34:	df000315 	stw	fp,12(sp)
  80cc38:	df000304 	addi	fp,sp,12
  80cc3c:	e13ffd15 	stw	r4,-12(fp)
  80cc40:	e17ffe15 	stw	r5,-8(fp)
  80cc44:	e1bfff15 	stw	r6,-4(fp)
  80cc48:	e0bfff17 	ldw	r2,-4(fp)
  80cc4c:	e037883a 	mov	sp,fp
  80cc50:	df000017 	ldw	fp,0(sp)
  80cc54:	dec00104 	addi	sp,sp,4
  80cc58:	f800283a 	ret

0080cc5c <alt_get_errno>:
  80cc5c:	defffe04 	addi	sp,sp,-8
  80cc60:	dfc00115 	stw	ra,4(sp)
  80cc64:	df000015 	stw	fp,0(sp)
  80cc68:	d839883a 	mov	fp,sp
  80cc6c:	00802074 	movhi	r2,129
  80cc70:	10889c04 	addi	r2,r2,8816
  80cc74:	10800017 	ldw	r2,0(r2)
  80cc78:	10000526 	beq	r2,zero,80cc90 <alt_get_errno+0x34>
  80cc7c:	00802074 	movhi	r2,129
  80cc80:	10889c04 	addi	r2,r2,8816
  80cc84:	10800017 	ldw	r2,0(r2)
  80cc88:	103ee83a 	callr	r2
  80cc8c:	00000206 	br	80cc98 <alt_get_errno+0x3c>
  80cc90:	00802074 	movhi	r2,129
  80cc94:	108bd304 	addi	r2,r2,12108
  80cc98:	e037883a 	mov	sp,fp
  80cc9c:	dfc00117 	ldw	ra,4(sp)
  80cca0:	df000017 	ldw	fp,0(sp)
  80cca4:	dec00204 	addi	sp,sp,8
  80cca8:	f800283a 	ret

0080ccac <fstat>:
  80ccac:	defffb04 	addi	sp,sp,-20
  80ccb0:	dfc00415 	stw	ra,16(sp)
  80ccb4:	df000315 	stw	fp,12(sp)
  80ccb8:	df000304 	addi	fp,sp,12
  80ccbc:	e13ffe15 	stw	r4,-8(fp)
  80ccc0:	e17fff15 	stw	r5,-4(fp)
  80ccc4:	e0bffe17 	ldw	r2,-8(fp)
  80ccc8:	10000616 	blt	r2,zero,80cce4 <fstat+0x38>
  80cccc:	e0bffe17 	ldw	r2,-8(fp)
  80ccd0:	10c00324 	muli	r3,r2,12
  80ccd4:	00802074 	movhi	r2,129
  80ccd8:	10879504 	addi	r2,r2,7764
  80ccdc:	1885883a 	add	r2,r3,r2
  80cce0:	00000106 	br	80cce8 <fstat+0x3c>
  80cce4:	0005883a 	mov	r2,zero
  80cce8:	e0bffd15 	stw	r2,-12(fp)
  80ccec:	e0bffd17 	ldw	r2,-12(fp)
  80ccf0:	10001026 	beq	r2,zero,80cd34 <fstat+0x88>
  80ccf4:	e0bffd17 	ldw	r2,-12(fp)
  80ccf8:	10800017 	ldw	r2,0(r2)
  80ccfc:	10800817 	ldw	r2,32(r2)
  80cd00:	10000726 	beq	r2,zero,80cd20 <fstat+0x74>
  80cd04:	e0bffd17 	ldw	r2,-12(fp)
  80cd08:	10800017 	ldw	r2,0(r2)
  80cd0c:	10800817 	ldw	r2,32(r2)
  80cd10:	e13ffd17 	ldw	r4,-12(fp)
  80cd14:	e17fff17 	ldw	r5,-4(fp)
  80cd18:	103ee83a 	callr	r2
  80cd1c:	00000a06 	br	80cd48 <fstat+0x9c>
  80cd20:	e0bfff17 	ldw	r2,-4(fp)
  80cd24:	00c80004 	movi	r3,8192
  80cd28:	10c00115 	stw	r3,4(r2)
  80cd2c:	0005883a 	mov	r2,zero
  80cd30:	00000506 	br	80cd48 <fstat+0x9c>
  80cd34:	080cc5c0 	call	80cc5c <alt_get_errno>
  80cd38:	1007883a 	mov	r3,r2
  80cd3c:	00801444 	movi	r2,81
  80cd40:	18800015 	stw	r2,0(r3)
  80cd44:	00bfffc4 	movi	r2,-1
  80cd48:	e037883a 	mov	sp,fp
  80cd4c:	dfc00117 	ldw	ra,4(sp)
  80cd50:	df000017 	ldw	fp,0(sp)
  80cd54:	dec00204 	addi	sp,sp,8
  80cd58:	f800283a 	ret

0080cd5c <alt_get_errno>:
  80cd5c:	defffe04 	addi	sp,sp,-8
  80cd60:	dfc00115 	stw	ra,4(sp)
  80cd64:	df000015 	stw	fp,0(sp)
  80cd68:	d839883a 	mov	fp,sp
  80cd6c:	00802074 	movhi	r2,129
  80cd70:	10889c04 	addi	r2,r2,8816
  80cd74:	10800017 	ldw	r2,0(r2)
  80cd78:	10000526 	beq	r2,zero,80cd90 <alt_get_errno+0x34>
  80cd7c:	00802074 	movhi	r2,129
  80cd80:	10889c04 	addi	r2,r2,8816
  80cd84:	10800017 	ldw	r2,0(r2)
  80cd88:	103ee83a 	callr	r2
  80cd8c:	00000206 	br	80cd98 <alt_get_errno+0x3c>
  80cd90:	00802074 	movhi	r2,129
  80cd94:	108bd304 	addi	r2,r2,12108
  80cd98:	e037883a 	mov	sp,fp
  80cd9c:	dfc00117 	ldw	ra,4(sp)
  80cda0:	df000017 	ldw	fp,0(sp)
  80cda4:	dec00204 	addi	sp,sp,8
  80cda8:	f800283a 	ret

0080cdac <isatty>:
  80cdac:	deffed04 	addi	sp,sp,-76
  80cdb0:	dfc01215 	stw	ra,72(sp)
  80cdb4:	df001115 	stw	fp,68(sp)
  80cdb8:	df001104 	addi	fp,sp,68
  80cdbc:	e13fff15 	stw	r4,-4(fp)
  80cdc0:	e0bfff17 	ldw	r2,-4(fp)
  80cdc4:	10000616 	blt	r2,zero,80cde0 <isatty+0x34>
  80cdc8:	e0bfff17 	ldw	r2,-4(fp)
  80cdcc:	10c00324 	muli	r3,r2,12
  80cdd0:	00802074 	movhi	r2,129
  80cdd4:	10879504 	addi	r2,r2,7764
  80cdd8:	1885883a 	add	r2,r3,r2
  80cddc:	00000106 	br	80cde4 <isatty+0x38>
  80cde0:	0005883a 	mov	r2,zero
  80cde4:	e0bfef15 	stw	r2,-68(fp)
  80cde8:	e0bfef17 	ldw	r2,-68(fp)
  80cdec:	10000e26 	beq	r2,zero,80ce28 <isatty+0x7c>
  80cdf0:	e0bfef17 	ldw	r2,-68(fp)
  80cdf4:	10800017 	ldw	r2,0(r2)
  80cdf8:	10800817 	ldw	r2,32(r2)
  80cdfc:	1000021e 	bne	r2,zero,80ce08 <isatty+0x5c>
  80ce00:	00800044 	movi	r2,1
  80ce04:	00000d06 	br	80ce3c <isatty+0x90>
  80ce08:	e0bff004 	addi	r2,fp,-64
  80ce0c:	e13fff17 	ldw	r4,-4(fp)
  80ce10:	100b883a 	mov	r5,r2
  80ce14:	080ccac0 	call	80ccac <fstat>
  80ce18:	e0bff117 	ldw	r2,-60(fp)
  80ce1c:	10880020 	cmpeqi	r2,r2,8192
  80ce20:	10803fcc 	andi	r2,r2,255
  80ce24:	00000506 	br	80ce3c <isatty+0x90>
  80ce28:	080cd5c0 	call	80cd5c <alt_get_errno>
  80ce2c:	1007883a 	mov	r3,r2
  80ce30:	00801444 	movi	r2,81
  80ce34:	18800015 	stw	r2,0(r3)
  80ce38:	0005883a 	mov	r2,zero
  80ce3c:	e037883a 	mov	sp,fp
  80ce40:	dfc00117 	ldw	ra,4(sp)
  80ce44:	df000017 	ldw	fp,0(sp)
  80ce48:	dec00204 	addi	sp,sp,8
  80ce4c:	f800283a 	ret

0080ce50 <alt_load_section>:
  80ce50:	defffc04 	addi	sp,sp,-16
  80ce54:	df000315 	stw	fp,12(sp)
  80ce58:	df000304 	addi	fp,sp,12
  80ce5c:	e13ffd15 	stw	r4,-12(fp)
  80ce60:	e17ffe15 	stw	r5,-8(fp)
  80ce64:	e1bfff15 	stw	r6,-4(fp)
  80ce68:	e0fffe17 	ldw	r3,-8(fp)
  80ce6c:	e0bffd17 	ldw	r2,-12(fp)
  80ce70:	18800c26 	beq	r3,r2,80cea4 <alt_load_section+0x54>
  80ce74:	00000806 	br	80ce98 <alt_load_section+0x48>
  80ce78:	e0bffe17 	ldw	r2,-8(fp)
  80ce7c:	10c00104 	addi	r3,r2,4
  80ce80:	e0fffe15 	stw	r3,-8(fp)
  80ce84:	e0fffd17 	ldw	r3,-12(fp)
  80ce88:	19000104 	addi	r4,r3,4
  80ce8c:	e13ffd15 	stw	r4,-12(fp)
  80ce90:	18c00017 	ldw	r3,0(r3)
  80ce94:	10c00015 	stw	r3,0(r2)
  80ce98:	e0fffe17 	ldw	r3,-8(fp)
  80ce9c:	e0bfff17 	ldw	r2,-4(fp)
  80cea0:	18bff51e 	bne	r3,r2,80ce78 <__alt_data_end+0xff80ce78>
  80cea4:	e037883a 	mov	sp,fp
  80cea8:	df000017 	ldw	fp,0(sp)
  80ceac:	dec00104 	addi	sp,sp,4
  80ceb0:	f800283a 	ret

0080ceb4 <alt_load>:
  80ceb4:	defffe04 	addi	sp,sp,-8
  80ceb8:	dfc00115 	stw	ra,4(sp)
  80cebc:	df000015 	stw	fp,0(sp)
  80cec0:	d839883a 	mov	fp,sp
  80cec4:	01002074 	movhi	r4,129
  80cec8:	2108a304 	addi	r4,r4,8844
  80cecc:	01402074 	movhi	r5,129
  80ced0:	29458004 	addi	r5,r5,5632
  80ced4:	01802074 	movhi	r6,129
  80ced8:	3188a304 	addi	r6,r6,8844
  80cedc:	080ce500 	call	80ce50 <alt_load_section>
  80cee0:	01002034 	movhi	r4,128
  80cee4:	21000804 	addi	r4,r4,32
  80cee8:	01402034 	movhi	r5,128
  80ceec:	29400804 	addi	r5,r5,32
  80cef0:	01802034 	movhi	r6,128
  80cef4:	31809104 	addi	r6,r6,580
  80cef8:	080ce500 	call	80ce50 <alt_load_section>
  80cefc:	01002074 	movhi	r4,129
  80cf00:	2102df04 	addi	r4,r4,2940
  80cf04:	01402074 	movhi	r5,129
  80cf08:	2942df04 	addi	r5,r5,2940
  80cf0c:	01802074 	movhi	r6,129
  80cf10:	31858004 	addi	r6,r6,5632
  80cf14:	080ce500 	call	80ce50 <alt_load_section>
  80cf18:	080fb340 	call	80fb34 <alt_dcache_flush_all>
  80cf1c:	080fdb40 	call	80fdb4 <alt_icache_flush_all>
  80cf20:	e037883a 	mov	sp,fp
  80cf24:	dfc00117 	ldw	ra,4(sp)
  80cf28:	df000017 	ldw	fp,0(sp)
  80cf2c:	dec00204 	addi	sp,sp,8
  80cf30:	f800283a 	ret

0080cf34 <alt_get_errno>:
  80cf34:	defffe04 	addi	sp,sp,-8
  80cf38:	dfc00115 	stw	ra,4(sp)
  80cf3c:	df000015 	stw	fp,0(sp)
  80cf40:	d839883a 	mov	fp,sp
  80cf44:	00802074 	movhi	r2,129
  80cf48:	10889c04 	addi	r2,r2,8816
  80cf4c:	10800017 	ldw	r2,0(r2)
  80cf50:	10000526 	beq	r2,zero,80cf68 <alt_get_errno+0x34>
  80cf54:	00802074 	movhi	r2,129
  80cf58:	10889c04 	addi	r2,r2,8816
  80cf5c:	10800017 	ldw	r2,0(r2)
  80cf60:	103ee83a 	callr	r2
  80cf64:	00000206 	br	80cf70 <alt_get_errno+0x3c>
  80cf68:	00802074 	movhi	r2,129
  80cf6c:	108bd304 	addi	r2,r2,12108
  80cf70:	e037883a 	mov	sp,fp
  80cf74:	dfc00117 	ldw	ra,4(sp)
  80cf78:	df000017 	ldw	fp,0(sp)
  80cf7c:	dec00204 	addi	sp,sp,8
  80cf80:	f800283a 	ret

0080cf84 <lseek>:
  80cf84:	defff904 	addi	sp,sp,-28
  80cf88:	dfc00615 	stw	ra,24(sp)
  80cf8c:	df000515 	stw	fp,20(sp)
  80cf90:	df000504 	addi	fp,sp,20
  80cf94:	e13ffd15 	stw	r4,-12(fp)
  80cf98:	e17ffe15 	stw	r5,-8(fp)
  80cf9c:	e1bfff15 	stw	r6,-4(fp)
  80cfa0:	e03ffb15 	stw	zero,-20(fp)
  80cfa4:	e0bffd17 	ldw	r2,-12(fp)
  80cfa8:	10000616 	blt	r2,zero,80cfc4 <lseek+0x40>
  80cfac:	e0bffd17 	ldw	r2,-12(fp)
  80cfb0:	10c00324 	muli	r3,r2,12
  80cfb4:	00802074 	movhi	r2,129
  80cfb8:	10879504 	addi	r2,r2,7764
  80cfbc:	1885883a 	add	r2,r3,r2
  80cfc0:	00000106 	br	80cfc8 <lseek+0x44>
  80cfc4:	0005883a 	mov	r2,zero
  80cfc8:	e0bffc15 	stw	r2,-16(fp)
  80cfcc:	e0bffc17 	ldw	r2,-16(fp)
  80cfd0:	10001026 	beq	r2,zero,80d014 <lseek+0x90>
  80cfd4:	e0bffc17 	ldw	r2,-16(fp)
  80cfd8:	10800017 	ldw	r2,0(r2)
  80cfdc:	10800717 	ldw	r2,28(r2)
  80cfe0:	10000926 	beq	r2,zero,80d008 <lseek+0x84>
  80cfe4:	e0bffc17 	ldw	r2,-16(fp)
  80cfe8:	10800017 	ldw	r2,0(r2)
  80cfec:	10800717 	ldw	r2,28(r2)
  80cff0:	e13ffc17 	ldw	r4,-16(fp)
  80cff4:	e17ffe17 	ldw	r5,-8(fp)
  80cff8:	e1bfff17 	ldw	r6,-4(fp)
  80cffc:	103ee83a 	callr	r2
  80d000:	e0bffb15 	stw	r2,-20(fp)
  80d004:	00000506 	br	80d01c <lseek+0x98>
  80d008:	00bfde84 	movi	r2,-134
  80d00c:	e0bffb15 	stw	r2,-20(fp)
  80d010:	00000206 	br	80d01c <lseek+0x98>
  80d014:	00bfebc4 	movi	r2,-81
  80d018:	e0bffb15 	stw	r2,-20(fp)
  80d01c:	e0bffb17 	ldw	r2,-20(fp)
  80d020:	1000070e 	bge	r2,zero,80d040 <lseek+0xbc>
  80d024:	080cf340 	call	80cf34 <alt_get_errno>
  80d028:	1007883a 	mov	r3,r2
  80d02c:	e0bffb17 	ldw	r2,-20(fp)
  80d030:	0085c83a 	sub	r2,zero,r2
  80d034:	18800015 	stw	r2,0(r3)
  80d038:	00bfffc4 	movi	r2,-1
  80d03c:	e0bffb15 	stw	r2,-20(fp)
  80d040:	e0bffb17 	ldw	r2,-20(fp)
  80d044:	e037883a 	mov	sp,fp
  80d048:	dfc00117 	ldw	ra,4(sp)
  80d04c:	df000017 	ldw	fp,0(sp)
  80d050:	dec00204 	addi	sp,sp,8
  80d054:	f800283a 	ret

0080d058 <alt_main>:
  80d058:	defffd04 	addi	sp,sp,-12
  80d05c:	dfc00215 	stw	ra,8(sp)
  80d060:	df000115 	stw	fp,4(sp)
  80d064:	df000104 	addi	fp,sp,4
  80d068:	0009883a 	mov	r4,zero
  80d06c:	080d8f40 	call	80d8f4 <alt_irq_init>
  80d070:	0001883a 	nop
  80d074:	080d9280 	call	80d928 <alt_sys_init>
  80d078:	01002074 	movhi	r4,129
  80d07c:	2104c604 	addi	r4,r4,4888
  80d080:	01402074 	movhi	r5,129
  80d084:	2944c604 	addi	r5,r5,4888
  80d088:	01802074 	movhi	r6,129
  80d08c:	3184c604 	addi	r6,r6,4888
  80d090:	080fea40 	call	80fea4 <alt_io_redirect>
  80d094:	080fc6c0 	call	80fc6c <_do_ctors>
  80d098:	01002074 	movhi	r4,129
  80d09c:	213f3204 	addi	r4,r4,-824
  80d0a0:	08107d80 	call	8107d8 <atexit>
  80d0a4:	d1234317 	ldw	r4,-29428(gp)
  80d0a8:	d0e34417 	ldw	r3,-29424(gp)
  80d0ac:	d0a34517 	ldw	r2,-29420(gp)
  80d0b0:	180b883a 	mov	r5,r3
  80d0b4:	100d883a 	mov	r6,r2
  80d0b8:	08082e00 	call	8082e0 <main>
  80d0bc:	e0bfff15 	stw	r2,-4(fp)
  80d0c0:	01000044 	movi	r4,1
  80d0c4:	080cb600 	call	80cb60 <close>
  80d0c8:	e13fff17 	ldw	r4,-4(fp)
  80d0cc:	08107ec0 	call	8107ec <exit>

0080d0d0 <__malloc_lock>:
  80d0d0:	defffe04 	addi	sp,sp,-8
  80d0d4:	df000115 	stw	fp,4(sp)
  80d0d8:	df000104 	addi	fp,sp,4
  80d0dc:	e13fff15 	stw	r4,-4(fp)
  80d0e0:	e037883a 	mov	sp,fp
  80d0e4:	df000017 	ldw	fp,0(sp)
  80d0e8:	dec00104 	addi	sp,sp,4
  80d0ec:	f800283a 	ret

0080d0f0 <__malloc_unlock>:
  80d0f0:	defffe04 	addi	sp,sp,-8
  80d0f4:	df000115 	stw	fp,4(sp)
  80d0f8:	df000104 	addi	fp,sp,4
  80d0fc:	e13fff15 	stw	r4,-4(fp)
  80d100:	e037883a 	mov	sp,fp
  80d104:	df000017 	ldw	fp,0(sp)
  80d108:	dec00104 	addi	sp,sp,4
  80d10c:	f800283a 	ret

0080d110 <alt_printf>:
  80d110:	defff204 	addi	sp,sp,-56
  80d114:	dfc00a15 	stw	ra,40(sp)
  80d118:	df000915 	stw	fp,36(sp)
  80d11c:	df000904 	addi	fp,sp,36
  80d120:	e1400215 	stw	r5,8(fp)
  80d124:	e1800315 	stw	r6,12(fp)
  80d128:	e1c00415 	stw	r7,16(fp)
  80d12c:	e13fff15 	stw	r4,-4(fp)
  80d130:	e0800204 	addi	r2,fp,8
  80d134:	e0bffe15 	stw	r2,-8(fp)
  80d138:	e0bfff17 	ldw	r2,-4(fp)
  80d13c:	e0bff715 	stw	r2,-36(fp)
  80d140:	00007106 	br	80d308 <alt_printf+0x1f8>
  80d144:	e0bff807 	ldb	r2,-32(fp)
  80d148:	10800960 	cmpeqi	r2,r2,37
  80d14c:	1000041e 	bne	r2,zero,80d160 <alt_printf+0x50>
  80d150:	e0bff807 	ldb	r2,-32(fp)
  80d154:	1009883a 	mov	r4,r2
  80d158:	080d3380 	call	80d338 <alt_putchar>
  80d15c:	00006a06 	br	80d308 <alt_printf+0x1f8>
  80d160:	e0bff717 	ldw	r2,-36(fp)
  80d164:	10c00044 	addi	r3,r2,1
  80d168:	e0fff715 	stw	r3,-36(fp)
  80d16c:	10800003 	ldbu	r2,0(r2)
  80d170:	e0bff805 	stb	r2,-32(fp)
  80d174:	e0bff807 	ldb	r2,-32(fp)
  80d178:	10006226 	beq	r2,zero,80d304 <alt_printf+0x1f4>
  80d17c:	e0bff807 	ldb	r2,-32(fp)
  80d180:	10800958 	cmpnei	r2,r2,37
  80d184:	1000041e 	bne	r2,zero,80d198 <alt_printf+0x88>
  80d188:	e0bff807 	ldb	r2,-32(fp)
  80d18c:	1009883a 	mov	r4,r2
  80d190:	080d3380 	call	80d338 <alt_putchar>
  80d194:	00005c06 	br	80d308 <alt_printf+0x1f8>
  80d198:	e0bff807 	ldb	r2,-32(fp)
  80d19c:	108018d8 	cmpnei	r2,r2,99
  80d1a0:	1000081e 	bne	r2,zero,80d1c4 <alt_printf+0xb4>
  80d1a4:	e0bffe17 	ldw	r2,-8(fp)
  80d1a8:	10c00104 	addi	r3,r2,4
  80d1ac:	e0fffe15 	stw	r3,-8(fp)
  80d1b0:	10800017 	ldw	r2,0(r2)
  80d1b4:	e0bffd15 	stw	r2,-12(fp)
  80d1b8:	e13ffd17 	ldw	r4,-12(fp)
  80d1bc:	080d3380 	call	80d338 <alt_putchar>
  80d1c0:	00005106 	br	80d308 <alt_printf+0x1f8>
  80d1c4:	e0bff807 	ldb	r2,-32(fp)
  80d1c8:	10801e18 	cmpnei	r2,r2,120
  80d1cc:	1000341e 	bne	r2,zero,80d2a0 <alt_printf+0x190>
  80d1d0:	e0bffe17 	ldw	r2,-8(fp)
  80d1d4:	10c00104 	addi	r3,r2,4
  80d1d8:	e0fffe15 	stw	r3,-8(fp)
  80d1dc:	10800017 	ldw	r2,0(r2)
  80d1e0:	e0bffb15 	stw	r2,-20(fp)
  80d1e4:	e0bffb17 	ldw	r2,-20(fp)
  80d1e8:	1000031e 	bne	r2,zero,80d1f8 <alt_printf+0xe8>
  80d1ec:	01000c04 	movi	r4,48
  80d1f0:	080d3380 	call	80d338 <alt_putchar>
  80d1f4:	00004406 	br	80d308 <alt_printf+0x1f8>
  80d1f8:	00800704 	movi	r2,28
  80d1fc:	e0bff915 	stw	r2,-28(fp)
  80d200:	00000306 	br	80d210 <alt_printf+0x100>
  80d204:	e0bff917 	ldw	r2,-28(fp)
  80d208:	10bfff04 	addi	r2,r2,-4
  80d20c:	e0bff915 	stw	r2,-28(fp)
  80d210:	00c003c4 	movi	r3,15
  80d214:	e0bff917 	ldw	r2,-28(fp)
  80d218:	1884983a 	sll	r2,r3,r2
  80d21c:	1007883a 	mov	r3,r2
  80d220:	e0bffb17 	ldw	r2,-20(fp)
  80d224:	1884703a 	and	r2,r3,r2
  80d228:	103ff626 	beq	r2,zero,80d204 <__alt_data_end+0xff80d204>
  80d22c:	00001906 	br	80d294 <alt_printf+0x184>
  80d230:	00c003c4 	movi	r3,15
  80d234:	e0bff917 	ldw	r2,-28(fp)
  80d238:	1884983a 	sll	r2,r3,r2
  80d23c:	1007883a 	mov	r3,r2
  80d240:	e0bffb17 	ldw	r2,-20(fp)
  80d244:	1886703a 	and	r3,r3,r2
  80d248:	e0bff917 	ldw	r2,-28(fp)
  80d24c:	1884d83a 	srl	r2,r3,r2
  80d250:	e0bffc15 	stw	r2,-16(fp)
  80d254:	e0bffc17 	ldw	r2,-16(fp)
  80d258:	108002a8 	cmpgeui	r2,r2,10
  80d25c:	1000041e 	bne	r2,zero,80d270 <alt_printf+0x160>
  80d260:	e0bffc17 	ldw	r2,-16(fp)
  80d264:	10800c04 	addi	r2,r2,48
  80d268:	e0bff805 	stb	r2,-32(fp)
  80d26c:	00000306 	br	80d27c <alt_printf+0x16c>
  80d270:	e0bffc17 	ldw	r2,-16(fp)
  80d274:	108015c4 	addi	r2,r2,87
  80d278:	e0bff805 	stb	r2,-32(fp)
  80d27c:	e0bff807 	ldb	r2,-32(fp)
  80d280:	1009883a 	mov	r4,r2
  80d284:	080d3380 	call	80d338 <alt_putchar>
  80d288:	e0bff917 	ldw	r2,-28(fp)
  80d28c:	10bfff04 	addi	r2,r2,-4
  80d290:	e0bff915 	stw	r2,-28(fp)
  80d294:	e0bff917 	ldw	r2,-28(fp)
  80d298:	103fe50e 	bge	r2,zero,80d230 <__alt_data_end+0xff80d230>
  80d29c:	00001a06 	br	80d308 <alt_printf+0x1f8>
  80d2a0:	e0bff807 	ldb	r2,-32(fp)
  80d2a4:	10801cd8 	cmpnei	r2,r2,115
  80d2a8:	1000151e 	bne	r2,zero,80d300 <alt_printf+0x1f0>
  80d2ac:	e0bffe17 	ldw	r2,-8(fp)
  80d2b0:	10c00104 	addi	r3,r2,4
  80d2b4:	e0fffe15 	stw	r3,-8(fp)
  80d2b8:	10800017 	ldw	r2,0(r2)
  80d2bc:	e0bffa15 	stw	r2,-24(fp)
  80d2c0:	00000906 	br	80d2e8 <alt_printf+0x1d8>
  80d2c4:	e0bffa17 	ldw	r2,-24(fp)
  80d2c8:	10c00044 	addi	r3,r2,1
  80d2cc:	e0fffa15 	stw	r3,-24(fp)
  80d2d0:	10800003 	ldbu	r2,0(r2)
  80d2d4:	10803fcc 	andi	r2,r2,255
  80d2d8:	1080201c 	xori	r2,r2,128
  80d2dc:	10bfe004 	addi	r2,r2,-128
  80d2e0:	1009883a 	mov	r4,r2
  80d2e4:	080d3380 	call	80d338 <alt_putchar>
  80d2e8:	e0bffa17 	ldw	r2,-24(fp)
  80d2ec:	10800003 	ldbu	r2,0(r2)
  80d2f0:	10803fcc 	andi	r2,r2,255
  80d2f4:	1080201c 	xori	r2,r2,128
  80d2f8:	10bfe004 	addi	r2,r2,-128
  80d2fc:	103ff11e 	bne	r2,zero,80d2c4 <__alt_data_end+0xff80d2c4>
  80d300:	00000106 	br	80d308 <alt_printf+0x1f8>
  80d304:	00000706 	br	80d324 <alt_printf+0x214>
  80d308:	e0bff717 	ldw	r2,-36(fp)
  80d30c:	10c00044 	addi	r3,r2,1
  80d310:	e0fff715 	stw	r3,-36(fp)
  80d314:	10800003 	ldbu	r2,0(r2)
  80d318:	e0bff805 	stb	r2,-32(fp)
  80d31c:	e0bff807 	ldb	r2,-32(fp)
  80d320:	103f881e 	bne	r2,zero,80d144 <__alt_data_end+0xff80d144>
  80d324:	e037883a 	mov	sp,fp
  80d328:	dfc00117 	ldw	ra,4(sp)
  80d32c:	df000017 	ldw	fp,0(sp)
  80d330:	dec00504 	addi	sp,sp,20
  80d334:	f800283a 	ret

0080d338 <alt_putchar>:
  80d338:	defffd04 	addi	sp,sp,-12
  80d33c:	dfc00215 	stw	ra,8(sp)
  80d340:	df000115 	stw	fp,4(sp)
  80d344:	df000104 	addi	fp,sp,4
  80d348:	e13fff15 	stw	r4,-4(fp)
  80d34c:	00802074 	movhi	r2,129
  80d350:	10889404 	addi	r2,r2,8784
  80d354:	10800017 	ldw	r2,0(r2)
  80d358:	10800217 	ldw	r2,8(r2)
  80d35c:	e13fff17 	ldw	r4,-4(fp)
  80d360:	100b883a 	mov	r5,r2
  80d364:	080c2080 	call	80c208 <putc>
  80d368:	e037883a 	mov	sp,fp
  80d36c:	dfc00117 	ldw	ra,4(sp)
  80d370:	df000017 	ldw	fp,0(sp)
  80d374:	dec00204 	addi	sp,sp,8
  80d378:	f800283a 	ret

0080d37c <alt_get_errno>:
  80d37c:	defffe04 	addi	sp,sp,-8
  80d380:	dfc00115 	stw	ra,4(sp)
  80d384:	df000015 	stw	fp,0(sp)
  80d388:	d839883a 	mov	fp,sp
  80d38c:	00802074 	movhi	r2,129
  80d390:	10889c04 	addi	r2,r2,8816
  80d394:	10800017 	ldw	r2,0(r2)
  80d398:	10000526 	beq	r2,zero,80d3b0 <alt_get_errno+0x34>
  80d39c:	00802074 	movhi	r2,129
  80d3a0:	10889c04 	addi	r2,r2,8816
  80d3a4:	10800017 	ldw	r2,0(r2)
  80d3a8:	103ee83a 	callr	r2
  80d3ac:	00000206 	br	80d3b8 <alt_get_errno+0x3c>
  80d3b0:	00802074 	movhi	r2,129
  80d3b4:	108bd304 	addi	r2,r2,12108
  80d3b8:	e037883a 	mov	sp,fp
  80d3bc:	dfc00117 	ldw	ra,4(sp)
  80d3c0:	df000017 	ldw	fp,0(sp)
  80d3c4:	dec00204 	addi	sp,sp,8
  80d3c8:	f800283a 	ret

0080d3cc <read>:
  80d3cc:	defff904 	addi	sp,sp,-28
  80d3d0:	dfc00615 	stw	ra,24(sp)
  80d3d4:	df000515 	stw	fp,20(sp)
  80d3d8:	df000504 	addi	fp,sp,20
  80d3dc:	e13ffd15 	stw	r4,-12(fp)
  80d3e0:	e17ffe15 	stw	r5,-8(fp)
  80d3e4:	e1bfff15 	stw	r6,-4(fp)
  80d3e8:	e0bffd17 	ldw	r2,-12(fp)
  80d3ec:	10000616 	blt	r2,zero,80d408 <read+0x3c>
  80d3f0:	e0bffd17 	ldw	r2,-12(fp)
  80d3f4:	10c00324 	muli	r3,r2,12
  80d3f8:	00802074 	movhi	r2,129
  80d3fc:	10879504 	addi	r2,r2,7764
  80d400:	1885883a 	add	r2,r3,r2
  80d404:	00000106 	br	80d40c <read+0x40>
  80d408:	0005883a 	mov	r2,zero
  80d40c:	e0bffb15 	stw	r2,-20(fp)
  80d410:	e0bffb17 	ldw	r2,-20(fp)
  80d414:	10002226 	beq	r2,zero,80d4a0 <read+0xd4>
  80d418:	e0bffb17 	ldw	r2,-20(fp)
  80d41c:	10800217 	ldw	r2,8(r2)
  80d420:	108000cc 	andi	r2,r2,3
  80d424:	10800060 	cmpeqi	r2,r2,1
  80d428:	1000181e 	bne	r2,zero,80d48c <read+0xc0>
  80d42c:	e0bffb17 	ldw	r2,-20(fp)
  80d430:	10800017 	ldw	r2,0(r2)
  80d434:	10800517 	ldw	r2,20(r2)
  80d438:	10001426 	beq	r2,zero,80d48c <read+0xc0>
  80d43c:	e0bffb17 	ldw	r2,-20(fp)
  80d440:	10800017 	ldw	r2,0(r2)
  80d444:	10800517 	ldw	r2,20(r2)
  80d448:	e0ffff17 	ldw	r3,-4(fp)
  80d44c:	e13ffb17 	ldw	r4,-20(fp)
  80d450:	e17ffe17 	ldw	r5,-8(fp)
  80d454:	180d883a 	mov	r6,r3
  80d458:	103ee83a 	callr	r2
  80d45c:	e0bffc15 	stw	r2,-16(fp)
  80d460:	e0bffc17 	ldw	r2,-16(fp)
  80d464:	1000070e 	bge	r2,zero,80d484 <read+0xb8>
  80d468:	080d37c0 	call	80d37c <alt_get_errno>
  80d46c:	1007883a 	mov	r3,r2
  80d470:	e0bffc17 	ldw	r2,-16(fp)
  80d474:	0085c83a 	sub	r2,zero,r2
  80d478:	18800015 	stw	r2,0(r3)
  80d47c:	00bfffc4 	movi	r2,-1
  80d480:	00000c06 	br	80d4b4 <read+0xe8>
  80d484:	e0bffc17 	ldw	r2,-16(fp)
  80d488:	00000a06 	br	80d4b4 <read+0xe8>
  80d48c:	080d37c0 	call	80d37c <alt_get_errno>
  80d490:	1007883a 	mov	r3,r2
  80d494:	00800344 	movi	r2,13
  80d498:	18800015 	stw	r2,0(r3)
  80d49c:	00000406 	br	80d4b0 <read+0xe4>
  80d4a0:	080d37c0 	call	80d37c <alt_get_errno>
  80d4a4:	1007883a 	mov	r3,r2
  80d4a8:	00801444 	movi	r2,81
  80d4ac:	18800015 	stw	r2,0(r3)
  80d4b0:	00bfffc4 	movi	r2,-1
  80d4b4:	e037883a 	mov	sp,fp
  80d4b8:	dfc00117 	ldw	ra,4(sp)
  80d4bc:	df000017 	ldw	fp,0(sp)
  80d4c0:	dec00204 	addi	sp,sp,8
  80d4c4:	f800283a 	ret

0080d4c8 <alt_release_fd>:
  80d4c8:	defffe04 	addi	sp,sp,-8
  80d4cc:	df000115 	stw	fp,4(sp)
  80d4d0:	df000104 	addi	fp,sp,4
  80d4d4:	e13fff15 	stw	r4,-4(fp)
  80d4d8:	e0bfff17 	ldw	r2,-4(fp)
  80d4dc:	108000d0 	cmplti	r2,r2,3
  80d4e0:	10000d1e 	bne	r2,zero,80d518 <alt_release_fd+0x50>
  80d4e4:	00802074 	movhi	r2,129
  80d4e8:	10879504 	addi	r2,r2,7764
  80d4ec:	e0ffff17 	ldw	r3,-4(fp)
  80d4f0:	18c00324 	muli	r3,r3,12
  80d4f4:	18c00204 	addi	r3,r3,8
  80d4f8:	10c5883a 	add	r2,r2,r3
  80d4fc:	10000015 	stw	zero,0(r2)
  80d500:	00802074 	movhi	r2,129
  80d504:	10879504 	addi	r2,r2,7764
  80d508:	e0ffff17 	ldw	r3,-4(fp)
  80d50c:	18c00324 	muli	r3,r3,12
  80d510:	10c5883a 	add	r2,r2,r3
  80d514:	10000015 	stw	zero,0(r2)
  80d518:	e037883a 	mov	sp,fp
  80d51c:	df000017 	ldw	fp,0(sp)
  80d520:	dec00104 	addi	sp,sp,4
  80d524:	f800283a 	ret

0080d528 <sbrk>:
  80d528:	defff904 	addi	sp,sp,-28
  80d52c:	df000615 	stw	fp,24(sp)
  80d530:	df000604 	addi	fp,sp,24
  80d534:	e13fff15 	stw	r4,-4(fp)
  80d538:	0005303a 	rdctl	r2,status
  80d53c:	e0bffc15 	stw	r2,-16(fp)
  80d540:	e0fffc17 	ldw	r3,-16(fp)
  80d544:	00bfff84 	movi	r2,-2
  80d548:	1884703a 	and	r2,r3,r2
  80d54c:	1001703a 	wrctl	status,r2
  80d550:	e0bffc17 	ldw	r2,-16(fp)
  80d554:	e0bffa15 	stw	r2,-24(fp)
  80d558:	d0a00c17 	ldw	r2,-32720(gp)
  80d55c:	10c000c4 	addi	r3,r2,3
  80d560:	00bfff04 	movi	r2,-4
  80d564:	1884703a 	and	r2,r3,r2
  80d568:	d0a00c15 	stw	r2,-32720(gp)
  80d56c:	d0e00c17 	ldw	r3,-32720(gp)
  80d570:	e0bfff17 	ldw	r2,-4(fp)
  80d574:	1887883a 	add	r3,r3,r2
  80d578:	00804034 	movhi	r2,256
  80d57c:	10800004 	addi	r2,r2,0
  80d580:	10c0062e 	bgeu	r2,r3,80d59c <sbrk+0x74>
  80d584:	e0bffa17 	ldw	r2,-24(fp)
  80d588:	e0bffd15 	stw	r2,-12(fp)
  80d58c:	e0bffd17 	ldw	r2,-12(fp)
  80d590:	1001703a 	wrctl	status,r2
  80d594:	00bfffc4 	movi	r2,-1
  80d598:	00000b06 	br	80d5c8 <sbrk+0xa0>
  80d59c:	d0a00c17 	ldw	r2,-32720(gp)
  80d5a0:	e0bffb15 	stw	r2,-20(fp)
  80d5a4:	d0e00c17 	ldw	r3,-32720(gp)
  80d5a8:	e0bfff17 	ldw	r2,-4(fp)
  80d5ac:	1885883a 	add	r2,r3,r2
  80d5b0:	d0a00c15 	stw	r2,-32720(gp)
  80d5b4:	e0bffa17 	ldw	r2,-24(fp)
  80d5b8:	e0bffe15 	stw	r2,-8(fp)
  80d5bc:	e0bffe17 	ldw	r2,-8(fp)
  80d5c0:	1001703a 	wrctl	status,r2
  80d5c4:	e0bffb17 	ldw	r2,-20(fp)
  80d5c8:	e037883a 	mov	sp,fp
  80d5cc:	df000017 	ldw	fp,0(sp)
  80d5d0:	dec00104 	addi	sp,sp,4
  80d5d4:	f800283a 	ret

0080d5d8 <alt_alarm_stop>:
  80d5d8:	defffa04 	addi	sp,sp,-24
  80d5dc:	df000515 	stw	fp,20(sp)
  80d5e0:	df000504 	addi	fp,sp,20
  80d5e4:	e13fff15 	stw	r4,-4(fp)
  80d5e8:	0005303a 	rdctl	r2,status
  80d5ec:	e0bffc15 	stw	r2,-16(fp)
  80d5f0:	e0fffc17 	ldw	r3,-16(fp)
  80d5f4:	00bfff84 	movi	r2,-2
  80d5f8:	1884703a 	and	r2,r3,r2
  80d5fc:	1001703a 	wrctl	status,r2
  80d600:	e0bffc17 	ldw	r2,-16(fp)
  80d604:	e0bffb15 	stw	r2,-20(fp)
  80d608:	e0bfff17 	ldw	r2,-4(fp)
  80d60c:	e0bffd15 	stw	r2,-12(fp)
  80d610:	e0bffd17 	ldw	r2,-12(fp)
  80d614:	10800017 	ldw	r2,0(r2)
  80d618:	e0fffd17 	ldw	r3,-12(fp)
  80d61c:	18c00117 	ldw	r3,4(r3)
  80d620:	10c00115 	stw	r3,4(r2)
  80d624:	e0bffd17 	ldw	r2,-12(fp)
  80d628:	10800117 	ldw	r2,4(r2)
  80d62c:	e0fffd17 	ldw	r3,-12(fp)
  80d630:	18c00017 	ldw	r3,0(r3)
  80d634:	10c00015 	stw	r3,0(r2)
  80d638:	e0bffd17 	ldw	r2,-12(fp)
  80d63c:	e0fffd17 	ldw	r3,-12(fp)
  80d640:	10c00115 	stw	r3,4(r2)
  80d644:	e0bffd17 	ldw	r2,-12(fp)
  80d648:	e0fffd17 	ldw	r3,-12(fp)
  80d64c:	10c00015 	stw	r3,0(r2)
  80d650:	e0bffb17 	ldw	r2,-20(fp)
  80d654:	e0bffe15 	stw	r2,-8(fp)
  80d658:	e0bffe17 	ldw	r2,-8(fp)
  80d65c:	1001703a 	wrctl	status,r2
  80d660:	e037883a 	mov	sp,fp
  80d664:	df000017 	ldw	fp,0(sp)
  80d668:	dec00104 	addi	sp,sp,4
  80d66c:	f800283a 	ret

0080d670 <alt_tick>:
  80d670:	defffb04 	addi	sp,sp,-20
  80d674:	dfc00415 	stw	ra,16(sp)
  80d678:	df000315 	stw	fp,12(sp)
  80d67c:	df000304 	addi	fp,sp,12
  80d680:	d0a00d17 	ldw	r2,-32716(gp)
  80d684:	e0bffd15 	stw	r2,-12(fp)
  80d688:	d0a34717 	ldw	r2,-29412(gp)
  80d68c:	10800044 	addi	r2,r2,1
  80d690:	d0a34715 	stw	r2,-29412(gp)
  80d694:	00002e06 	br	80d750 <alt_tick+0xe0>
  80d698:	e0bffd17 	ldw	r2,-12(fp)
  80d69c:	10800017 	ldw	r2,0(r2)
  80d6a0:	e0bffe15 	stw	r2,-8(fp)
  80d6a4:	e0bffd17 	ldw	r2,-12(fp)
  80d6a8:	10800403 	ldbu	r2,16(r2)
  80d6ac:	10803fcc 	andi	r2,r2,255
  80d6b0:	10000426 	beq	r2,zero,80d6c4 <alt_tick+0x54>
  80d6b4:	d0a34717 	ldw	r2,-29412(gp)
  80d6b8:	1000021e 	bne	r2,zero,80d6c4 <alt_tick+0x54>
  80d6bc:	e0bffd17 	ldw	r2,-12(fp)
  80d6c0:	10000405 	stb	zero,16(r2)
  80d6c4:	e0bffd17 	ldw	r2,-12(fp)
  80d6c8:	10800217 	ldw	r2,8(r2)
  80d6cc:	d0e34717 	ldw	r3,-29412(gp)
  80d6d0:	18801d36 	bltu	r3,r2,80d748 <alt_tick+0xd8>
  80d6d4:	e0bffd17 	ldw	r2,-12(fp)
  80d6d8:	10800403 	ldbu	r2,16(r2)
  80d6dc:	10803fcc 	andi	r2,r2,255
  80d6e0:	1000191e 	bne	r2,zero,80d748 <alt_tick+0xd8>
  80d6e4:	e0bffd17 	ldw	r2,-12(fp)
  80d6e8:	10800317 	ldw	r2,12(r2)
  80d6ec:	e0fffd17 	ldw	r3,-12(fp)
  80d6f0:	18c00517 	ldw	r3,20(r3)
  80d6f4:	1809883a 	mov	r4,r3
  80d6f8:	103ee83a 	callr	r2
  80d6fc:	e0bfff15 	stw	r2,-4(fp)
  80d700:	e0bfff17 	ldw	r2,-4(fp)
  80d704:	1000031e 	bne	r2,zero,80d714 <alt_tick+0xa4>
  80d708:	e13ffd17 	ldw	r4,-12(fp)
  80d70c:	080d5d80 	call	80d5d8 <alt_alarm_stop>
  80d710:	00000d06 	br	80d748 <alt_tick+0xd8>
  80d714:	e0bffd17 	ldw	r2,-12(fp)
  80d718:	10c00217 	ldw	r3,8(r2)
  80d71c:	e0bfff17 	ldw	r2,-4(fp)
  80d720:	1887883a 	add	r3,r3,r2
  80d724:	e0bffd17 	ldw	r2,-12(fp)
  80d728:	10c00215 	stw	r3,8(r2)
  80d72c:	e0bffd17 	ldw	r2,-12(fp)
  80d730:	10c00217 	ldw	r3,8(r2)
  80d734:	d0a34717 	ldw	r2,-29412(gp)
  80d738:	1880032e 	bgeu	r3,r2,80d748 <alt_tick+0xd8>
  80d73c:	e0bffd17 	ldw	r2,-12(fp)
  80d740:	00c00044 	movi	r3,1
  80d744:	10c00405 	stb	r3,16(r2)
  80d748:	e0bffe17 	ldw	r2,-8(fp)
  80d74c:	e0bffd15 	stw	r2,-12(fp)
  80d750:	e0fffd17 	ldw	r3,-12(fp)
  80d754:	d0a00d04 	addi	r2,gp,-32716
  80d758:	18bfcf1e 	bne	r3,r2,80d698 <__alt_data_end+0xff80d698>
  80d75c:	0001883a 	nop
  80d760:	e037883a 	mov	sp,fp
  80d764:	dfc00117 	ldw	ra,4(sp)
  80d768:	df000017 	ldw	fp,0(sp)
  80d76c:	dec00204 	addi	sp,sp,8
  80d770:	f800283a 	ret

0080d774 <alt_get_errno>:
  80d774:	defffe04 	addi	sp,sp,-8
  80d778:	dfc00115 	stw	ra,4(sp)
  80d77c:	df000015 	stw	fp,0(sp)
  80d780:	d839883a 	mov	fp,sp
  80d784:	00802074 	movhi	r2,129
  80d788:	10889c04 	addi	r2,r2,8816
  80d78c:	10800017 	ldw	r2,0(r2)
  80d790:	10000526 	beq	r2,zero,80d7a8 <alt_get_errno+0x34>
  80d794:	00802074 	movhi	r2,129
  80d798:	10889c04 	addi	r2,r2,8816
  80d79c:	10800017 	ldw	r2,0(r2)
  80d7a0:	103ee83a 	callr	r2
  80d7a4:	00000206 	br	80d7b0 <alt_get_errno+0x3c>
  80d7a8:	00802074 	movhi	r2,129
  80d7ac:	108bd304 	addi	r2,r2,12108
  80d7b0:	e037883a 	mov	sp,fp
  80d7b4:	dfc00117 	ldw	ra,4(sp)
  80d7b8:	df000017 	ldw	fp,0(sp)
  80d7bc:	dec00204 	addi	sp,sp,8
  80d7c0:	f800283a 	ret

0080d7c4 <write>:
  80d7c4:	defff904 	addi	sp,sp,-28
  80d7c8:	dfc00615 	stw	ra,24(sp)
  80d7cc:	df000515 	stw	fp,20(sp)
  80d7d0:	df000504 	addi	fp,sp,20
  80d7d4:	e13ffd15 	stw	r4,-12(fp)
  80d7d8:	e17ffe15 	stw	r5,-8(fp)
  80d7dc:	e1bfff15 	stw	r6,-4(fp)
  80d7e0:	e0bffd17 	ldw	r2,-12(fp)
  80d7e4:	10000616 	blt	r2,zero,80d800 <write+0x3c>
  80d7e8:	e0bffd17 	ldw	r2,-12(fp)
  80d7ec:	10c00324 	muli	r3,r2,12
  80d7f0:	00802074 	movhi	r2,129
  80d7f4:	10879504 	addi	r2,r2,7764
  80d7f8:	1885883a 	add	r2,r3,r2
  80d7fc:	00000106 	br	80d804 <write+0x40>
  80d800:	0005883a 	mov	r2,zero
  80d804:	e0bffb15 	stw	r2,-20(fp)
  80d808:	e0bffb17 	ldw	r2,-20(fp)
  80d80c:	10002126 	beq	r2,zero,80d894 <write+0xd0>
  80d810:	e0bffb17 	ldw	r2,-20(fp)
  80d814:	10800217 	ldw	r2,8(r2)
  80d818:	108000cc 	andi	r2,r2,3
  80d81c:	10001826 	beq	r2,zero,80d880 <write+0xbc>
  80d820:	e0bffb17 	ldw	r2,-20(fp)
  80d824:	10800017 	ldw	r2,0(r2)
  80d828:	10800617 	ldw	r2,24(r2)
  80d82c:	10001426 	beq	r2,zero,80d880 <write+0xbc>
  80d830:	e0bffb17 	ldw	r2,-20(fp)
  80d834:	10800017 	ldw	r2,0(r2)
  80d838:	10800617 	ldw	r2,24(r2)
  80d83c:	e0ffff17 	ldw	r3,-4(fp)
  80d840:	e13ffb17 	ldw	r4,-20(fp)
  80d844:	e17ffe17 	ldw	r5,-8(fp)
  80d848:	180d883a 	mov	r6,r3
  80d84c:	103ee83a 	callr	r2
  80d850:	e0bffc15 	stw	r2,-16(fp)
  80d854:	e0bffc17 	ldw	r2,-16(fp)
  80d858:	1000070e 	bge	r2,zero,80d878 <write+0xb4>
  80d85c:	080d7740 	call	80d774 <alt_get_errno>
  80d860:	1007883a 	mov	r3,r2
  80d864:	e0bffc17 	ldw	r2,-16(fp)
  80d868:	0085c83a 	sub	r2,zero,r2
  80d86c:	18800015 	stw	r2,0(r3)
  80d870:	00bfffc4 	movi	r2,-1
  80d874:	00000c06 	br	80d8a8 <write+0xe4>
  80d878:	e0bffc17 	ldw	r2,-16(fp)
  80d87c:	00000a06 	br	80d8a8 <write+0xe4>
  80d880:	080d7740 	call	80d774 <alt_get_errno>
  80d884:	1007883a 	mov	r3,r2
  80d888:	00800344 	movi	r2,13
  80d88c:	18800015 	stw	r2,0(r3)
  80d890:	00000406 	br	80d8a4 <write+0xe0>
  80d894:	080d7740 	call	80d774 <alt_get_errno>
  80d898:	1007883a 	mov	r3,r2
  80d89c:	00801444 	movi	r2,81
  80d8a0:	18800015 	stw	r2,0(r3)
  80d8a4:	00bfffc4 	movi	r2,-1
  80d8a8:	e037883a 	mov	sp,fp
  80d8ac:	dfc00117 	ldw	ra,4(sp)
  80d8b0:	df000017 	ldw	fp,0(sp)
  80d8b4:	dec00204 	addi	sp,sp,8
  80d8b8:	f800283a 	ret

0080d8bc <alt_dev_reg>:
  80d8bc:	defffd04 	addi	sp,sp,-12
  80d8c0:	dfc00215 	stw	ra,8(sp)
  80d8c4:	df000115 	stw	fp,4(sp)
  80d8c8:	df000104 	addi	fp,sp,4
  80d8cc:	e13fff15 	stw	r4,-4(fp)
  80d8d0:	e13fff17 	ldw	r4,-4(fp)
  80d8d4:	01402074 	movhi	r5,129
  80d8d8:	29489904 	addi	r5,r5,8804
  80d8dc:	080fbc80 	call	80fbc8 <alt_dev_llist_insert>
  80d8e0:	e037883a 	mov	sp,fp
  80d8e4:	dfc00117 	ldw	ra,4(sp)
  80d8e8:	df000017 	ldw	fp,0(sp)
  80d8ec:	dec00204 	addi	sp,sp,8
  80d8f0:	f800283a 	ret

0080d8f4 <alt_irq_init>:
  80d8f4:	defffd04 	addi	sp,sp,-12
  80d8f8:	dfc00215 	stw	ra,8(sp)
  80d8fc:	df000115 	stw	fp,4(sp)
  80d900:	df000104 	addi	fp,sp,4
  80d904:	e13fff15 	stw	r4,-4(fp)
  80d908:	08103700 	call	810370 <altera_nios2_gen2_irq_init>
  80d90c:	00800044 	movi	r2,1
  80d910:	1001703a 	wrctl	status,r2
  80d914:	e037883a 	mov	sp,fp
  80d918:	dfc00117 	ldw	ra,4(sp)
  80d91c:	df000017 	ldw	fp,0(sp)
  80d920:	dec00204 	addi	sp,sp,8
  80d924:	f800283a 	ret

0080d928 <alt_sys_init>:
  80d928:	defffe04 	addi	sp,sp,-8
  80d92c:	dfc00115 	stw	ra,4(sp)
  80d930:	df000015 	stw	fp,0(sp)
  80d934:	d839883a 	mov	fp,sp
  80d938:	01002074 	movhi	r4,129
  80d93c:	2107f504 	addi	r4,r4,8148
  80d940:	080d8bc0 	call	80d8bc <alt_dev_reg>
  80d944:	01002074 	movhi	r4,129
  80d948:	21080a04 	addi	r4,r4,8232
  80d94c:	080e91c0 	call	80e91c <altera_avalon_lcd_16207_init>
  80d950:	01002074 	movhi	r4,129
  80d954:	21080004 	addi	r4,r4,8192
  80d958:	080d8bc0 	call	80d8bc <alt_dev_reg>
  80d95c:	0001883a 	nop
  80d960:	01002074 	movhi	r4,129
  80d964:	21085204 	addi	r4,r4,8520
  80d968:	000b883a 	mov	r5,zero
  80d96c:	018000c4 	movi	r6,3
  80d970:	080ebc40 	call	80ebc4 <altera_avalon_uart_init>
  80d974:	01002074 	movhi	r4,129
  80d978:	21084804 	addi	r4,r4,8480
  80d97c:	080d8bc0 	call	80d8bc <alt_dev_reg>
  80d980:	01002074 	movhi	r4,129
  80d984:	21087904 	addi	r4,r4,8676
  80d988:	080d8bc0 	call	80d8bc <alt_dev_reg>
  80d98c:	01002074 	movhi	r4,129
  80d990:	21088504 	addi	r4,r4,8724
  80d994:	080d8bc0 	call	80d8bc <alt_dev_reg>
  80d998:	e037883a 	mov	sp,fp
  80d99c:	dfc00117 	ldw	ra,4(sp)
  80d9a0:	df000017 	ldw	fp,0(sp)
  80d9a4:	dec00204 	addi	sp,sp,8
  80d9a8:	f800283a 	ret

0080d9ac <altera_avalon_jtag_uart_read_fd>:
  80d9ac:	defffa04 	addi	sp,sp,-24
  80d9b0:	dfc00515 	stw	ra,20(sp)
  80d9b4:	df000415 	stw	fp,16(sp)
  80d9b8:	df000404 	addi	fp,sp,16
  80d9bc:	e13ffd15 	stw	r4,-12(fp)
  80d9c0:	e17ffe15 	stw	r5,-8(fp)
  80d9c4:	e1bfff15 	stw	r6,-4(fp)
  80d9c8:	e0bffd17 	ldw	r2,-12(fp)
  80d9cc:	10800017 	ldw	r2,0(r2)
  80d9d0:	e0bffc15 	stw	r2,-16(fp)
  80d9d4:	e0bffc17 	ldw	r2,-16(fp)
  80d9d8:	10c00a04 	addi	r3,r2,40
  80d9dc:	e0bffd17 	ldw	r2,-12(fp)
  80d9e0:	10800217 	ldw	r2,8(r2)
  80d9e4:	1809883a 	mov	r4,r3
  80d9e8:	e17ffe17 	ldw	r5,-8(fp)
  80d9ec:	e1bfff17 	ldw	r6,-4(fp)
  80d9f0:	100f883a 	mov	r7,r2
  80d9f4:	080da6c0 	call	80da6c <altera_avalon_jtag_uart_read>
  80d9f8:	e037883a 	mov	sp,fp
  80d9fc:	dfc00117 	ldw	ra,4(sp)
  80da00:	df000017 	ldw	fp,0(sp)
  80da04:	dec00204 	addi	sp,sp,8
  80da08:	f800283a 	ret

0080da0c <altera_avalon_jtag_uart_write_fd>:
  80da0c:	defffa04 	addi	sp,sp,-24
  80da10:	dfc00515 	stw	ra,20(sp)
  80da14:	df000415 	stw	fp,16(sp)
  80da18:	df000404 	addi	fp,sp,16
  80da1c:	e13ffd15 	stw	r4,-12(fp)
  80da20:	e17ffe15 	stw	r5,-8(fp)
  80da24:	e1bfff15 	stw	r6,-4(fp)
  80da28:	e0bffd17 	ldw	r2,-12(fp)
  80da2c:	10800017 	ldw	r2,0(r2)
  80da30:	e0bffc15 	stw	r2,-16(fp)
  80da34:	e0bffc17 	ldw	r2,-16(fp)
  80da38:	10c00a04 	addi	r3,r2,40
  80da3c:	e0bffd17 	ldw	r2,-12(fp)
  80da40:	10800217 	ldw	r2,8(r2)
  80da44:	1809883a 	mov	r4,r3
  80da48:	e17ffe17 	ldw	r5,-8(fp)
  80da4c:	e1bfff17 	ldw	r6,-4(fp)
  80da50:	100f883a 	mov	r7,r2
  80da54:	080db500 	call	80db50 <altera_avalon_jtag_uart_write>
  80da58:	e037883a 	mov	sp,fp
  80da5c:	dfc00117 	ldw	ra,4(sp)
  80da60:	df000017 	ldw	fp,0(sp)
  80da64:	dec00204 	addi	sp,sp,8
  80da68:	f800283a 	ret

0080da6c <altera_avalon_jtag_uart_read>:
  80da6c:	defff704 	addi	sp,sp,-36
  80da70:	df000815 	stw	fp,32(sp)
  80da74:	df000804 	addi	fp,sp,32
  80da78:	e13ffc15 	stw	r4,-16(fp)
  80da7c:	e17ffd15 	stw	r5,-12(fp)
  80da80:	e1bffe15 	stw	r6,-8(fp)
  80da84:	e1ffff15 	stw	r7,-4(fp)
  80da88:	e0bffc17 	ldw	r2,-16(fp)
  80da8c:	10800017 	ldw	r2,0(r2)
  80da90:	e0bff915 	stw	r2,-28(fp)
  80da94:	e0bffd17 	ldw	r2,-12(fp)
  80da98:	e0bff815 	stw	r2,-32(fp)
  80da9c:	e0bffe17 	ldw	r2,-8(fp)
  80daa0:	e0fffd17 	ldw	r3,-12(fp)
  80daa4:	1885883a 	add	r2,r3,r2
  80daa8:	e0bffa15 	stw	r2,-24(fp)
  80daac:	00001406 	br	80db00 <altera_avalon_jtag_uart_read+0x94>
  80dab0:	e0bff917 	ldw	r2,-28(fp)
  80dab4:	10800037 	ldwio	r2,0(r2)
  80dab8:	e0bffb15 	stw	r2,-20(fp)
  80dabc:	e0bffb17 	ldw	r2,-20(fp)
  80dac0:	10a0000c 	andi	r2,r2,32768
  80dac4:	10000626 	beq	r2,zero,80dae0 <altera_avalon_jtag_uart_read+0x74>
  80dac8:	e0bff817 	ldw	r2,-32(fp)
  80dacc:	10c00044 	addi	r3,r2,1
  80dad0:	e0fff815 	stw	r3,-32(fp)
  80dad4:	e0fffb17 	ldw	r3,-20(fp)
  80dad8:	10c00005 	stb	r3,0(r2)
  80dadc:	00000806 	br	80db00 <altera_avalon_jtag_uart_read+0x94>
  80dae0:	e0fff817 	ldw	r3,-32(fp)
  80dae4:	e0bffd17 	ldw	r2,-12(fp)
  80dae8:	18800126 	beq	r3,r2,80daf0 <altera_avalon_jtag_uart_read+0x84>
  80daec:	00000706 	br	80db0c <altera_avalon_jtag_uart_read+0xa0>
  80daf0:	e0bfff17 	ldw	r2,-4(fp)
  80daf4:	1090000c 	andi	r2,r2,16384
  80daf8:	10000126 	beq	r2,zero,80db00 <altera_avalon_jtag_uart_read+0x94>
  80dafc:	00000306 	br	80db0c <altera_avalon_jtag_uart_read+0xa0>
  80db00:	e0fff817 	ldw	r3,-32(fp)
  80db04:	e0bffa17 	ldw	r2,-24(fp)
  80db08:	18bfe936 	bltu	r3,r2,80dab0 <__alt_data_end+0xff80dab0>
  80db0c:	e0fff817 	ldw	r3,-32(fp)
  80db10:	e0bffd17 	ldw	r2,-12(fp)
  80db14:	18800426 	beq	r3,r2,80db28 <altera_avalon_jtag_uart_read+0xbc>
  80db18:	e0fff817 	ldw	r3,-32(fp)
  80db1c:	e0bffd17 	ldw	r2,-12(fp)
  80db20:	1885c83a 	sub	r2,r3,r2
  80db24:	00000606 	br	80db40 <altera_avalon_jtag_uart_read+0xd4>
  80db28:	e0bfff17 	ldw	r2,-4(fp)
  80db2c:	1090000c 	andi	r2,r2,16384
  80db30:	10000226 	beq	r2,zero,80db3c <altera_avalon_jtag_uart_read+0xd0>
  80db34:	00bffd44 	movi	r2,-11
  80db38:	00000106 	br	80db40 <altera_avalon_jtag_uart_read+0xd4>
  80db3c:	00bffec4 	movi	r2,-5
  80db40:	e037883a 	mov	sp,fp
  80db44:	df000017 	ldw	fp,0(sp)
  80db48:	dec00104 	addi	sp,sp,4
  80db4c:	f800283a 	ret

0080db50 <altera_avalon_jtag_uart_write>:
  80db50:	defff904 	addi	sp,sp,-28
  80db54:	df000615 	stw	fp,24(sp)
  80db58:	df000604 	addi	fp,sp,24
  80db5c:	e13ffc15 	stw	r4,-16(fp)
  80db60:	e17ffd15 	stw	r5,-12(fp)
  80db64:	e1bffe15 	stw	r6,-8(fp)
  80db68:	e1ffff15 	stw	r7,-4(fp)
  80db6c:	e0bffc17 	ldw	r2,-16(fp)
  80db70:	10800017 	ldw	r2,0(r2)
  80db74:	e0bffa15 	stw	r2,-24(fp)
  80db78:	e0bffe17 	ldw	r2,-8(fp)
  80db7c:	e0fffd17 	ldw	r3,-12(fp)
  80db80:	1885883a 	add	r2,r3,r2
  80db84:	e0bffb15 	stw	r2,-20(fp)
  80db88:	00000e06 	br	80dbc4 <altera_avalon_jtag_uart_write+0x74>
  80db8c:	e0bffa17 	ldw	r2,-24(fp)
  80db90:	10800104 	addi	r2,r2,4
  80db94:	10800037 	ldwio	r2,0(r2)
  80db98:	10bfffec 	andhi	r2,r2,65535
  80db9c:	10000926 	beq	r2,zero,80dbc4 <altera_avalon_jtag_uart_write+0x74>
  80dba0:	e0fffa17 	ldw	r3,-24(fp)
  80dba4:	e0bffd17 	ldw	r2,-12(fp)
  80dba8:	11000044 	addi	r4,r2,1
  80dbac:	e13ffd15 	stw	r4,-12(fp)
  80dbb0:	10800003 	ldbu	r2,0(r2)
  80dbb4:	10803fcc 	andi	r2,r2,255
  80dbb8:	1080201c 	xori	r2,r2,128
  80dbbc:	10bfe004 	addi	r2,r2,-128
  80dbc0:	18800035 	stwio	r2,0(r3)
  80dbc4:	e0fffd17 	ldw	r3,-12(fp)
  80dbc8:	e0bffb17 	ldw	r2,-20(fp)
  80dbcc:	18bfef36 	bltu	r3,r2,80db8c <__alt_data_end+0xff80db8c>
  80dbd0:	e0bffe17 	ldw	r2,-8(fp)
  80dbd4:	e037883a 	mov	sp,fp
  80dbd8:	df000017 	ldw	fp,0(sp)
  80dbdc:	dec00104 	addi	sp,sp,4
  80dbe0:	f800283a 	ret

0080dbe4 <lcd_write_command>:
  80dbe4:	defffa04 	addi	sp,sp,-24
  80dbe8:	dfc00515 	stw	ra,20(sp)
  80dbec:	df000415 	stw	fp,16(sp)
  80dbf0:	df000404 	addi	fp,sp,16
  80dbf4:	e13ffe15 	stw	r4,-8(fp)
  80dbf8:	2805883a 	mov	r2,r5
  80dbfc:	e0bfff05 	stb	r2,-4(fp)
  80dc00:	e0bffe17 	ldw	r2,-8(fp)
  80dc04:	10800017 	ldw	r2,0(r2)
  80dc08:	e0bffd15 	stw	r2,-12(fp)
  80dc0c:	008003f4 	movhi	r2,15
  80dc10:	10909004 	addi	r2,r2,16960
  80dc14:	e0bffc15 	stw	r2,-16(fp)
  80dc18:	e0bffe17 	ldw	r2,-8(fp)
  80dc1c:	10800803 	ldbu	r2,32(r2)
  80dc20:	10803fcc 	andi	r2,r2,255
  80dc24:	1080201c 	xori	r2,r2,128
  80dc28:	10bfe004 	addi	r2,r2,-128
  80dc2c:	10000126 	beq	r2,zero,80dc34 <lcd_write_command+0x50>
  80dc30:	00001406 	br	80dc84 <lcd_write_command+0xa0>
  80dc34:	00000906 	br	80dc5c <lcd_write_command+0x78>
  80dc38:	e0bffc17 	ldw	r2,-16(fp)
  80dc3c:	10bfffc4 	addi	r2,r2,-1
  80dc40:	e0bffc15 	stw	r2,-16(fp)
  80dc44:	e0bffc17 	ldw	r2,-16(fp)
  80dc48:	1000041e 	bne	r2,zero,80dc5c <lcd_write_command+0x78>
  80dc4c:	e0bffe17 	ldw	r2,-8(fp)
  80dc50:	00c00044 	movi	r3,1
  80dc54:	10c00805 	stb	r3,32(r2)
  80dc58:	00000a06 	br	80dc84 <lcd_write_command+0xa0>
  80dc5c:	e0bffd17 	ldw	r2,-12(fp)
  80dc60:	10800104 	addi	r2,r2,4
  80dc64:	10800037 	ldwio	r2,0(r2)
  80dc68:	1080200c 	andi	r2,r2,128
  80dc6c:	103ff21e 	bne	r2,zero,80dc38 <__alt_data_end+0xff80dc38>
  80dc70:	01001904 	movi	r4,100
  80dc74:	08103400 	call	810340 <usleep>
  80dc78:	e0bffd17 	ldw	r2,-12(fp)
  80dc7c:	e0ffff03 	ldbu	r3,-4(fp)
  80dc80:	10c00035 	stwio	r3,0(r2)
  80dc84:	e037883a 	mov	sp,fp
  80dc88:	dfc00117 	ldw	ra,4(sp)
  80dc8c:	df000017 	ldw	fp,0(sp)
  80dc90:	dec00204 	addi	sp,sp,8
  80dc94:	f800283a 	ret

0080dc98 <lcd_write_data>:
  80dc98:	defffa04 	addi	sp,sp,-24
  80dc9c:	dfc00515 	stw	ra,20(sp)
  80dca0:	df000415 	stw	fp,16(sp)
  80dca4:	df000404 	addi	fp,sp,16
  80dca8:	e13ffe15 	stw	r4,-8(fp)
  80dcac:	2805883a 	mov	r2,r5
  80dcb0:	e0bfff05 	stb	r2,-4(fp)
  80dcb4:	e0bffe17 	ldw	r2,-8(fp)
  80dcb8:	10800017 	ldw	r2,0(r2)
  80dcbc:	e0bffd15 	stw	r2,-12(fp)
  80dcc0:	008003f4 	movhi	r2,15
  80dcc4:	10909004 	addi	r2,r2,16960
  80dcc8:	e0bffc15 	stw	r2,-16(fp)
  80dccc:	e0bffe17 	ldw	r2,-8(fp)
  80dcd0:	10800803 	ldbu	r2,32(r2)
  80dcd4:	10803fcc 	andi	r2,r2,255
  80dcd8:	1080201c 	xori	r2,r2,128
  80dcdc:	10bfe004 	addi	r2,r2,-128
  80dce0:	10000126 	beq	r2,zero,80dce8 <lcd_write_data+0x50>
  80dce4:	00001c06 	br	80dd58 <lcd_write_data+0xc0>
  80dce8:	00000906 	br	80dd10 <lcd_write_data+0x78>
  80dcec:	e0bffc17 	ldw	r2,-16(fp)
  80dcf0:	10bfffc4 	addi	r2,r2,-1
  80dcf4:	e0bffc15 	stw	r2,-16(fp)
  80dcf8:	e0bffc17 	ldw	r2,-16(fp)
  80dcfc:	1000041e 	bne	r2,zero,80dd10 <lcd_write_data+0x78>
  80dd00:	e0bffe17 	ldw	r2,-8(fp)
  80dd04:	00c00044 	movi	r3,1
  80dd08:	10c00805 	stb	r3,32(r2)
  80dd0c:	00001206 	br	80dd58 <lcd_write_data+0xc0>
  80dd10:	e0bffd17 	ldw	r2,-12(fp)
  80dd14:	10800104 	addi	r2,r2,4
  80dd18:	10800037 	ldwio	r2,0(r2)
  80dd1c:	1080200c 	andi	r2,r2,128
  80dd20:	103ff21e 	bne	r2,zero,80dcec <__alt_data_end+0xff80dcec>
  80dd24:	01001904 	movi	r4,100
  80dd28:	08103400 	call	810340 <usleep>
  80dd2c:	e0bffd17 	ldw	r2,-12(fp)
  80dd30:	10800204 	addi	r2,r2,8
  80dd34:	1007883a 	mov	r3,r2
  80dd38:	e0bfff03 	ldbu	r2,-4(fp)
  80dd3c:	18800035 	stwio	r2,0(r3)
  80dd40:	e0bffe17 	ldw	r2,-8(fp)
  80dd44:	108008c3 	ldbu	r2,35(r2)
  80dd48:	10800044 	addi	r2,r2,1
  80dd4c:	1007883a 	mov	r3,r2
  80dd50:	e0bffe17 	ldw	r2,-8(fp)
  80dd54:	10c008c5 	stb	r3,35(r2)
  80dd58:	e037883a 	mov	sp,fp
  80dd5c:	dfc00117 	ldw	ra,4(sp)
  80dd60:	df000017 	ldw	fp,0(sp)
  80dd64:	dec00204 	addi	sp,sp,8
  80dd68:	f800283a 	ret

0080dd6c <lcd_clear_screen>:
  80dd6c:	defffc04 	addi	sp,sp,-16
  80dd70:	dfc00315 	stw	ra,12(sp)
  80dd74:	df000215 	stw	fp,8(sp)
  80dd78:	df000204 	addi	fp,sp,8
  80dd7c:	e13fff15 	stw	r4,-4(fp)
  80dd80:	e13fff17 	ldw	r4,-4(fp)
  80dd84:	01400044 	movi	r5,1
  80dd88:	080dbe40 	call	80dbe4 <lcd_write_command>
  80dd8c:	e0bfff17 	ldw	r2,-4(fp)
  80dd90:	10000845 	stb	zero,33(r2)
  80dd94:	e0bfff17 	ldw	r2,-4(fp)
  80dd98:	10000885 	stb	zero,34(r2)
  80dd9c:	e0bfff17 	ldw	r2,-4(fp)
  80dda0:	100008c5 	stb	zero,35(r2)
  80dda4:	e03ffe15 	stw	zero,-8(fp)
  80dda8:	00001b06 	br	80de18 <lcd_clear_screen+0xac>
  80ddac:	e0bffe17 	ldw	r2,-8(fp)
  80ddb0:	108018e4 	muli	r2,r2,99
  80ddb4:	10801004 	addi	r2,r2,64
  80ddb8:	e0ffff17 	ldw	r3,-4(fp)
  80ddbc:	1885883a 	add	r2,r3,r2
  80ddc0:	1009883a 	mov	r4,r2
  80ddc4:	01400804 	movi	r5,32
  80ddc8:	01801444 	movi	r6,81
  80ddcc:	080b2bc0 	call	80b2bc <memset>
  80ddd0:	e0bffe17 	ldw	r2,-8(fp)
  80ddd4:	108018e4 	muli	r2,r2,99
  80ddd8:	10800c04 	addi	r2,r2,48
  80dddc:	e0ffff17 	ldw	r3,-4(fp)
  80dde0:	1885883a 	add	r2,r3,r2
  80dde4:	1009883a 	mov	r4,r2
  80dde8:	01400804 	movi	r5,32
  80ddec:	01800404 	movi	r6,16
  80ddf0:	080b2bc0 	call	80b2bc <memset>
  80ddf4:	e0ffff17 	ldw	r3,-4(fp)
  80ddf8:	e0bffe17 	ldw	r2,-8(fp)
  80ddfc:	108018e4 	muli	r2,r2,99
  80de00:	10802404 	addi	r2,r2,144
  80de04:	1885883a 	add	r2,r3,r2
  80de08:	10000045 	stb	zero,1(r2)
  80de0c:	e0bffe17 	ldw	r2,-8(fp)
  80de10:	10800044 	addi	r2,r2,1
  80de14:	e0bffe15 	stw	r2,-8(fp)
  80de18:	e0bffe17 	ldw	r2,-8(fp)
  80de1c:	10800090 	cmplti	r2,r2,2
  80de20:	103fe21e 	bne	r2,zero,80ddac <__alt_data_end+0xff80ddac>
  80de24:	e037883a 	mov	sp,fp
  80de28:	dfc00117 	ldw	ra,4(sp)
  80de2c:	df000017 	ldw	fp,0(sp)
  80de30:	dec00204 	addi	sp,sp,8
  80de34:	f800283a 	ret

0080de38 <lcd_repaint_screen>:
  80de38:	defff704 	addi	sp,sp,-36
  80de3c:	dfc00815 	stw	ra,32(sp)
  80de40:	df000715 	stw	fp,28(sp)
  80de44:	df000704 	addi	fp,sp,28
  80de48:	e13fff15 	stw	r4,-4(fp)
  80de4c:	e0bfff17 	ldw	r2,-4(fp)
  80de50:	10800943 	ldbu	r2,37(r2)
  80de54:	10803fcc 	andi	r2,r2,255
  80de58:	e0bffc15 	stw	r2,-16(fp)
  80de5c:	e03ff915 	stw	zero,-28(fp)
  80de60:	00006706 	br	80e000 <lcd_repaint_screen+0x1c8>
  80de64:	e0ffff17 	ldw	r3,-4(fp)
  80de68:	e0bff917 	ldw	r2,-28(fp)
  80de6c:	108018e4 	muli	r2,r2,99
  80de70:	10802404 	addi	r2,r2,144
  80de74:	1885883a 	add	r2,r3,r2
  80de78:	10800043 	ldbu	r2,1(r2)
  80de7c:	10803fcc 	andi	r2,r2,255
  80de80:	1080201c 	xori	r2,r2,128
  80de84:	10bfe004 	addi	r2,r2,-128
  80de88:	e0bffd15 	stw	r2,-12(fp)
  80de8c:	e0ffff17 	ldw	r3,-4(fp)
  80de90:	e0bff917 	ldw	r2,-28(fp)
  80de94:	108018e4 	muli	r2,r2,99
  80de98:	10802404 	addi	r2,r2,144
  80de9c:	1885883a 	add	r2,r3,r2
  80dea0:	10800083 	ldbu	r2,2(r2)
  80dea4:	10c03fcc 	andi	r3,r2,255
  80dea8:	e0bffc17 	ldw	r2,-16(fp)
  80deac:	1885383a 	mul	r2,r3,r2
  80deb0:	1005d23a 	srai	r2,r2,8
  80deb4:	e0bffb15 	stw	r2,-20(fp)
  80deb8:	e0fffb17 	ldw	r3,-20(fp)
  80debc:	e0bffd17 	ldw	r2,-12(fp)
  80dec0:	18800116 	blt	r3,r2,80dec8 <lcd_repaint_screen+0x90>
  80dec4:	e03ffb15 	stw	zero,-20(fp)
  80dec8:	e03ffa15 	stw	zero,-24(fp)
  80decc:	00004606 	br	80dfe8 <lcd_repaint_screen+0x1b0>
  80ded0:	e0fffa17 	ldw	r3,-24(fp)
  80ded4:	e0bffb17 	ldw	r2,-20(fp)
  80ded8:	1885883a 	add	r2,r3,r2
  80dedc:	1009883a 	mov	r4,r2
  80dee0:	e17ffd17 	ldw	r5,-12(fp)
  80dee4:	080a1f40 	call	80a1f4 <__modsi3>
  80dee8:	1009883a 	mov	r4,r2
  80deec:	e0ffff17 	ldw	r3,-4(fp)
  80def0:	e0bff917 	ldw	r2,-28(fp)
  80def4:	108018e4 	muli	r2,r2,99
  80def8:	1885883a 	add	r2,r3,r2
  80defc:	1105883a 	add	r2,r2,r4
  80df00:	10801004 	addi	r2,r2,64
  80df04:	10800003 	ldbu	r2,0(r2)
  80df08:	e0bffe05 	stb	r2,-8(fp)
  80df0c:	e0ffff17 	ldw	r3,-4(fp)
  80df10:	e0bff917 	ldw	r2,-28(fp)
  80df14:	108018e4 	muli	r2,r2,99
  80df18:	1887883a 	add	r3,r3,r2
  80df1c:	e0bffa17 	ldw	r2,-24(fp)
  80df20:	1885883a 	add	r2,r3,r2
  80df24:	10800c04 	addi	r2,r2,48
  80df28:	10800003 	ldbu	r2,0(r2)
  80df2c:	10c03fcc 	andi	r3,r2,255
  80df30:	18c0201c 	xori	r3,r3,128
  80df34:	18ffe004 	addi	r3,r3,-128
  80df38:	e0bffe07 	ldb	r2,-8(fp)
  80df3c:	18802726 	beq	r3,r2,80dfdc <lcd_repaint_screen+0x1a4>
  80df40:	e0fff917 	ldw	r3,-28(fp)
  80df44:	d0a00f04 	addi	r2,gp,-32708
  80df48:	1885883a 	add	r2,r3,r2
  80df4c:	10800003 	ldbu	r2,0(r2)
  80df50:	1007883a 	mov	r3,r2
  80df54:	e0bffa17 	ldw	r2,-24(fp)
  80df58:	1885883a 	add	r2,r3,r2
  80df5c:	e0bffe45 	stb	r2,-7(fp)
  80df60:	e0fffe43 	ldbu	r3,-7(fp)
  80df64:	e0bfff17 	ldw	r2,-4(fp)
  80df68:	108008c3 	ldbu	r2,35(r2)
  80df6c:	10803fcc 	andi	r2,r2,255
  80df70:	1080201c 	xori	r2,r2,128
  80df74:	10bfe004 	addi	r2,r2,-128
  80df78:	18800a26 	beq	r3,r2,80dfa4 <lcd_repaint_screen+0x16c>
  80df7c:	e0fffe43 	ldbu	r3,-7(fp)
  80df80:	00bfe004 	movi	r2,-128
  80df84:	1884b03a 	or	r2,r3,r2
  80df88:	10803fcc 	andi	r2,r2,255
  80df8c:	e13fff17 	ldw	r4,-4(fp)
  80df90:	100b883a 	mov	r5,r2
  80df94:	080dbe40 	call	80dbe4 <lcd_write_command>
  80df98:	e0fffe43 	ldbu	r3,-7(fp)
  80df9c:	e0bfff17 	ldw	r2,-4(fp)
  80dfa0:	10c008c5 	stb	r3,35(r2)
  80dfa4:	e0bffe03 	ldbu	r2,-8(fp)
  80dfa8:	10803fcc 	andi	r2,r2,255
  80dfac:	e13fff17 	ldw	r4,-4(fp)
  80dfb0:	100b883a 	mov	r5,r2
  80dfb4:	080dc980 	call	80dc98 <lcd_write_data>
  80dfb8:	e0ffff17 	ldw	r3,-4(fp)
  80dfbc:	e0bff917 	ldw	r2,-28(fp)
  80dfc0:	108018e4 	muli	r2,r2,99
  80dfc4:	1887883a 	add	r3,r3,r2
  80dfc8:	e0bffa17 	ldw	r2,-24(fp)
  80dfcc:	1885883a 	add	r2,r3,r2
  80dfd0:	10800c04 	addi	r2,r2,48
  80dfd4:	e0fffe03 	ldbu	r3,-8(fp)
  80dfd8:	10c00005 	stb	r3,0(r2)
  80dfdc:	e0bffa17 	ldw	r2,-24(fp)
  80dfe0:	10800044 	addi	r2,r2,1
  80dfe4:	e0bffa15 	stw	r2,-24(fp)
  80dfe8:	e0bffa17 	ldw	r2,-24(fp)
  80dfec:	10800410 	cmplti	r2,r2,16
  80dff0:	103fb71e 	bne	r2,zero,80ded0 <__alt_data_end+0xff80ded0>
  80dff4:	e0bff917 	ldw	r2,-28(fp)
  80dff8:	10800044 	addi	r2,r2,1
  80dffc:	e0bff915 	stw	r2,-28(fp)
  80e000:	e0bff917 	ldw	r2,-28(fp)
  80e004:	10800090 	cmplti	r2,r2,2
  80e008:	103f961e 	bne	r2,zero,80de64 <__alt_data_end+0xff80de64>
  80e00c:	e037883a 	mov	sp,fp
  80e010:	dfc00117 	ldw	ra,4(sp)
  80e014:	df000017 	ldw	fp,0(sp)
  80e018:	dec00204 	addi	sp,sp,8
  80e01c:	f800283a 	ret

0080e020 <lcd_scroll_up>:
  80e020:	defffc04 	addi	sp,sp,-16
  80e024:	dfc00315 	stw	ra,12(sp)
  80e028:	df000215 	stw	fp,8(sp)
  80e02c:	df000204 	addi	fp,sp,8
  80e030:	e13fff15 	stw	r4,-4(fp)
  80e034:	e03ffe15 	stw	zero,-8(fp)
  80e038:	00001d06 	br	80e0b0 <lcd_scroll_up+0x90>
  80e03c:	e0bffe17 	ldw	r2,-8(fp)
  80e040:	00800f16 	blt	zero,r2,80e080 <lcd_scroll_up+0x60>
  80e044:	e0bffe17 	ldw	r2,-8(fp)
  80e048:	108018e4 	muli	r2,r2,99
  80e04c:	10801004 	addi	r2,r2,64
  80e050:	e0ffff17 	ldw	r3,-4(fp)
  80e054:	1889883a 	add	r4,r3,r2
  80e058:	e0bffe17 	ldw	r2,-8(fp)
  80e05c:	10800044 	addi	r2,r2,1
  80e060:	108018e4 	muli	r2,r2,99
  80e064:	10801004 	addi	r2,r2,64
  80e068:	e0ffff17 	ldw	r3,-4(fp)
  80e06c:	1885883a 	add	r2,r3,r2
  80e070:	100b883a 	mov	r5,r2
  80e074:	01801404 	movi	r6,80
  80e078:	080b1840 	call	80b184 <memcpy>
  80e07c:	00000906 	br	80e0a4 <lcd_scroll_up+0x84>
  80e080:	e0bffe17 	ldw	r2,-8(fp)
  80e084:	108018e4 	muli	r2,r2,99
  80e088:	10801004 	addi	r2,r2,64
  80e08c:	e0ffff17 	ldw	r3,-4(fp)
  80e090:	1885883a 	add	r2,r3,r2
  80e094:	1009883a 	mov	r4,r2
  80e098:	01400804 	movi	r5,32
  80e09c:	01801404 	movi	r6,80
  80e0a0:	080b2bc0 	call	80b2bc <memset>
  80e0a4:	e0bffe17 	ldw	r2,-8(fp)
  80e0a8:	10800044 	addi	r2,r2,1
  80e0ac:	e0bffe15 	stw	r2,-8(fp)
  80e0b0:	e0bffe17 	ldw	r2,-8(fp)
  80e0b4:	10800090 	cmplti	r2,r2,2
  80e0b8:	103fe01e 	bne	r2,zero,80e03c <__alt_data_end+0xff80e03c>
  80e0bc:	e0bfff17 	ldw	r2,-4(fp)
  80e0c0:	10800883 	ldbu	r2,34(r2)
  80e0c4:	10bfffc4 	addi	r2,r2,-1
  80e0c8:	1007883a 	mov	r3,r2
  80e0cc:	e0bfff17 	ldw	r2,-4(fp)
  80e0d0:	10c00885 	stb	r3,34(r2)
  80e0d4:	e037883a 	mov	sp,fp
  80e0d8:	dfc00117 	ldw	ra,4(sp)
  80e0dc:	df000017 	ldw	fp,0(sp)
  80e0e0:	dec00204 	addi	sp,sp,8
  80e0e4:	f800283a 	ret

0080e0e8 <lcd_handle_escape>:
  80e0e8:	defff904 	addi	sp,sp,-28
  80e0ec:	dfc00615 	stw	ra,24(sp)
  80e0f0:	df000515 	stw	fp,20(sp)
  80e0f4:	df000504 	addi	fp,sp,20
  80e0f8:	e13ffe15 	stw	r4,-8(fp)
  80e0fc:	2805883a 	mov	r2,r5
  80e100:	e0bfff05 	stb	r2,-4(fp)
  80e104:	e03ffb15 	stw	zero,-20(fp)
  80e108:	e03ffc15 	stw	zero,-16(fp)
  80e10c:	e0bffe17 	ldw	r2,-8(fp)
  80e110:	10800a03 	ldbu	r2,40(r2)
  80e114:	10803fcc 	andi	r2,r2,255
  80e118:	1080201c 	xori	r2,r2,128
  80e11c:	10bfe004 	addi	r2,r2,-128
  80e120:	108016d8 	cmpnei	r2,r2,91
  80e124:	1000441e 	bne	r2,zero,80e238 <lcd_handle_escape+0x150>
  80e128:	e0bffe17 	ldw	r2,-8(fp)
  80e12c:	10800a44 	addi	r2,r2,41
  80e130:	e0bffd15 	stw	r2,-12(fp)
  80e134:	00000c06 	br	80e168 <lcd_handle_escape+0x80>
  80e138:	e0bffb17 	ldw	r2,-20(fp)
  80e13c:	10c002a4 	muli	r3,r2,10
  80e140:	e0bffd17 	ldw	r2,-12(fp)
  80e144:	11000044 	addi	r4,r2,1
  80e148:	e13ffd15 	stw	r4,-12(fp)
  80e14c:	10800003 	ldbu	r2,0(r2)
  80e150:	10803fcc 	andi	r2,r2,255
  80e154:	1080201c 	xori	r2,r2,128
  80e158:	10bfe004 	addi	r2,r2,-128
  80e15c:	10bff404 	addi	r2,r2,-48
  80e160:	1885883a 	add	r2,r3,r2
  80e164:	e0bffb15 	stw	r2,-20(fp)
  80e168:	00802074 	movhi	r2,129
  80e16c:	1088a204 	addi	r2,r2,8840
  80e170:	10c00017 	ldw	r3,0(r2)
  80e174:	e0bffd17 	ldw	r2,-12(fp)
  80e178:	10800003 	ldbu	r2,0(r2)
  80e17c:	10803fcc 	andi	r2,r2,255
  80e180:	1080201c 	xori	r2,r2,128
  80e184:	10bfe004 	addi	r2,r2,-128
  80e188:	10800044 	addi	r2,r2,1
  80e18c:	1885883a 	add	r2,r3,r2
  80e190:	10800003 	ldbu	r2,0(r2)
  80e194:	10803fcc 	andi	r2,r2,255
  80e198:	1080010c 	andi	r2,r2,4
  80e19c:	103fe61e 	bne	r2,zero,80e138 <__alt_data_end+0xff80e138>
  80e1a0:	e0bffd17 	ldw	r2,-12(fp)
  80e1a4:	10800003 	ldbu	r2,0(r2)
  80e1a8:	10803fcc 	andi	r2,r2,255
  80e1ac:	1080201c 	xori	r2,r2,128
  80e1b0:	10bfe004 	addi	r2,r2,-128
  80e1b4:	10800ed8 	cmpnei	r2,r2,59
  80e1b8:	10001e1e 	bne	r2,zero,80e234 <lcd_handle_escape+0x14c>
  80e1bc:	e0bffd17 	ldw	r2,-12(fp)
  80e1c0:	10800044 	addi	r2,r2,1
  80e1c4:	e0bffd15 	stw	r2,-12(fp)
  80e1c8:	00000c06 	br	80e1fc <lcd_handle_escape+0x114>
  80e1cc:	e0bffc17 	ldw	r2,-16(fp)
  80e1d0:	10c002a4 	muli	r3,r2,10
  80e1d4:	e0bffd17 	ldw	r2,-12(fp)
  80e1d8:	11000044 	addi	r4,r2,1
  80e1dc:	e13ffd15 	stw	r4,-12(fp)
  80e1e0:	10800003 	ldbu	r2,0(r2)
  80e1e4:	10803fcc 	andi	r2,r2,255
  80e1e8:	1080201c 	xori	r2,r2,128
  80e1ec:	10bfe004 	addi	r2,r2,-128
  80e1f0:	10bff404 	addi	r2,r2,-48
  80e1f4:	1885883a 	add	r2,r3,r2
  80e1f8:	e0bffc15 	stw	r2,-16(fp)
  80e1fc:	00802074 	movhi	r2,129
  80e200:	1088a204 	addi	r2,r2,8840
  80e204:	10c00017 	ldw	r3,0(r2)
  80e208:	e0bffd17 	ldw	r2,-12(fp)
  80e20c:	10800003 	ldbu	r2,0(r2)
  80e210:	10803fcc 	andi	r2,r2,255
  80e214:	1080201c 	xori	r2,r2,128
  80e218:	10bfe004 	addi	r2,r2,-128
  80e21c:	10800044 	addi	r2,r2,1
  80e220:	1885883a 	add	r2,r3,r2
  80e224:	10800003 	ldbu	r2,0(r2)
  80e228:	10803fcc 	andi	r2,r2,255
  80e22c:	1080010c 	andi	r2,r2,4
  80e230:	103fe61e 	bne	r2,zero,80e1cc <__alt_data_end+0xff80e1cc>
  80e234:	00000206 	br	80e240 <lcd_handle_escape+0x158>
  80e238:	00bfffc4 	movi	r2,-1
  80e23c:	e0bffb15 	stw	r2,-20(fp)
  80e240:	e0bfff07 	ldb	r2,-4(fp)
  80e244:	10c012a0 	cmpeqi	r3,r2,74
  80e248:	1800281e 	bne	r3,zero,80e2ec <lcd_handle_escape+0x204>
  80e24c:	10c012c8 	cmpgei	r3,r2,75
  80e250:	1800031e 	bne	r3,zero,80e260 <lcd_handle_escape+0x178>
  80e254:	10801220 	cmpeqi	r2,r2,72
  80e258:	1000051e 	bne	r2,zero,80e270 <lcd_handle_escape+0x188>
  80e25c:	00004506 	br	80e374 <lcd_handle_escape+0x28c>
  80e260:	10c012e0 	cmpeqi	r3,r2,75
  80e264:	1800281e 	bne	r3,zero,80e308 <lcd_handle_escape+0x220>
  80e268:	108019a0 	cmpeqi	r2,r2,102
  80e26c:	10004126 	beq	r2,zero,80e374 <lcd_handle_escape+0x28c>
  80e270:	e0bffc17 	ldw	r2,-16(fp)
  80e274:	0080050e 	bge	zero,r2,80e28c <lcd_handle_escape+0x1a4>
  80e278:	e0bffc17 	ldw	r2,-16(fp)
  80e27c:	10bfffc4 	addi	r2,r2,-1
  80e280:	1007883a 	mov	r3,r2
  80e284:	e0bffe17 	ldw	r2,-8(fp)
  80e288:	10c00845 	stb	r3,33(r2)
  80e28c:	e0bffb17 	ldw	r2,-20(fp)
  80e290:	0080150e 	bge	zero,r2,80e2e8 <lcd_handle_escape+0x200>
  80e294:	e0bffb17 	ldw	r2,-20(fp)
  80e298:	10bfffc4 	addi	r2,r2,-1
  80e29c:	1007883a 	mov	r3,r2
  80e2a0:	e0bffe17 	ldw	r2,-8(fp)
  80e2a4:	10c00885 	stb	r3,34(r2)
  80e2a8:	e0bffe17 	ldw	r2,-8(fp)
  80e2ac:	10800883 	ldbu	r2,34(r2)
  80e2b0:	10803fcc 	andi	r2,r2,255
  80e2b4:	10800170 	cmpltui	r2,r2,5
  80e2b8:	1000031e 	bne	r2,zero,80e2c8 <lcd_handle_escape+0x1e0>
  80e2bc:	e0bffe17 	ldw	r2,-8(fp)
  80e2c0:	00c00104 	movi	r3,4
  80e2c4:	10c00885 	stb	r3,34(r2)
  80e2c8:	00000206 	br	80e2d4 <lcd_handle_escape+0x1ec>
  80e2cc:	e13ffe17 	ldw	r4,-8(fp)
  80e2d0:	080e0200 	call	80e020 <lcd_scroll_up>
  80e2d4:	e0bffe17 	ldw	r2,-8(fp)
  80e2d8:	10800883 	ldbu	r2,34(r2)
  80e2dc:	10803fcc 	andi	r2,r2,255
  80e2e0:	108000e8 	cmpgeui	r2,r2,3
  80e2e4:	103ff91e 	bne	r2,zero,80e2cc <__alt_data_end+0xff80e2cc>
  80e2e8:	00002206 	br	80e374 <lcd_handle_escape+0x28c>
  80e2ec:	e0bffb17 	ldw	r2,-20(fp)
  80e2f0:	10800098 	cmpnei	r2,r2,2
  80e2f4:	1000031e 	bne	r2,zero,80e304 <lcd_handle_escape+0x21c>
  80e2f8:	e13ffe17 	ldw	r4,-8(fp)
  80e2fc:	080dd6c0 	call	80dd6c <lcd_clear_screen>
  80e300:	00001c06 	br	80e374 <lcd_handle_escape+0x28c>
  80e304:	00001b06 	br	80e374 <lcd_handle_escape+0x28c>
  80e308:	e0bffb17 	ldw	r2,-20(fp)
  80e30c:	00801816 	blt	zero,r2,80e370 <lcd_handle_escape+0x288>
  80e310:	e0bffe17 	ldw	r2,-8(fp)
  80e314:	10800843 	ldbu	r2,33(r2)
  80e318:	10803fcc 	andi	r2,r2,255
  80e31c:	10801428 	cmpgeui	r2,r2,80
  80e320:	1000131e 	bne	r2,zero,80e370 <lcd_handle_escape+0x288>
  80e324:	e0bffe17 	ldw	r2,-8(fp)
  80e328:	10800883 	ldbu	r2,34(r2)
  80e32c:	10803fcc 	andi	r2,r2,255
  80e330:	108018e4 	muli	r2,r2,99
  80e334:	10801004 	addi	r2,r2,64
  80e338:	e0fffe17 	ldw	r3,-8(fp)
  80e33c:	1887883a 	add	r3,r3,r2
  80e340:	e0bffe17 	ldw	r2,-8(fp)
  80e344:	10800843 	ldbu	r2,33(r2)
  80e348:	10803fcc 	andi	r2,r2,255
  80e34c:	1889883a 	add	r4,r3,r2
  80e350:	e0bffe17 	ldw	r2,-8(fp)
  80e354:	10800843 	ldbu	r2,33(r2)
  80e358:	10803fcc 	andi	r2,r2,255
  80e35c:	00c01404 	movi	r3,80
  80e360:	1885c83a 	sub	r2,r3,r2
  80e364:	01400804 	movi	r5,32
  80e368:	100d883a 	mov	r6,r2
  80e36c:	080b2bc0 	call	80b2bc <memset>
  80e370:	0001883a 	nop
  80e374:	e037883a 	mov	sp,fp
  80e378:	dfc00117 	ldw	ra,4(sp)
  80e37c:	df000017 	ldw	fp,0(sp)
  80e380:	dec00204 	addi	sp,sp,8
  80e384:	f800283a 	ret

0080e388 <altera_avalon_lcd_16207_write>:
  80e388:	defff304 	addi	sp,sp,-52
  80e38c:	dfc00c15 	stw	ra,48(sp)
  80e390:	df000b15 	stw	fp,44(sp)
  80e394:	df000b04 	addi	fp,sp,44
  80e398:	e13ffc15 	stw	r4,-16(fp)
  80e39c:	e17ffd15 	stw	r5,-12(fp)
  80e3a0:	e1bffe15 	stw	r6,-8(fp)
  80e3a4:	e1ffff15 	stw	r7,-4(fp)
  80e3a8:	e0bffe17 	ldw	r2,-8(fp)
  80e3ac:	e0fffd17 	ldw	r3,-12(fp)
  80e3b0:	1885883a 	add	r2,r3,r2
  80e3b4:	e0bff815 	stw	r2,-32(fp)
  80e3b8:	e0bffc17 	ldw	r2,-16(fp)
  80e3bc:	00c00044 	movi	r3,1
  80e3c0:	10c009c5 	stb	r3,39(r2)
  80e3c4:	00009e06 	br	80e640 <altera_avalon_lcd_16207_write+0x2b8>
  80e3c8:	e0bffd17 	ldw	r2,-12(fp)
  80e3cc:	10800003 	ldbu	r2,0(r2)
  80e3d0:	e0bff905 	stb	r2,-28(fp)
  80e3d4:	e0bffc17 	ldw	r2,-16(fp)
  80e3d8:	10800903 	ldbu	r2,36(r2)
  80e3dc:	10803fcc 	andi	r2,r2,255
  80e3e0:	1080201c 	xori	r2,r2,128
  80e3e4:	10bfe004 	addi	r2,r2,-128
  80e3e8:	10003a16 	blt	r2,zero,80e4d4 <altera_avalon_lcd_16207_write+0x14c>
  80e3ec:	e0bffc17 	ldw	r2,-16(fp)
  80e3f0:	10800903 	ldbu	r2,36(r2)
  80e3f4:	10803fcc 	andi	r2,r2,255
  80e3f8:	1080201c 	xori	r2,r2,128
  80e3fc:	10bfe004 	addi	r2,r2,-128
  80e400:	e0bffa15 	stw	r2,-24(fp)
  80e404:	e0bffa17 	ldw	r2,-24(fp)
  80e408:	1000031e 	bne	r2,zero,80e418 <altera_avalon_lcd_16207_write+0x90>
  80e40c:	e0bff907 	ldb	r2,-28(fp)
  80e410:	108016d8 	cmpnei	r2,r2,91
  80e414:	10000f1e 	bne	r2,zero,80e454 <altera_avalon_lcd_16207_write+0xcc>
  80e418:	e0bffa17 	ldw	r2,-24(fp)
  80e41c:	10001a26 	beq	r2,zero,80e488 <altera_avalon_lcd_16207_write+0x100>
  80e420:	00802074 	movhi	r2,129
  80e424:	1088a204 	addi	r2,r2,8840
  80e428:	10c00017 	ldw	r3,0(r2)
  80e42c:	e0bff907 	ldb	r2,-28(fp)
  80e430:	10800044 	addi	r2,r2,1
  80e434:	1885883a 	add	r2,r3,r2
  80e438:	10800003 	ldbu	r2,0(r2)
  80e43c:	10803fcc 	andi	r2,r2,255
  80e440:	1080010c 	andi	r2,r2,4
  80e444:	1000101e 	bne	r2,zero,80e488 <altera_avalon_lcd_16207_write+0x100>
  80e448:	e0bff907 	ldb	r2,-28(fp)
  80e44c:	10800ee0 	cmpeqi	r2,r2,59
  80e450:	10000d1e 	bne	r2,zero,80e488 <altera_avalon_lcd_16207_write+0x100>
  80e454:	e0fffc17 	ldw	r3,-16(fp)
  80e458:	e0bffa17 	ldw	r2,-24(fp)
  80e45c:	1885883a 	add	r2,r3,r2
  80e460:	10800a04 	addi	r2,r2,40
  80e464:	10000005 	stb	zero,0(r2)
  80e468:	e0bff907 	ldb	r2,-28(fp)
  80e46c:	e13ffc17 	ldw	r4,-16(fp)
  80e470:	100b883a 	mov	r5,r2
  80e474:	080e0e80 	call	80e0e8 <lcd_handle_escape>
  80e478:	e0bffc17 	ldw	r2,-16(fp)
  80e47c:	00ffffc4 	movi	r3,-1
  80e480:	10c00905 	stb	r3,36(r2)
  80e484:	00001206 	br	80e4d0 <altera_avalon_lcd_16207_write+0x148>
  80e488:	e0bffc17 	ldw	r2,-16(fp)
  80e48c:	10800903 	ldbu	r2,36(r2)
  80e490:	10803fcc 	andi	r2,r2,255
  80e494:	108001e8 	cmpgeui	r2,r2,7
  80e498:	10000d1e 	bne	r2,zero,80e4d0 <altera_avalon_lcd_16207_write+0x148>
  80e49c:	e0fffc17 	ldw	r3,-16(fp)
  80e4a0:	e0bffa17 	ldw	r2,-24(fp)
  80e4a4:	1885883a 	add	r2,r3,r2
  80e4a8:	10800a04 	addi	r2,r2,40
  80e4ac:	e0fff903 	ldbu	r3,-28(fp)
  80e4b0:	10c00005 	stb	r3,0(r2)
  80e4b4:	e0bffc17 	ldw	r2,-16(fp)
  80e4b8:	10800903 	ldbu	r2,36(r2)
  80e4bc:	10800044 	addi	r2,r2,1
  80e4c0:	1007883a 	mov	r3,r2
  80e4c4:	e0bffc17 	ldw	r2,-16(fp)
  80e4c8:	10c00905 	stb	r3,36(r2)
  80e4cc:	00005906 	br	80e634 <altera_avalon_lcd_16207_write+0x2ac>
  80e4d0:	00005806 	br	80e634 <altera_avalon_lcd_16207_write+0x2ac>
  80e4d4:	e0bff907 	ldb	r2,-28(fp)
  80e4d8:	108006d8 	cmpnei	r2,r2,27
  80e4dc:	1000031e 	bne	r2,zero,80e4ec <altera_avalon_lcd_16207_write+0x164>
  80e4e0:	e0bffc17 	ldw	r2,-16(fp)
  80e4e4:	10000905 	stb	zero,36(r2)
  80e4e8:	00005206 	br	80e634 <altera_avalon_lcd_16207_write+0x2ac>
  80e4ec:	e0bff907 	ldb	r2,-28(fp)
  80e4f0:	10800358 	cmpnei	r2,r2,13
  80e4f4:	1000031e 	bne	r2,zero,80e504 <altera_avalon_lcd_16207_write+0x17c>
  80e4f8:	e0bffc17 	ldw	r2,-16(fp)
  80e4fc:	10000845 	stb	zero,33(r2)
  80e500:	00004c06 	br	80e634 <altera_avalon_lcd_16207_write+0x2ac>
  80e504:	e0bff907 	ldb	r2,-28(fp)
  80e508:	10800298 	cmpnei	r2,r2,10
  80e50c:	1000101e 	bne	r2,zero,80e550 <altera_avalon_lcd_16207_write+0x1c8>
  80e510:	e0bffc17 	ldw	r2,-16(fp)
  80e514:	10000845 	stb	zero,33(r2)
  80e518:	e0bffc17 	ldw	r2,-16(fp)
  80e51c:	10800883 	ldbu	r2,34(r2)
  80e520:	10800044 	addi	r2,r2,1
  80e524:	1007883a 	mov	r3,r2
  80e528:	e0bffc17 	ldw	r2,-16(fp)
  80e52c:	10c00885 	stb	r3,34(r2)
  80e530:	e0bffc17 	ldw	r2,-16(fp)
  80e534:	10800883 	ldbu	r2,34(r2)
  80e538:	10803fcc 	andi	r2,r2,255
  80e53c:	108000f0 	cmpltui	r2,r2,3
  80e540:	10003c1e 	bne	r2,zero,80e634 <altera_avalon_lcd_16207_write+0x2ac>
  80e544:	e13ffc17 	ldw	r4,-16(fp)
  80e548:	080e0200 	call	80e020 <lcd_scroll_up>
  80e54c:	00003906 	br	80e634 <altera_avalon_lcd_16207_write+0x2ac>
  80e550:	e0bff907 	ldb	r2,-28(fp)
  80e554:	10800218 	cmpnei	r2,r2,8
  80e558:	10000b1e 	bne	r2,zero,80e588 <altera_avalon_lcd_16207_write+0x200>
  80e55c:	e0bffc17 	ldw	r2,-16(fp)
  80e560:	10800843 	ldbu	r2,33(r2)
  80e564:	10803fcc 	andi	r2,r2,255
  80e568:	10003226 	beq	r2,zero,80e634 <altera_avalon_lcd_16207_write+0x2ac>
  80e56c:	e0bffc17 	ldw	r2,-16(fp)
  80e570:	10800843 	ldbu	r2,33(r2)
  80e574:	10bfffc4 	addi	r2,r2,-1
  80e578:	1007883a 	mov	r3,r2
  80e57c:	e0bffc17 	ldw	r2,-16(fp)
  80e580:	10c00845 	stb	r3,33(r2)
  80e584:	00002b06 	br	80e634 <altera_avalon_lcd_16207_write+0x2ac>
  80e588:	00802074 	movhi	r2,129
  80e58c:	1088a204 	addi	r2,r2,8840
  80e590:	10c00017 	ldw	r3,0(r2)
  80e594:	e0bff907 	ldb	r2,-28(fp)
  80e598:	10800044 	addi	r2,r2,1
  80e59c:	1885883a 	add	r2,r3,r2
  80e5a0:	10800003 	ldbu	r2,0(r2)
  80e5a4:	10803fcc 	andi	r2,r2,255
  80e5a8:	1080201c 	xori	r2,r2,128
  80e5ac:	10bfe004 	addi	r2,r2,-128
  80e5b0:	108025cc 	andi	r2,r2,151
  80e5b4:	10001f26 	beq	r2,zero,80e634 <altera_avalon_lcd_16207_write+0x2ac>
  80e5b8:	e0bffc17 	ldw	r2,-16(fp)
  80e5bc:	10800883 	ldbu	r2,34(r2)
  80e5c0:	10803fcc 	andi	r2,r2,255
  80e5c4:	108000b0 	cmpltui	r2,r2,2
  80e5c8:	1000021e 	bne	r2,zero,80e5d4 <altera_avalon_lcd_16207_write+0x24c>
  80e5cc:	e13ffc17 	ldw	r4,-16(fp)
  80e5d0:	080e0200 	call	80e020 <lcd_scroll_up>
  80e5d4:	e0bffc17 	ldw	r2,-16(fp)
  80e5d8:	10800843 	ldbu	r2,33(r2)
  80e5dc:	10803fcc 	andi	r2,r2,255
  80e5e0:	10801428 	cmpgeui	r2,r2,80
  80e5e4:	10000d1e 	bne	r2,zero,80e61c <altera_avalon_lcd_16207_write+0x294>
  80e5e8:	e0bffc17 	ldw	r2,-16(fp)
  80e5ec:	10800883 	ldbu	r2,34(r2)
  80e5f0:	10c03fcc 	andi	r3,r2,255
  80e5f4:	e0bffc17 	ldw	r2,-16(fp)
  80e5f8:	10800843 	ldbu	r2,33(r2)
  80e5fc:	10803fcc 	andi	r2,r2,255
  80e600:	e13ffc17 	ldw	r4,-16(fp)
  80e604:	18c018e4 	muli	r3,r3,99
  80e608:	20c7883a 	add	r3,r4,r3
  80e60c:	1885883a 	add	r2,r3,r2
  80e610:	10801004 	addi	r2,r2,64
  80e614:	e0fff903 	ldbu	r3,-28(fp)
  80e618:	10c00005 	stb	r3,0(r2)
  80e61c:	e0bffc17 	ldw	r2,-16(fp)
  80e620:	10800843 	ldbu	r2,33(r2)
  80e624:	10800044 	addi	r2,r2,1
  80e628:	1007883a 	mov	r3,r2
  80e62c:	e0bffc17 	ldw	r2,-16(fp)
  80e630:	10c00845 	stb	r3,33(r2)
  80e634:	e0bffd17 	ldw	r2,-12(fp)
  80e638:	10800044 	addi	r2,r2,1
  80e63c:	e0bffd15 	stw	r2,-12(fp)
  80e640:	e0fffd17 	ldw	r3,-12(fp)
  80e644:	e0bff817 	ldw	r2,-32(fp)
  80e648:	18bf5f36 	bltu	r3,r2,80e3c8 <__alt_data_end+0xff80e3c8>
  80e64c:	00800404 	movi	r2,16
  80e650:	e0bff615 	stw	r2,-40(fp)
  80e654:	e03ff515 	stw	zero,-44(fp)
  80e658:	00003606 	br	80e734 <altera_avalon_lcd_16207_write+0x3ac>
  80e65c:	00801404 	movi	r2,80
  80e660:	e0bff715 	stw	r2,-36(fp)
  80e664:	00001206 	br	80e6b0 <altera_avalon_lcd_16207_write+0x328>
  80e668:	e0bff717 	ldw	r2,-36(fp)
  80e66c:	10bfffc4 	addi	r2,r2,-1
  80e670:	e13ffc17 	ldw	r4,-16(fp)
  80e674:	e0fff517 	ldw	r3,-44(fp)
  80e678:	18c018e4 	muli	r3,r3,99
  80e67c:	20c7883a 	add	r3,r4,r3
  80e680:	1885883a 	add	r2,r3,r2
  80e684:	10801004 	addi	r2,r2,64
  80e688:	10800003 	ldbu	r2,0(r2)
  80e68c:	10803fcc 	andi	r2,r2,255
  80e690:	1080201c 	xori	r2,r2,128
  80e694:	10bfe004 	addi	r2,r2,-128
  80e698:	10800820 	cmpeqi	r2,r2,32
  80e69c:	1000011e 	bne	r2,zero,80e6a4 <altera_avalon_lcd_16207_write+0x31c>
  80e6a0:	00000506 	br	80e6b8 <altera_avalon_lcd_16207_write+0x330>
  80e6a4:	e0bff717 	ldw	r2,-36(fp)
  80e6a8:	10bfffc4 	addi	r2,r2,-1
  80e6ac:	e0bff715 	stw	r2,-36(fp)
  80e6b0:	e0bff717 	ldw	r2,-36(fp)
  80e6b4:	00bfec16 	blt	zero,r2,80e668 <__alt_data_end+0xff80e668>
  80e6b8:	e0bff717 	ldw	r2,-36(fp)
  80e6bc:	10800448 	cmpgei	r2,r2,17
  80e6c0:	1000031e 	bne	r2,zero,80e6d0 <altera_avalon_lcd_16207_write+0x348>
  80e6c4:	00800404 	movi	r2,16
  80e6c8:	e0bff715 	stw	r2,-36(fp)
  80e6cc:	00000306 	br	80e6dc <altera_avalon_lcd_16207_write+0x354>
  80e6d0:	e0bff717 	ldw	r2,-36(fp)
  80e6d4:	10800044 	addi	r2,r2,1
  80e6d8:	e0bff715 	stw	r2,-36(fp)
  80e6dc:	e0bff717 	ldw	r2,-36(fp)
  80e6e0:	1009883a 	mov	r4,r2
  80e6e4:	e0fffc17 	ldw	r3,-16(fp)
  80e6e8:	e0bff517 	ldw	r2,-44(fp)
  80e6ec:	108018e4 	muli	r2,r2,99
  80e6f0:	10802404 	addi	r2,r2,144
  80e6f4:	1885883a 	add	r2,r3,r2
  80e6f8:	11000045 	stb	r4,1(r2)
  80e6fc:	e0fff617 	ldw	r3,-40(fp)
  80e700:	e0bff717 	ldw	r2,-36(fp)
  80e704:	1880020e 	bge	r3,r2,80e710 <altera_avalon_lcd_16207_write+0x388>
  80e708:	e0bff717 	ldw	r2,-36(fp)
  80e70c:	e0bff615 	stw	r2,-40(fp)
  80e710:	e0fffc17 	ldw	r3,-16(fp)
  80e714:	e0bff517 	ldw	r2,-44(fp)
  80e718:	108018e4 	muli	r2,r2,99
  80e71c:	10802404 	addi	r2,r2,144
  80e720:	1885883a 	add	r2,r3,r2
  80e724:	10000085 	stb	zero,2(r2)
  80e728:	e0bff517 	ldw	r2,-44(fp)
  80e72c:	10800044 	addi	r2,r2,1
  80e730:	e0bff515 	stw	r2,-44(fp)
  80e734:	e0bff517 	ldw	r2,-44(fp)
  80e738:	10800090 	cmplti	r2,r2,2
  80e73c:	103fc71e 	bne	r2,zero,80e65c <__alt_data_end+0xff80e65c>
  80e740:	e0bff617 	ldw	r2,-40(fp)
  80e744:	10800448 	cmpgei	r2,r2,17
  80e748:	1000031e 	bne	r2,zero,80e758 <altera_avalon_lcd_16207_write+0x3d0>
  80e74c:	e0bffc17 	ldw	r2,-16(fp)
  80e750:	10000985 	stb	zero,38(r2)
  80e754:	00002e06 	br	80e810 <altera_avalon_lcd_16207_write+0x488>
  80e758:	e0bff617 	ldw	r2,-40(fp)
  80e75c:	1085883a 	add	r2,r2,r2
  80e760:	e0bff615 	stw	r2,-40(fp)
  80e764:	e0bff617 	ldw	r2,-40(fp)
  80e768:	1007883a 	mov	r3,r2
  80e76c:	e0bffc17 	ldw	r2,-16(fp)
  80e770:	10c00985 	stb	r3,38(r2)
  80e774:	e03ff515 	stw	zero,-44(fp)
  80e778:	00002206 	br	80e804 <altera_avalon_lcd_16207_write+0x47c>
  80e77c:	e0fffc17 	ldw	r3,-16(fp)
  80e780:	e0bff517 	ldw	r2,-44(fp)
  80e784:	108018e4 	muli	r2,r2,99
  80e788:	10802404 	addi	r2,r2,144
  80e78c:	1885883a 	add	r2,r3,r2
  80e790:	10800043 	ldbu	r2,1(r2)
  80e794:	10803fcc 	andi	r2,r2,255
  80e798:	1080201c 	xori	r2,r2,128
  80e79c:	10bfe004 	addi	r2,r2,-128
  80e7a0:	10800450 	cmplti	r2,r2,17
  80e7a4:	1000141e 	bne	r2,zero,80e7f8 <altera_avalon_lcd_16207_write+0x470>
  80e7a8:	e0fffc17 	ldw	r3,-16(fp)
  80e7ac:	e0bff517 	ldw	r2,-44(fp)
  80e7b0:	108018e4 	muli	r2,r2,99
  80e7b4:	10802404 	addi	r2,r2,144
  80e7b8:	1885883a 	add	r2,r3,r2
  80e7bc:	10800043 	ldbu	r2,1(r2)
  80e7c0:	10803fcc 	andi	r2,r2,255
  80e7c4:	1080201c 	xori	r2,r2,128
  80e7c8:	10bfe004 	addi	r2,r2,-128
  80e7cc:	1004923a 	slli	r2,r2,8
  80e7d0:	1009883a 	mov	r4,r2
  80e7d4:	e17ff617 	ldw	r5,-40(fp)
  80e7d8:	080a1a00 	call	80a1a0 <__divsi3>
  80e7dc:	1009883a 	mov	r4,r2
  80e7e0:	e0fffc17 	ldw	r3,-16(fp)
  80e7e4:	e0bff517 	ldw	r2,-44(fp)
  80e7e8:	108018e4 	muli	r2,r2,99
  80e7ec:	10802404 	addi	r2,r2,144
  80e7f0:	1885883a 	add	r2,r3,r2
  80e7f4:	11000085 	stb	r4,2(r2)
  80e7f8:	e0bff517 	ldw	r2,-44(fp)
  80e7fc:	10800044 	addi	r2,r2,1
  80e800:	e0bff515 	stw	r2,-44(fp)
  80e804:	e0bff517 	ldw	r2,-44(fp)
  80e808:	10800090 	cmplti	r2,r2,2
  80e80c:	103fdb1e 	bne	r2,zero,80e77c <__alt_data_end+0xff80e77c>
  80e810:	e0bffc17 	ldw	r2,-16(fp)
  80e814:	10800943 	ldbu	r2,37(r2)
  80e818:	10803fcc 	andi	r2,r2,255
  80e81c:	e0bffb15 	stw	r2,-20(fp)
  80e820:	e13ffc17 	ldw	r4,-16(fp)
  80e824:	080de380 	call	80de38 <lcd_repaint_screen>
  80e828:	e0bffc17 	ldw	r2,-16(fp)
  80e82c:	100009c5 	stb	zero,39(r2)
  80e830:	e0bffc17 	ldw	r2,-16(fp)
  80e834:	10800943 	ldbu	r2,37(r2)
  80e838:	10c03fcc 	andi	r3,r2,255
  80e83c:	e0bffb17 	ldw	r2,-20(fp)
  80e840:	1880011e 	bne	r3,r2,80e848 <altera_avalon_lcd_16207_write+0x4c0>
  80e844:	00000406 	br	80e858 <altera_avalon_lcd_16207_write+0x4d0>
  80e848:	e0bffc17 	ldw	r2,-16(fp)
  80e84c:	00c00044 	movi	r3,1
  80e850:	10c009c5 	stb	r3,39(r2)
  80e854:	003fee06 	br	80e810 <__alt_data_end+0xff80e810>
  80e858:	e0bffe17 	ldw	r2,-8(fp)
  80e85c:	e037883a 	mov	sp,fp
  80e860:	dfc00117 	ldw	ra,4(sp)
  80e864:	df000017 	ldw	fp,0(sp)
  80e868:	dec00204 	addi	sp,sp,8
  80e86c:	f800283a 	ret

0080e870 <alt_lcd_16207_timeout>:
  80e870:	defffc04 	addi	sp,sp,-16
  80e874:	dfc00315 	stw	ra,12(sp)
  80e878:	df000215 	stw	fp,8(sp)
  80e87c:	df000204 	addi	fp,sp,8
  80e880:	e13fff15 	stw	r4,-4(fp)
  80e884:	e0bfff17 	ldw	r2,-4(fp)
  80e888:	e0bffe15 	stw	r2,-8(fp)
  80e88c:	e0bffe17 	ldw	r2,-8(fp)
  80e890:	10800943 	ldbu	r2,37(r2)
  80e894:	10803fcc 	andi	r2,r2,255
  80e898:	10c00044 	addi	r3,r2,1
  80e89c:	e0bffe17 	ldw	r2,-8(fp)
  80e8a0:	10800983 	ldbu	r2,38(r2)
  80e8a4:	10803fcc 	andi	r2,r2,255
  80e8a8:	18800316 	blt	r3,r2,80e8b8 <alt_lcd_16207_timeout+0x48>
  80e8ac:	e0bffe17 	ldw	r2,-8(fp)
  80e8b0:	10000945 	stb	zero,37(r2)
  80e8b4:	00000606 	br	80e8d0 <alt_lcd_16207_timeout+0x60>
  80e8b8:	e0bffe17 	ldw	r2,-8(fp)
  80e8bc:	10800943 	ldbu	r2,37(r2)
  80e8c0:	10800044 	addi	r2,r2,1
  80e8c4:	1007883a 	mov	r3,r2
  80e8c8:	e0bffe17 	ldw	r2,-8(fp)
  80e8cc:	10c00945 	stb	r3,37(r2)
  80e8d0:	e0bffe17 	ldw	r2,-8(fp)
  80e8d4:	10800983 	ldbu	r2,38(r2)
  80e8d8:	10803fcc 	andi	r2,r2,255
  80e8dc:	10000826 	beq	r2,zero,80e900 <alt_lcd_16207_timeout+0x90>
  80e8e0:	e0bffe17 	ldw	r2,-8(fp)
  80e8e4:	108009c3 	ldbu	r2,39(r2)
  80e8e8:	10803fcc 	andi	r2,r2,255
  80e8ec:	1080201c 	xori	r2,r2,128
  80e8f0:	10bfe004 	addi	r2,r2,-128
  80e8f4:	1000021e 	bne	r2,zero,80e900 <alt_lcd_16207_timeout+0x90>
  80e8f8:	e13ffe17 	ldw	r4,-8(fp)
  80e8fc:	080de380 	call	80de38 <lcd_repaint_screen>
  80e900:	e0bffe17 	ldw	r2,-8(fp)
  80e904:	10800717 	ldw	r2,28(r2)
  80e908:	e037883a 	mov	sp,fp
  80e90c:	dfc00117 	ldw	ra,4(sp)
  80e910:	df000017 	ldw	fp,0(sp)
  80e914:	dec00204 	addi	sp,sp,8
  80e918:	f800283a 	ret

0080e91c <altera_avalon_lcd_16207_init>:
  80e91c:	defffc04 	addi	sp,sp,-16
  80e920:	dfc00315 	stw	ra,12(sp)
  80e924:	df000215 	stw	fp,8(sp)
  80e928:	df000204 	addi	fp,sp,8
  80e92c:	e13fff15 	stw	r4,-4(fp)
  80e930:	e0bfff17 	ldw	r2,-4(fp)
  80e934:	10800017 	ldw	r2,0(r2)
  80e938:	e0bffe15 	stw	r2,-8(fp)
  80e93c:	e0bfff17 	ldw	r2,-4(fp)
  80e940:	10000805 	stb	zero,32(r2)
  80e944:	010ea604 	movi	r4,15000
  80e948:	08103400 	call	810340 <usleep>
  80e94c:	e0bffe17 	ldw	r2,-8(fp)
  80e950:	00c00c04 	movi	r3,48
  80e954:	10c00035 	stwio	r3,0(r2)
  80e958:	01040104 	movi	r4,4100
  80e95c:	08103400 	call	810340 <usleep>
  80e960:	e0bffe17 	ldw	r2,-8(fp)
  80e964:	00c00c04 	movi	r3,48
  80e968:	10c00035 	stwio	r3,0(r2)
  80e96c:	0100fa04 	movi	r4,1000
  80e970:	08103400 	call	810340 <usleep>
  80e974:	e0bffe17 	ldw	r2,-8(fp)
  80e978:	00c00c04 	movi	r3,48
  80e97c:	10c00035 	stwio	r3,0(r2)
  80e980:	e13fff17 	ldw	r4,-4(fp)
  80e984:	01400e04 	movi	r5,56
  80e988:	080dbe40 	call	80dbe4 <lcd_write_command>
  80e98c:	e13fff17 	ldw	r4,-4(fp)
  80e990:	01400204 	movi	r5,8
  80e994:	080dbe40 	call	80dbe4 <lcd_write_command>
  80e998:	e13fff17 	ldw	r4,-4(fp)
  80e99c:	080dd6c0 	call	80dd6c <lcd_clear_screen>
  80e9a0:	e13fff17 	ldw	r4,-4(fp)
  80e9a4:	01400184 	movi	r5,6
  80e9a8:	080dbe40 	call	80dbe4 <lcd_write_command>
  80e9ac:	e13fff17 	ldw	r4,-4(fp)
  80e9b0:	01400304 	movi	r5,12
  80e9b4:	080dbe40 	call	80dbe4 <lcd_write_command>
  80e9b8:	e0bfff17 	ldw	r2,-4(fp)
  80e9bc:	00ffffc4 	movi	r3,-1
  80e9c0:	10c00905 	stb	r3,36(r2)
  80e9c4:	e0bfff17 	ldw	r2,-4(fp)
  80e9c8:	10800a04 	addi	r2,r2,40
  80e9cc:	1009883a 	mov	r4,r2
  80e9d0:	000b883a 	mov	r5,zero
  80e9d4:	01800204 	movi	r6,8
  80e9d8:	080b2bc0 	call	80b2bc <memset>
  80e9dc:	e0bfff17 	ldw	r2,-4(fp)
  80e9e0:	10000945 	stb	zero,37(r2)
  80e9e4:	e0bfff17 	ldw	r2,-4(fp)
  80e9e8:	10000985 	stb	zero,38(r2)
  80e9ec:	e0bfff17 	ldw	r2,-4(fp)
  80e9f0:	100009c5 	stb	zero,39(r2)
  80e9f4:	00802074 	movhi	r2,129
  80e9f8:	108bd704 	addi	r2,r2,12124
  80e9fc:	10800017 	ldw	r2,0(r2)
  80ea00:	1009883a 	mov	r4,r2
  80ea04:	01400284 	movi	r5,10
  80ea08:	080a2500 	call	80a250 <__udivsi3>
  80ea0c:	1007883a 	mov	r3,r2
  80ea10:	e0bfff17 	ldw	r2,-4(fp)
  80ea14:	10c00715 	stw	r3,28(r2)
  80ea18:	e0bfff17 	ldw	r2,-4(fp)
  80ea1c:	10c00104 	addi	r3,r2,4
  80ea20:	e0bfff17 	ldw	r2,-4(fp)
  80ea24:	10800717 	ldw	r2,28(r2)
  80ea28:	1809883a 	mov	r4,r3
  80ea2c:	100b883a 	mov	r5,r2
  80ea30:	01802074 	movhi	r6,129
  80ea34:	31ba1c04 	addi	r6,r6,-6032
  80ea38:	e1ffff17 	ldw	r7,-4(fp)
  80ea3c:	080c9d00 	call	80c9d0 <alt_alarm_start>
  80ea40:	e037883a 	mov	sp,fp
  80ea44:	dfc00117 	ldw	ra,4(sp)
  80ea48:	df000017 	ldw	fp,0(sp)
  80ea4c:	dec00204 	addi	sp,sp,8
  80ea50:	f800283a 	ret

0080ea54 <altera_avalon_lcd_16207_write_fd>:
  80ea54:	defffa04 	addi	sp,sp,-24
  80ea58:	dfc00515 	stw	ra,20(sp)
  80ea5c:	df000415 	stw	fp,16(sp)
  80ea60:	df000404 	addi	fp,sp,16
  80ea64:	e13ffd15 	stw	r4,-12(fp)
  80ea68:	e17ffe15 	stw	r5,-8(fp)
  80ea6c:	e1bfff15 	stw	r6,-4(fp)
  80ea70:	e0bffd17 	ldw	r2,-12(fp)
  80ea74:	10800017 	ldw	r2,0(r2)
  80ea78:	e0bffc15 	stw	r2,-16(fp)
  80ea7c:	e0bffc17 	ldw	r2,-16(fp)
  80ea80:	10c00a04 	addi	r3,r2,40
  80ea84:	e0bffd17 	ldw	r2,-12(fp)
  80ea88:	10800217 	ldw	r2,8(r2)
  80ea8c:	1809883a 	mov	r4,r3
  80ea90:	e17ffe17 	ldw	r5,-8(fp)
  80ea94:	e1bfff17 	ldw	r6,-4(fp)
  80ea98:	100f883a 	mov	r7,r2
  80ea9c:	080e3880 	call	80e388 <altera_avalon_lcd_16207_write>
  80eaa0:	e037883a 	mov	sp,fp
  80eaa4:	dfc00117 	ldw	ra,4(sp)
  80eaa8:	df000017 	ldw	fp,0(sp)
  80eaac:	dec00204 	addi	sp,sp,8
  80eab0:	f800283a 	ret

0080eab4 <altera_avalon_uart_read_fd>:
  80eab4:	defffa04 	addi	sp,sp,-24
  80eab8:	dfc00515 	stw	ra,20(sp)
  80eabc:	df000415 	stw	fp,16(sp)
  80eac0:	df000404 	addi	fp,sp,16
  80eac4:	e13ffd15 	stw	r4,-12(fp)
  80eac8:	e17ffe15 	stw	r5,-8(fp)
  80eacc:	e1bfff15 	stw	r6,-4(fp)
  80ead0:	e0bffd17 	ldw	r2,-12(fp)
  80ead4:	10800017 	ldw	r2,0(r2)
  80ead8:	e0bffc15 	stw	r2,-16(fp)
  80eadc:	e0bffc17 	ldw	r2,-16(fp)
  80eae0:	10c00a04 	addi	r3,r2,40
  80eae4:	e0bffd17 	ldw	r2,-12(fp)
  80eae8:	10800217 	ldw	r2,8(r2)
  80eaec:	1809883a 	mov	r4,r3
  80eaf0:	e17ffe17 	ldw	r5,-8(fp)
  80eaf4:	e1bfff17 	ldw	r6,-4(fp)
  80eaf8:	100f883a 	mov	r7,r2
  80eafc:	080efc80 	call	80efc8 <altera_avalon_uart_read>
  80eb00:	e037883a 	mov	sp,fp
  80eb04:	dfc00117 	ldw	ra,4(sp)
  80eb08:	df000017 	ldw	fp,0(sp)
  80eb0c:	dec00204 	addi	sp,sp,8
  80eb10:	f800283a 	ret

0080eb14 <altera_avalon_uart_write_fd>:
  80eb14:	defffa04 	addi	sp,sp,-24
  80eb18:	dfc00515 	stw	ra,20(sp)
  80eb1c:	df000415 	stw	fp,16(sp)
  80eb20:	df000404 	addi	fp,sp,16
  80eb24:	e13ffd15 	stw	r4,-12(fp)
  80eb28:	e17ffe15 	stw	r5,-8(fp)
  80eb2c:	e1bfff15 	stw	r6,-4(fp)
  80eb30:	e0bffd17 	ldw	r2,-12(fp)
  80eb34:	10800017 	ldw	r2,0(r2)
  80eb38:	e0bffc15 	stw	r2,-16(fp)
  80eb3c:	e0bffc17 	ldw	r2,-16(fp)
  80eb40:	10c00a04 	addi	r3,r2,40
  80eb44:	e0bffd17 	ldw	r2,-12(fp)
  80eb48:	10800217 	ldw	r2,8(r2)
  80eb4c:	1809883a 	mov	r4,r3
  80eb50:	e17ffe17 	ldw	r5,-8(fp)
  80eb54:	e1bfff17 	ldw	r6,-4(fp)
  80eb58:	100f883a 	mov	r7,r2
  80eb5c:	080f1f40 	call	80f1f4 <altera_avalon_uart_write>
  80eb60:	e037883a 	mov	sp,fp
  80eb64:	dfc00117 	ldw	ra,4(sp)
  80eb68:	df000017 	ldw	fp,0(sp)
  80eb6c:	dec00204 	addi	sp,sp,8
  80eb70:	f800283a 	ret

0080eb74 <altera_avalon_uart_close_fd>:
  80eb74:	defffc04 	addi	sp,sp,-16
  80eb78:	dfc00315 	stw	ra,12(sp)
  80eb7c:	df000215 	stw	fp,8(sp)
  80eb80:	df000204 	addi	fp,sp,8
  80eb84:	e13fff15 	stw	r4,-4(fp)
  80eb88:	e0bfff17 	ldw	r2,-4(fp)
  80eb8c:	10800017 	ldw	r2,0(r2)
  80eb90:	e0bffe15 	stw	r2,-8(fp)
  80eb94:	e0bffe17 	ldw	r2,-8(fp)
  80eb98:	10c00a04 	addi	r3,r2,40
  80eb9c:	e0bfff17 	ldw	r2,-4(fp)
  80eba0:	10800217 	ldw	r2,8(r2)
  80eba4:	1809883a 	mov	r4,r3
  80eba8:	100b883a 	mov	r5,r2
  80ebac:	080ef240 	call	80ef24 <altera_avalon_uart_close>
  80ebb0:	e037883a 	mov	sp,fp
  80ebb4:	dfc00117 	ldw	ra,4(sp)
  80ebb8:	df000017 	ldw	fp,0(sp)
  80ebbc:	dec00204 	addi	sp,sp,8
  80ebc0:	f800283a 	ret

0080ebc4 <altera_avalon_uart_init>:
  80ebc4:	defff904 	addi	sp,sp,-28
  80ebc8:	dfc00615 	stw	ra,24(sp)
  80ebcc:	df000515 	stw	fp,20(sp)
  80ebd0:	df000504 	addi	fp,sp,20
  80ebd4:	e13ffd15 	stw	r4,-12(fp)
  80ebd8:	e17ffe15 	stw	r5,-8(fp)
  80ebdc:	e1bfff15 	stw	r6,-4(fp)
  80ebe0:	e0bffd17 	ldw	r2,-12(fp)
  80ebe4:	10800017 	ldw	r2,0(r2)
  80ebe8:	e0bffb15 	stw	r2,-20(fp)
  80ebec:	0005883a 	mov	r2,zero
  80ebf0:	1000041e 	bne	r2,zero,80ec04 <altera_avalon_uart_init+0x40>
  80ebf4:	0005883a 	mov	r2,zero
  80ebf8:	1000021e 	bne	r2,zero,80ec04 <altera_avalon_uart_init+0x40>
  80ebfc:	0005883a 	mov	r2,zero
  80ec00:	10000226 	beq	r2,zero,80ec0c <altera_avalon_uart_init+0x48>
  80ec04:	00800044 	movi	r2,1
  80ec08:	00000106 	br	80ec10 <altera_avalon_uart_init+0x4c>
  80ec0c:	0005883a 	mov	r2,zero
  80ec10:	e0bffc15 	stw	r2,-16(fp)
  80ec14:	e0bffc17 	ldw	r2,-16(fp)
  80ec18:	10000d1e 	bne	r2,zero,80ec50 <altera_avalon_uart_init+0x8c>
  80ec1c:	e0bffd17 	ldw	r2,-12(fp)
  80ec20:	00c32004 	movi	r3,3200
  80ec24:	10c00115 	stw	r3,4(r2)
  80ec28:	e0bffb17 	ldw	r2,-20(fp)
  80ec2c:	10800304 	addi	r2,r2,12
  80ec30:	e0fffd17 	ldw	r3,-12(fp)
  80ec34:	18c00117 	ldw	r3,4(r3)
  80ec38:	10c00035 	stwio	r3,0(r2)
  80ec3c:	e13fff17 	ldw	r4,-4(fp)
  80ec40:	e17ffd17 	ldw	r5,-12(fp)
  80ec44:	01802074 	movhi	r6,129
  80ec48:	31bb1904 	addi	r6,r6,-5020
  80ec4c:	080ff1c0 	call	80ff1c <alt_irq_register>
  80ec50:	e037883a 	mov	sp,fp
  80ec54:	dfc00117 	ldw	ra,4(sp)
  80ec58:	df000017 	ldw	fp,0(sp)
  80ec5c:	dec00204 	addi	sp,sp,8
  80ec60:	f800283a 	ret

0080ec64 <altera_avalon_uart_irq>:
  80ec64:	defff904 	addi	sp,sp,-28
  80ec68:	dfc00615 	stw	ra,24(sp)
  80ec6c:	df000515 	stw	fp,20(sp)
  80ec70:	df000504 	addi	fp,sp,20
  80ec74:	e13ffe15 	stw	r4,-8(fp)
  80ec78:	e17fff15 	stw	r5,-4(fp)
  80ec7c:	e0bffe17 	ldw	r2,-8(fp)
  80ec80:	e0bffb15 	stw	r2,-20(fp)
  80ec84:	e0bffb17 	ldw	r2,-20(fp)
  80ec88:	10800017 	ldw	r2,0(r2)
  80ec8c:	e0bffc15 	stw	r2,-16(fp)
  80ec90:	e0bffc17 	ldw	r2,-16(fp)
  80ec94:	10800204 	addi	r2,r2,8
  80ec98:	10800037 	ldwio	r2,0(r2)
  80ec9c:	e0bffd15 	stw	r2,-12(fp)
  80eca0:	e0bffc17 	ldw	r2,-16(fp)
  80eca4:	10800204 	addi	r2,r2,8
  80eca8:	0007883a 	mov	r3,zero
  80ecac:	10c00035 	stwio	r3,0(r2)
  80ecb0:	e0bffc17 	ldw	r2,-16(fp)
  80ecb4:	10800204 	addi	r2,r2,8
  80ecb8:	10800037 	ldwio	r2,0(r2)
  80ecbc:	e0bffd17 	ldw	r2,-12(fp)
  80ecc0:	1080200c 	andi	r2,r2,128
  80ecc4:	10000326 	beq	r2,zero,80ecd4 <altera_avalon_uart_irq+0x70>
  80ecc8:	e13ffb17 	ldw	r4,-20(fp)
  80eccc:	e17ffd17 	ldw	r5,-12(fp)
  80ecd0:	080ed000 	call	80ed00 <altera_avalon_uart_rxirq>
  80ecd4:	e0bffd17 	ldw	r2,-12(fp)
  80ecd8:	1081100c 	andi	r2,r2,1088
  80ecdc:	10000326 	beq	r2,zero,80ecec <altera_avalon_uart_irq+0x88>
  80ece0:	e13ffb17 	ldw	r4,-20(fp)
  80ece4:	e17ffd17 	ldw	r5,-12(fp)
  80ece8:	080ede00 	call	80ede0 <altera_avalon_uart_txirq>
  80ecec:	e037883a 	mov	sp,fp
  80ecf0:	dfc00117 	ldw	ra,4(sp)
  80ecf4:	df000017 	ldw	fp,0(sp)
  80ecf8:	dec00204 	addi	sp,sp,8
  80ecfc:	f800283a 	ret

0080ed00 <altera_avalon_uart_rxirq>:
  80ed00:	defffc04 	addi	sp,sp,-16
  80ed04:	df000315 	stw	fp,12(sp)
  80ed08:	df000304 	addi	fp,sp,12
  80ed0c:	e13ffe15 	stw	r4,-8(fp)
  80ed10:	e17fff15 	stw	r5,-4(fp)
  80ed14:	e0bfff17 	ldw	r2,-4(fp)
  80ed18:	108000cc 	andi	r2,r2,3
  80ed1c:	10000126 	beq	r2,zero,80ed24 <altera_avalon_uart_rxirq+0x24>
  80ed20:	00002b06 	br	80edd0 <altera_avalon_uart_rxirq+0xd0>
  80ed24:	e0bffe17 	ldw	r2,-8(fp)
  80ed28:	10800317 	ldw	r2,12(r2)
  80ed2c:	e0bffe17 	ldw	r2,-8(fp)
  80ed30:	10800217 	ldw	r2,8(r2)
  80ed34:	e0bffe17 	ldw	r2,-8(fp)
  80ed38:	10800317 	ldw	r2,12(r2)
  80ed3c:	10800044 	addi	r2,r2,1
  80ed40:	10800fcc 	andi	r2,r2,63
  80ed44:	e0bffd15 	stw	r2,-12(fp)
  80ed48:	e0bffe17 	ldw	r2,-8(fp)
  80ed4c:	10800317 	ldw	r2,12(r2)
  80ed50:	e0fffe17 	ldw	r3,-8(fp)
  80ed54:	18c00017 	ldw	r3,0(r3)
  80ed58:	18c00037 	ldwio	r3,0(r3)
  80ed5c:	1809883a 	mov	r4,r3
  80ed60:	e0fffe17 	ldw	r3,-8(fp)
  80ed64:	1885883a 	add	r2,r3,r2
  80ed68:	10800704 	addi	r2,r2,28
  80ed6c:	11000005 	stb	r4,0(r2)
  80ed70:	e0bffe17 	ldw	r2,-8(fp)
  80ed74:	e0fffd17 	ldw	r3,-12(fp)
  80ed78:	10c00315 	stw	r3,12(r2)
  80ed7c:	e0bffe17 	ldw	r2,-8(fp)
  80ed80:	10800317 	ldw	r2,12(r2)
  80ed84:	10800044 	addi	r2,r2,1
  80ed88:	10800fcc 	andi	r2,r2,63
  80ed8c:	e0bffd15 	stw	r2,-12(fp)
  80ed90:	e0bffe17 	ldw	r2,-8(fp)
  80ed94:	10c00217 	ldw	r3,8(r2)
  80ed98:	e0bffd17 	ldw	r2,-12(fp)
  80ed9c:	18800c1e 	bne	r3,r2,80edd0 <altera_avalon_uart_rxirq+0xd0>
  80eda0:	e0bffe17 	ldw	r2,-8(fp)
  80eda4:	10c00117 	ldw	r3,4(r2)
  80eda8:	00bfdfc4 	movi	r2,-129
  80edac:	1886703a 	and	r3,r3,r2
  80edb0:	e0bffe17 	ldw	r2,-8(fp)
  80edb4:	10c00115 	stw	r3,4(r2)
  80edb8:	e0bffe17 	ldw	r2,-8(fp)
  80edbc:	10800017 	ldw	r2,0(r2)
  80edc0:	10800304 	addi	r2,r2,12
  80edc4:	e0fffe17 	ldw	r3,-8(fp)
  80edc8:	18c00117 	ldw	r3,4(r3)
  80edcc:	10c00035 	stwio	r3,0(r2)
  80edd0:	e037883a 	mov	sp,fp
  80edd4:	df000017 	ldw	fp,0(sp)
  80edd8:	dec00104 	addi	sp,sp,4
  80eddc:	f800283a 	ret

0080ede0 <altera_avalon_uart_txirq>:
  80ede0:	defffb04 	addi	sp,sp,-20
  80ede4:	df000415 	stw	fp,16(sp)
  80ede8:	df000404 	addi	fp,sp,16
  80edec:	e13ffc15 	stw	r4,-16(fp)
  80edf0:	e17ffd15 	stw	r5,-12(fp)
  80edf4:	e0bffc17 	ldw	r2,-16(fp)
  80edf8:	10c00417 	ldw	r3,16(r2)
  80edfc:	e0bffc17 	ldw	r2,-16(fp)
  80ee00:	10800517 	ldw	r2,20(r2)
  80ee04:	18803226 	beq	r3,r2,80eed0 <altera_avalon_uart_txirq+0xf0>
  80ee08:	e0bffc17 	ldw	r2,-16(fp)
  80ee0c:	10800617 	ldw	r2,24(r2)
  80ee10:	1080008c 	andi	r2,r2,2
  80ee14:	10000326 	beq	r2,zero,80ee24 <altera_avalon_uart_txirq+0x44>
  80ee18:	e0bffd17 	ldw	r2,-12(fp)
  80ee1c:	1082000c 	andi	r2,r2,2048
  80ee20:	10001d26 	beq	r2,zero,80ee98 <altera_avalon_uart_txirq+0xb8>
  80ee24:	e0bffc17 	ldw	r2,-16(fp)
  80ee28:	10800417 	ldw	r2,16(r2)
  80ee2c:	e0bffc17 	ldw	r2,-16(fp)
  80ee30:	10800517 	ldw	r2,20(r2)
  80ee34:	e0bffc17 	ldw	r2,-16(fp)
  80ee38:	10800017 	ldw	r2,0(r2)
  80ee3c:	10800104 	addi	r2,r2,4
  80ee40:	e0fffc17 	ldw	r3,-16(fp)
  80ee44:	18c00417 	ldw	r3,16(r3)
  80ee48:	e13ffc17 	ldw	r4,-16(fp)
  80ee4c:	20c7883a 	add	r3,r4,r3
  80ee50:	18c01704 	addi	r3,r3,92
  80ee54:	18c00003 	ldbu	r3,0(r3)
  80ee58:	18c03fcc 	andi	r3,r3,255
  80ee5c:	10c00035 	stwio	r3,0(r2)
  80ee60:	e0bffc17 	ldw	r2,-16(fp)
  80ee64:	10800417 	ldw	r2,16(r2)
  80ee68:	10800044 	addi	r2,r2,1
  80ee6c:	e0fffc17 	ldw	r3,-16(fp)
  80ee70:	18800415 	stw	r2,16(r3)
  80ee74:	10c00fcc 	andi	r3,r2,63
  80ee78:	e0bffc17 	ldw	r2,-16(fp)
  80ee7c:	10c00415 	stw	r3,16(r2)
  80ee80:	e0bffc17 	ldw	r2,-16(fp)
  80ee84:	10800117 	ldw	r2,4(r2)
  80ee88:	10c01014 	ori	r3,r2,64
  80ee8c:	e0bffc17 	ldw	r2,-16(fp)
  80ee90:	10c00115 	stw	r3,4(r2)
  80ee94:	00000e06 	br	80eed0 <altera_avalon_uart_txirq+0xf0>
  80ee98:	e0bffc17 	ldw	r2,-16(fp)
  80ee9c:	10800017 	ldw	r2,0(r2)
  80eea0:	10800204 	addi	r2,r2,8
  80eea4:	10800037 	ldwio	r2,0(r2)
  80eea8:	e0bffd15 	stw	r2,-12(fp)
  80eeac:	e0bffd17 	ldw	r2,-12(fp)
  80eeb0:	1082000c 	andi	r2,r2,2048
  80eeb4:	1000061e 	bne	r2,zero,80eed0 <altera_avalon_uart_txirq+0xf0>
  80eeb8:	e0bffc17 	ldw	r2,-16(fp)
  80eebc:	10c00117 	ldw	r3,4(r2)
  80eec0:	00bfefc4 	movi	r2,-65
  80eec4:	1886703a 	and	r3,r3,r2
  80eec8:	e0bffc17 	ldw	r2,-16(fp)
  80eecc:	10c00115 	stw	r3,4(r2)
  80eed0:	e0bffc17 	ldw	r2,-16(fp)
  80eed4:	10c00417 	ldw	r3,16(r2)
  80eed8:	e0bffc17 	ldw	r2,-16(fp)
  80eedc:	10800517 	ldw	r2,20(r2)
  80eee0:	1880061e 	bne	r3,r2,80eefc <altera_avalon_uart_txirq+0x11c>
  80eee4:	e0bffc17 	ldw	r2,-16(fp)
  80eee8:	10c00117 	ldw	r3,4(r2)
  80eeec:	00beefc4 	movi	r2,-1089
  80eef0:	1886703a 	and	r3,r3,r2
  80eef4:	e0bffc17 	ldw	r2,-16(fp)
  80eef8:	10c00115 	stw	r3,4(r2)
  80eefc:	e0bffc17 	ldw	r2,-16(fp)
  80ef00:	10800017 	ldw	r2,0(r2)
  80ef04:	10800304 	addi	r2,r2,12
  80ef08:	e0fffc17 	ldw	r3,-16(fp)
  80ef0c:	18c00117 	ldw	r3,4(r3)
  80ef10:	10c00035 	stwio	r3,0(r2)
  80ef14:	e037883a 	mov	sp,fp
  80ef18:	df000017 	ldw	fp,0(sp)
  80ef1c:	dec00104 	addi	sp,sp,4
  80ef20:	f800283a 	ret

0080ef24 <altera_avalon_uart_close>:
  80ef24:	defffd04 	addi	sp,sp,-12
  80ef28:	df000215 	stw	fp,8(sp)
  80ef2c:	df000204 	addi	fp,sp,8
  80ef30:	e13ffe15 	stw	r4,-8(fp)
  80ef34:	e17fff15 	stw	r5,-4(fp)
  80ef38:	00000506 	br	80ef50 <altera_avalon_uart_close+0x2c>
  80ef3c:	e0bfff17 	ldw	r2,-4(fp)
  80ef40:	1090000c 	andi	r2,r2,16384
  80ef44:	10000226 	beq	r2,zero,80ef50 <altera_avalon_uart_close+0x2c>
  80ef48:	00bffd44 	movi	r2,-11
  80ef4c:	00000606 	br	80ef68 <altera_avalon_uart_close+0x44>
  80ef50:	e0bffe17 	ldw	r2,-8(fp)
  80ef54:	10c00417 	ldw	r3,16(r2)
  80ef58:	e0bffe17 	ldw	r2,-8(fp)
  80ef5c:	10800517 	ldw	r2,20(r2)
  80ef60:	18bff61e 	bne	r3,r2,80ef3c <__alt_data_end+0xff80ef3c>
  80ef64:	0005883a 	mov	r2,zero
  80ef68:	e037883a 	mov	sp,fp
  80ef6c:	df000017 	ldw	fp,0(sp)
  80ef70:	dec00104 	addi	sp,sp,4
  80ef74:	f800283a 	ret

0080ef78 <alt_get_errno>:
  80ef78:	defffe04 	addi	sp,sp,-8
  80ef7c:	dfc00115 	stw	ra,4(sp)
  80ef80:	df000015 	stw	fp,0(sp)
  80ef84:	d839883a 	mov	fp,sp
  80ef88:	00802074 	movhi	r2,129
  80ef8c:	10889c04 	addi	r2,r2,8816
  80ef90:	10800017 	ldw	r2,0(r2)
  80ef94:	10000526 	beq	r2,zero,80efac <alt_get_errno+0x34>
  80ef98:	00802074 	movhi	r2,129
  80ef9c:	10889c04 	addi	r2,r2,8816
  80efa0:	10800017 	ldw	r2,0(r2)
  80efa4:	103ee83a 	callr	r2
  80efa8:	00000206 	br	80efb4 <alt_get_errno+0x3c>
  80efac:	00802074 	movhi	r2,129
  80efb0:	108bd304 	addi	r2,r2,12108
  80efb4:	e037883a 	mov	sp,fp
  80efb8:	dfc00117 	ldw	ra,4(sp)
  80efbc:	df000017 	ldw	fp,0(sp)
  80efc0:	dec00204 	addi	sp,sp,8
  80efc4:	f800283a 	ret

0080efc8 <altera_avalon_uart_read>:
  80efc8:	defff204 	addi	sp,sp,-56
  80efcc:	dfc00d15 	stw	ra,52(sp)
  80efd0:	df000c15 	stw	fp,48(sp)
  80efd4:	df000c04 	addi	fp,sp,48
  80efd8:	e13ffc15 	stw	r4,-16(fp)
  80efdc:	e17ffd15 	stw	r5,-12(fp)
  80efe0:	e1bffe15 	stw	r6,-8(fp)
  80efe4:	e1ffff15 	stw	r7,-4(fp)
  80efe8:	e03ff405 	stb	zero,-48(fp)
  80efec:	e03ff515 	stw	zero,-44(fp)
  80eff0:	e0bfff17 	ldw	r2,-4(fp)
  80eff4:	1090000c 	andi	r2,r2,16384
  80eff8:	1005003a 	cmpeq	r2,r2,zero
  80effc:	10803fcc 	andi	r2,r2,255
  80f000:	e0bff615 	stw	r2,-40(fp)
  80f004:	00001306 	br	80f054 <altera_avalon_uart_read+0x8c>
  80f008:	e0bff517 	ldw	r2,-44(fp)
  80f00c:	10800044 	addi	r2,r2,1
  80f010:	e0bff515 	stw	r2,-44(fp)
  80f014:	e0bffd17 	ldw	r2,-12(fp)
  80f018:	10c00044 	addi	r3,r2,1
  80f01c:	e0fffd15 	stw	r3,-12(fp)
  80f020:	e0fffc17 	ldw	r3,-16(fp)
  80f024:	18c00217 	ldw	r3,8(r3)
  80f028:	e13ffc17 	ldw	r4,-16(fp)
  80f02c:	20c7883a 	add	r3,r4,r3
  80f030:	18c00704 	addi	r3,r3,28
  80f034:	18c00003 	ldbu	r3,0(r3)
  80f038:	10c00005 	stb	r3,0(r2)
  80f03c:	e0bffc17 	ldw	r2,-16(fp)
  80f040:	10800217 	ldw	r2,8(r2)
  80f044:	10800044 	addi	r2,r2,1
  80f048:	10c00fcc 	andi	r3,r2,63
  80f04c:	e0bffc17 	ldw	r2,-16(fp)
  80f050:	10c00215 	stw	r3,8(r2)
  80f054:	e0fff517 	ldw	r3,-44(fp)
  80f058:	e0bffe17 	ldw	r2,-8(fp)
  80f05c:	1880050e 	bge	r3,r2,80f074 <altera_avalon_uart_read+0xac>
  80f060:	e0bffc17 	ldw	r2,-16(fp)
  80f064:	10c00217 	ldw	r3,8(r2)
  80f068:	e0bffc17 	ldw	r2,-16(fp)
  80f06c:	10800317 	ldw	r2,12(r2)
  80f070:	18bfe51e 	bne	r3,r2,80f008 <__alt_data_end+0xff80f008>
  80f074:	e0bff517 	ldw	r2,-44(fp)
  80f078:	1000251e 	bne	r2,zero,80f110 <altera_avalon_uart_read+0x148>
  80f07c:	e0bffc17 	ldw	r2,-16(fp)
  80f080:	10c00217 	ldw	r3,8(r2)
  80f084:	e0bffc17 	ldw	r2,-16(fp)
  80f088:	10800317 	ldw	r2,12(r2)
  80f08c:	1880201e 	bne	r3,r2,80f110 <altera_avalon_uart_read+0x148>
  80f090:	e0bff617 	ldw	r2,-40(fp)
  80f094:	1000071e 	bne	r2,zero,80f0b4 <altera_avalon_uart_read+0xec>
  80f098:	080ef780 	call	80ef78 <alt_get_errno>
  80f09c:	1007883a 	mov	r3,r2
  80f0a0:	008002c4 	movi	r2,11
  80f0a4:	18800015 	stw	r2,0(r3)
  80f0a8:	00800044 	movi	r2,1
  80f0ac:	e0bff405 	stb	r2,-48(fp)
  80f0b0:	00001b06 	br	80f120 <altera_avalon_uart_read+0x158>
  80f0b4:	0005303a 	rdctl	r2,status
  80f0b8:	e0bff815 	stw	r2,-32(fp)
  80f0bc:	e0fff817 	ldw	r3,-32(fp)
  80f0c0:	00bfff84 	movi	r2,-2
  80f0c4:	1884703a 	and	r2,r3,r2
  80f0c8:	1001703a 	wrctl	status,r2
  80f0cc:	e0bff817 	ldw	r2,-32(fp)
  80f0d0:	e0bff715 	stw	r2,-36(fp)
  80f0d4:	e0bffc17 	ldw	r2,-16(fp)
  80f0d8:	10800117 	ldw	r2,4(r2)
  80f0dc:	10c02014 	ori	r3,r2,128
  80f0e0:	e0bffc17 	ldw	r2,-16(fp)
  80f0e4:	10c00115 	stw	r3,4(r2)
  80f0e8:	e0bffc17 	ldw	r2,-16(fp)
  80f0ec:	10800017 	ldw	r2,0(r2)
  80f0f0:	10800304 	addi	r2,r2,12
  80f0f4:	e0fffc17 	ldw	r3,-16(fp)
  80f0f8:	18c00117 	ldw	r3,4(r3)
  80f0fc:	10c00035 	stwio	r3,0(r2)
  80f100:	e0bff717 	ldw	r2,-36(fp)
  80f104:	e0bff915 	stw	r2,-28(fp)
  80f108:	e0bff917 	ldw	r2,-28(fp)
  80f10c:	1001703a 	wrctl	status,r2
  80f110:	e0bff517 	ldw	r2,-44(fp)
  80f114:	1000021e 	bne	r2,zero,80f120 <altera_avalon_uart_read+0x158>
  80f118:	e0bffe17 	ldw	r2,-8(fp)
  80f11c:	103fb91e 	bne	r2,zero,80f004 <__alt_data_end+0xff80f004>
  80f120:	0005303a 	rdctl	r2,status
  80f124:	e0bffa15 	stw	r2,-24(fp)
  80f128:	e0fffa17 	ldw	r3,-24(fp)
  80f12c:	00bfff84 	movi	r2,-2
  80f130:	1884703a 	and	r2,r3,r2
  80f134:	1001703a 	wrctl	status,r2
  80f138:	e0bffa17 	ldw	r2,-24(fp)
  80f13c:	e0bff715 	stw	r2,-36(fp)
  80f140:	e0bffc17 	ldw	r2,-16(fp)
  80f144:	10800117 	ldw	r2,4(r2)
  80f148:	10c02014 	ori	r3,r2,128
  80f14c:	e0bffc17 	ldw	r2,-16(fp)
  80f150:	10c00115 	stw	r3,4(r2)
  80f154:	e0bffc17 	ldw	r2,-16(fp)
  80f158:	10800017 	ldw	r2,0(r2)
  80f15c:	10800304 	addi	r2,r2,12
  80f160:	e0fffc17 	ldw	r3,-16(fp)
  80f164:	18c00117 	ldw	r3,4(r3)
  80f168:	10c00035 	stwio	r3,0(r2)
  80f16c:	e0bff717 	ldw	r2,-36(fp)
  80f170:	e0bffb15 	stw	r2,-20(fp)
  80f174:	e0bffb17 	ldw	r2,-20(fp)
  80f178:	1001703a 	wrctl	status,r2
  80f17c:	e0bff403 	ldbu	r2,-48(fp)
  80f180:	10000226 	beq	r2,zero,80f18c <altera_avalon_uart_read+0x1c4>
  80f184:	00bffd44 	movi	r2,-11
  80f188:	00000106 	br	80f190 <altera_avalon_uart_read+0x1c8>
  80f18c:	e0bff517 	ldw	r2,-44(fp)
  80f190:	e037883a 	mov	sp,fp
  80f194:	dfc00117 	ldw	ra,4(sp)
  80f198:	df000017 	ldw	fp,0(sp)
  80f19c:	dec00204 	addi	sp,sp,8
  80f1a0:	f800283a 	ret

0080f1a4 <alt_get_errno>:
  80f1a4:	defffe04 	addi	sp,sp,-8
  80f1a8:	dfc00115 	stw	ra,4(sp)
  80f1ac:	df000015 	stw	fp,0(sp)
  80f1b0:	d839883a 	mov	fp,sp
  80f1b4:	00802074 	movhi	r2,129
  80f1b8:	10889c04 	addi	r2,r2,8816
  80f1bc:	10800017 	ldw	r2,0(r2)
  80f1c0:	10000526 	beq	r2,zero,80f1d8 <alt_get_errno+0x34>
  80f1c4:	00802074 	movhi	r2,129
  80f1c8:	10889c04 	addi	r2,r2,8816
  80f1cc:	10800017 	ldw	r2,0(r2)
  80f1d0:	103ee83a 	callr	r2
  80f1d4:	00000206 	br	80f1e0 <alt_get_errno+0x3c>
  80f1d8:	00802074 	movhi	r2,129
  80f1dc:	108bd304 	addi	r2,r2,12108
  80f1e0:	e037883a 	mov	sp,fp
  80f1e4:	dfc00117 	ldw	ra,4(sp)
  80f1e8:	df000017 	ldw	fp,0(sp)
  80f1ec:	dec00204 	addi	sp,sp,8
  80f1f0:	f800283a 	ret

0080f1f4 <altera_avalon_uart_write>:
  80f1f4:	defff204 	addi	sp,sp,-56
  80f1f8:	dfc00d15 	stw	ra,52(sp)
  80f1fc:	df000c15 	stw	fp,48(sp)
  80f200:	df000c04 	addi	fp,sp,48
  80f204:	e13ffc15 	stw	r4,-16(fp)
  80f208:	e17ffd15 	stw	r5,-12(fp)
  80f20c:	e1bffe15 	stw	r6,-8(fp)
  80f210:	e1ffff15 	stw	r7,-4(fp)
  80f214:	e0bffe17 	ldw	r2,-8(fp)
  80f218:	e0bff415 	stw	r2,-48(fp)
  80f21c:	e0bfff17 	ldw	r2,-4(fp)
  80f220:	1090000c 	andi	r2,r2,16384
  80f224:	e0bff515 	stw	r2,-44(fp)
  80f228:	00003c06 	br	80f31c <altera_avalon_uart_write+0x128>
  80f22c:	e0bffc17 	ldw	r2,-16(fp)
  80f230:	10800517 	ldw	r2,20(r2)
  80f234:	10800044 	addi	r2,r2,1
  80f238:	10800fcc 	andi	r2,r2,63
  80f23c:	e0bff615 	stw	r2,-40(fp)
  80f240:	e0bffc17 	ldw	r2,-16(fp)
  80f244:	10c00417 	ldw	r3,16(r2)
  80f248:	e0bff617 	ldw	r2,-40(fp)
  80f24c:	1880221e 	bne	r3,r2,80f2d8 <altera_avalon_uart_write+0xe4>
  80f250:	e0bff517 	ldw	r2,-44(fp)
  80f254:	10000526 	beq	r2,zero,80f26c <altera_avalon_uart_write+0x78>
  80f258:	080f1a40 	call	80f1a4 <alt_get_errno>
  80f25c:	1007883a 	mov	r3,r2
  80f260:	008002c4 	movi	r2,11
  80f264:	18800015 	stw	r2,0(r3)
  80f268:	00002e06 	br	80f324 <altera_avalon_uart_write+0x130>
  80f26c:	0005303a 	rdctl	r2,status
  80f270:	e0bff815 	stw	r2,-32(fp)
  80f274:	e0fff817 	ldw	r3,-32(fp)
  80f278:	00bfff84 	movi	r2,-2
  80f27c:	1884703a 	and	r2,r3,r2
  80f280:	1001703a 	wrctl	status,r2
  80f284:	e0bff817 	ldw	r2,-32(fp)
  80f288:	e0bff715 	stw	r2,-36(fp)
  80f28c:	e0bffc17 	ldw	r2,-16(fp)
  80f290:	10800117 	ldw	r2,4(r2)
  80f294:	10c11014 	ori	r3,r2,1088
  80f298:	e0bffc17 	ldw	r2,-16(fp)
  80f29c:	10c00115 	stw	r3,4(r2)
  80f2a0:	e0bffc17 	ldw	r2,-16(fp)
  80f2a4:	10800017 	ldw	r2,0(r2)
  80f2a8:	10800304 	addi	r2,r2,12
  80f2ac:	e0fffc17 	ldw	r3,-16(fp)
  80f2b0:	18c00117 	ldw	r3,4(r3)
  80f2b4:	10c00035 	stwio	r3,0(r2)
  80f2b8:	e0bff717 	ldw	r2,-36(fp)
  80f2bc:	e0bff915 	stw	r2,-28(fp)
  80f2c0:	e0bff917 	ldw	r2,-28(fp)
  80f2c4:	1001703a 	wrctl	status,r2
  80f2c8:	e0bffc17 	ldw	r2,-16(fp)
  80f2cc:	10c00417 	ldw	r3,16(r2)
  80f2d0:	e0bff617 	ldw	r2,-40(fp)
  80f2d4:	18bffc26 	beq	r3,r2,80f2c8 <__alt_data_end+0xff80f2c8>
  80f2d8:	e0bff417 	ldw	r2,-48(fp)
  80f2dc:	10bfffc4 	addi	r2,r2,-1
  80f2e0:	e0bff415 	stw	r2,-48(fp)
  80f2e4:	e0bffc17 	ldw	r2,-16(fp)
  80f2e8:	10c00517 	ldw	r3,20(r2)
  80f2ec:	e0bffd17 	ldw	r2,-12(fp)
  80f2f0:	11000044 	addi	r4,r2,1
  80f2f4:	e13ffd15 	stw	r4,-12(fp)
  80f2f8:	10800003 	ldbu	r2,0(r2)
  80f2fc:	1009883a 	mov	r4,r2
  80f300:	e0bffc17 	ldw	r2,-16(fp)
  80f304:	10c5883a 	add	r2,r2,r3
  80f308:	10801704 	addi	r2,r2,92
  80f30c:	11000005 	stb	r4,0(r2)
  80f310:	e0bffc17 	ldw	r2,-16(fp)
  80f314:	e0fff617 	ldw	r3,-40(fp)
  80f318:	10c00515 	stw	r3,20(r2)
  80f31c:	e0bff417 	ldw	r2,-48(fp)
  80f320:	103fc21e 	bne	r2,zero,80f22c <__alt_data_end+0xff80f22c>
  80f324:	0005303a 	rdctl	r2,status
  80f328:	e0bffa15 	stw	r2,-24(fp)
  80f32c:	e0fffa17 	ldw	r3,-24(fp)
  80f330:	00bfff84 	movi	r2,-2
  80f334:	1884703a 	and	r2,r3,r2
  80f338:	1001703a 	wrctl	status,r2
  80f33c:	e0bffa17 	ldw	r2,-24(fp)
  80f340:	e0bff715 	stw	r2,-36(fp)
  80f344:	e0bffc17 	ldw	r2,-16(fp)
  80f348:	10800117 	ldw	r2,4(r2)
  80f34c:	10c11014 	ori	r3,r2,1088
  80f350:	e0bffc17 	ldw	r2,-16(fp)
  80f354:	10c00115 	stw	r3,4(r2)
  80f358:	e0bffc17 	ldw	r2,-16(fp)
  80f35c:	10800017 	ldw	r2,0(r2)
  80f360:	10800304 	addi	r2,r2,12
  80f364:	e0fffc17 	ldw	r3,-16(fp)
  80f368:	18c00117 	ldw	r3,4(r3)
  80f36c:	10c00035 	stwio	r3,0(r2)
  80f370:	e0bff717 	ldw	r2,-36(fp)
  80f374:	e0bffb15 	stw	r2,-20(fp)
  80f378:	e0bffb17 	ldw	r2,-20(fp)
  80f37c:	1001703a 	wrctl	status,r2
  80f380:	e0fffe17 	ldw	r3,-8(fp)
  80f384:	e0bff417 	ldw	r2,-48(fp)
  80f388:	1885c83a 	sub	r2,r3,r2
  80f38c:	e037883a 	mov	sp,fp
  80f390:	dfc00117 	ldw	ra,4(sp)
  80f394:	df000017 	ldw	fp,0(sp)
  80f398:	dec00204 	addi	sp,sp,8
  80f39c:	f800283a 	ret

0080f3a0 <alt_up_audio_open_dev>:
  80f3a0:	defffc04 	addi	sp,sp,-16
  80f3a4:	dfc00315 	stw	ra,12(sp)
  80f3a8:	df000215 	stw	fp,8(sp)
  80f3ac:	df000204 	addi	fp,sp,8
  80f3b0:	e13fff15 	stw	r4,-4(fp)
  80f3b4:	e13fff17 	ldw	r4,-4(fp)
  80f3b8:	01402074 	movhi	r5,129
  80f3bc:	29489904 	addi	r5,r5,8804
  80f3c0:	080fd240 	call	80fd24 <alt_find_dev>
  80f3c4:	e0bffe15 	stw	r2,-8(fp)
  80f3c8:	e0bffe17 	ldw	r2,-8(fp)
  80f3cc:	e037883a 	mov	sp,fp
  80f3d0:	dfc00117 	ldw	ra,4(sp)
  80f3d4:	df000017 	ldw	fp,0(sp)
  80f3d8:	dec00204 	addi	sp,sp,8
  80f3dc:	f800283a 	ret

0080f3e0 <alt_up_audio_enable_read_interrupt>:
  80f3e0:	defffd04 	addi	sp,sp,-12
  80f3e4:	df000215 	stw	fp,8(sp)
  80f3e8:	df000204 	addi	fp,sp,8
  80f3ec:	e13fff15 	stw	r4,-4(fp)
  80f3f0:	e0bfff17 	ldw	r2,-4(fp)
  80f3f4:	10800a17 	ldw	r2,40(r2)
  80f3f8:	10800037 	ldwio	r2,0(r2)
  80f3fc:	e0bffe15 	stw	r2,-8(fp)
  80f400:	e0bffe17 	ldw	r2,-8(fp)
  80f404:	10800054 	ori	r2,r2,1
  80f408:	e0bffe15 	stw	r2,-8(fp)
  80f40c:	e0bfff17 	ldw	r2,-4(fp)
  80f410:	10800a17 	ldw	r2,40(r2)
  80f414:	1007883a 	mov	r3,r2
  80f418:	e0bffe17 	ldw	r2,-8(fp)
  80f41c:	18800035 	stwio	r2,0(r3)
  80f420:	e037883a 	mov	sp,fp
  80f424:	df000017 	ldw	fp,0(sp)
  80f428:	dec00104 	addi	sp,sp,4
  80f42c:	f800283a 	ret

0080f430 <alt_up_audio_disable_read_interrupt>:
  80f430:	defffd04 	addi	sp,sp,-12
  80f434:	df000215 	stw	fp,8(sp)
  80f438:	df000204 	addi	fp,sp,8
  80f43c:	e13fff15 	stw	r4,-4(fp)
  80f440:	e0bfff17 	ldw	r2,-4(fp)
  80f444:	10800a17 	ldw	r2,40(r2)
  80f448:	10800037 	ldwio	r2,0(r2)
  80f44c:	e0bffe15 	stw	r2,-8(fp)
  80f450:	e0fffe17 	ldw	r3,-8(fp)
  80f454:	00bfff84 	movi	r2,-2
  80f458:	1884703a 	and	r2,r3,r2
  80f45c:	e0bffe15 	stw	r2,-8(fp)
  80f460:	e0bfff17 	ldw	r2,-4(fp)
  80f464:	10800a17 	ldw	r2,40(r2)
  80f468:	1007883a 	mov	r3,r2
  80f46c:	e0bffe17 	ldw	r2,-8(fp)
  80f470:	18800035 	stwio	r2,0(r3)
  80f474:	e037883a 	mov	sp,fp
  80f478:	df000017 	ldw	fp,0(sp)
  80f47c:	dec00104 	addi	sp,sp,4
  80f480:	f800283a 	ret

0080f484 <alt_up_audio_enable_write_interrupt>:
  80f484:	defffd04 	addi	sp,sp,-12
  80f488:	df000215 	stw	fp,8(sp)
  80f48c:	df000204 	addi	fp,sp,8
  80f490:	e13fff15 	stw	r4,-4(fp)
  80f494:	e0bfff17 	ldw	r2,-4(fp)
  80f498:	10800a17 	ldw	r2,40(r2)
  80f49c:	10800037 	ldwio	r2,0(r2)
  80f4a0:	e0bffe15 	stw	r2,-8(fp)
  80f4a4:	e0bffe17 	ldw	r2,-8(fp)
  80f4a8:	10800094 	ori	r2,r2,2
  80f4ac:	e0bffe15 	stw	r2,-8(fp)
  80f4b0:	e0bfff17 	ldw	r2,-4(fp)
  80f4b4:	10800a17 	ldw	r2,40(r2)
  80f4b8:	1007883a 	mov	r3,r2
  80f4bc:	e0bffe17 	ldw	r2,-8(fp)
  80f4c0:	18800035 	stwio	r2,0(r3)
  80f4c4:	e037883a 	mov	sp,fp
  80f4c8:	df000017 	ldw	fp,0(sp)
  80f4cc:	dec00104 	addi	sp,sp,4
  80f4d0:	f800283a 	ret

0080f4d4 <alt_up_audio_disable_write_interrupt>:
  80f4d4:	defffd04 	addi	sp,sp,-12
  80f4d8:	df000215 	stw	fp,8(sp)
  80f4dc:	df000204 	addi	fp,sp,8
  80f4e0:	e13fff15 	stw	r4,-4(fp)
  80f4e4:	e0bfff17 	ldw	r2,-4(fp)
  80f4e8:	10800a17 	ldw	r2,40(r2)
  80f4ec:	10800037 	ldwio	r2,0(r2)
  80f4f0:	e0bffe15 	stw	r2,-8(fp)
  80f4f4:	e0fffe17 	ldw	r3,-8(fp)
  80f4f8:	00bfff44 	movi	r2,-3
  80f4fc:	1884703a 	and	r2,r3,r2
  80f500:	e0bffe15 	stw	r2,-8(fp)
  80f504:	e0bfff17 	ldw	r2,-4(fp)
  80f508:	10800a17 	ldw	r2,40(r2)
  80f50c:	1007883a 	mov	r3,r2
  80f510:	e0bffe17 	ldw	r2,-8(fp)
  80f514:	18800035 	stwio	r2,0(r3)
  80f518:	e037883a 	mov	sp,fp
  80f51c:	df000017 	ldw	fp,0(sp)
  80f520:	dec00104 	addi	sp,sp,4
  80f524:	f800283a 	ret

0080f528 <alt_up_audio_read_interrupt_pending>:
  80f528:	defffd04 	addi	sp,sp,-12
  80f52c:	df000215 	stw	fp,8(sp)
  80f530:	df000204 	addi	fp,sp,8
  80f534:	e13fff15 	stw	r4,-4(fp)
  80f538:	e0bfff17 	ldw	r2,-4(fp)
  80f53c:	10800a17 	ldw	r2,40(r2)
  80f540:	10800037 	ldwio	r2,0(r2)
  80f544:	e0bffe15 	stw	r2,-8(fp)
  80f548:	e0bffe17 	ldw	r2,-8(fp)
  80f54c:	1080400c 	andi	r2,r2,256
  80f550:	1004c03a 	cmpne	r2,r2,zero
  80f554:	10803fcc 	andi	r2,r2,255
  80f558:	e037883a 	mov	sp,fp
  80f55c:	df000017 	ldw	fp,0(sp)
  80f560:	dec00104 	addi	sp,sp,4
  80f564:	f800283a 	ret

0080f568 <alt_up_audio_write_interrupt_pending>:
  80f568:	defffd04 	addi	sp,sp,-12
  80f56c:	df000215 	stw	fp,8(sp)
  80f570:	df000204 	addi	fp,sp,8
  80f574:	e13fff15 	stw	r4,-4(fp)
  80f578:	e0bfff17 	ldw	r2,-4(fp)
  80f57c:	10800a17 	ldw	r2,40(r2)
  80f580:	10800037 	ldwio	r2,0(r2)
  80f584:	e0bffe15 	stw	r2,-8(fp)
  80f588:	e0bffe17 	ldw	r2,-8(fp)
  80f58c:	1080800c 	andi	r2,r2,512
  80f590:	1004c03a 	cmpne	r2,r2,zero
  80f594:	10803fcc 	andi	r2,r2,255
  80f598:	e037883a 	mov	sp,fp
  80f59c:	df000017 	ldw	fp,0(sp)
  80f5a0:	dec00104 	addi	sp,sp,4
  80f5a4:	f800283a 	ret

0080f5a8 <alt_up_audio_reset_audio_core>:
  80f5a8:	defffd04 	addi	sp,sp,-12
  80f5ac:	df000215 	stw	fp,8(sp)
  80f5b0:	df000204 	addi	fp,sp,8
  80f5b4:	e13fff15 	stw	r4,-4(fp)
  80f5b8:	e0bfff17 	ldw	r2,-4(fp)
  80f5bc:	10800a17 	ldw	r2,40(r2)
  80f5c0:	10800037 	ldwio	r2,0(r2)
  80f5c4:	e0bffe15 	stw	r2,-8(fp)
  80f5c8:	e0bffe17 	ldw	r2,-8(fp)
  80f5cc:	10800114 	ori	r2,r2,4
  80f5d0:	e0bffe15 	stw	r2,-8(fp)
  80f5d4:	e0bffe17 	ldw	r2,-8(fp)
  80f5d8:	10800214 	ori	r2,r2,8
  80f5dc:	e0bffe15 	stw	r2,-8(fp)
  80f5e0:	e0bfff17 	ldw	r2,-4(fp)
  80f5e4:	10800a17 	ldw	r2,40(r2)
  80f5e8:	1007883a 	mov	r3,r2
  80f5ec:	e0bffe17 	ldw	r2,-8(fp)
  80f5f0:	18800035 	stwio	r2,0(r3)
  80f5f4:	e0fffe17 	ldw	r3,-8(fp)
  80f5f8:	00bffec4 	movi	r2,-5
  80f5fc:	1884703a 	and	r2,r3,r2
  80f600:	e0bffe15 	stw	r2,-8(fp)
  80f604:	e0fffe17 	ldw	r3,-8(fp)
  80f608:	00bffdc4 	movi	r2,-9
  80f60c:	1884703a 	and	r2,r3,r2
  80f610:	e0bffe15 	stw	r2,-8(fp)
  80f614:	e0bfff17 	ldw	r2,-4(fp)
  80f618:	10800a17 	ldw	r2,40(r2)
  80f61c:	1007883a 	mov	r3,r2
  80f620:	e0bffe17 	ldw	r2,-8(fp)
  80f624:	18800035 	stwio	r2,0(r3)
  80f628:	e037883a 	mov	sp,fp
  80f62c:	df000017 	ldw	fp,0(sp)
  80f630:	dec00104 	addi	sp,sp,4
  80f634:	f800283a 	ret

0080f638 <alt_up_audio_read_fifo_avail>:
  80f638:	defffc04 	addi	sp,sp,-16
  80f63c:	df000315 	stw	fp,12(sp)
  80f640:	df000304 	addi	fp,sp,12
  80f644:	e13ffe15 	stw	r4,-8(fp)
  80f648:	e17fff15 	stw	r5,-4(fp)
  80f64c:	e0bffe17 	ldw	r2,-8(fp)
  80f650:	10800a17 	ldw	r2,40(r2)
  80f654:	10800104 	addi	r2,r2,4
  80f658:	10800037 	ldwio	r2,0(r2)
  80f65c:	e0bffd15 	stw	r2,-12(fp)
  80f660:	e0bfff17 	ldw	r2,-4(fp)
  80f664:	1000041e 	bne	r2,zero,80f678 <alt_up_audio_read_fifo_avail+0x40>
  80f668:	e0bffd17 	ldw	r2,-12(fp)
  80f66c:	10bfc00c 	andi	r2,r2,65280
  80f670:	1004d23a 	srli	r2,r2,8
  80f674:	00000206 	br	80f680 <alt_up_audio_read_fifo_avail+0x48>
  80f678:	e0bffd17 	ldw	r2,-12(fp)
  80f67c:	10803fcc 	andi	r2,r2,255
  80f680:	e0bffd15 	stw	r2,-12(fp)
  80f684:	e0bffd17 	ldw	r2,-12(fp)
  80f688:	e037883a 	mov	sp,fp
  80f68c:	df000017 	ldw	fp,0(sp)
  80f690:	dec00104 	addi	sp,sp,4
  80f694:	f800283a 	ret

0080f698 <alt_up_audio_record_r>:
  80f698:	defffa04 	addi	sp,sp,-24
  80f69c:	dfc00515 	stw	ra,20(sp)
  80f6a0:	df000415 	stw	fp,16(sp)
  80f6a4:	df000404 	addi	fp,sp,16
  80f6a8:	e13ffd15 	stw	r4,-12(fp)
  80f6ac:	e17ffe15 	stw	r5,-8(fp)
  80f6b0:	e1bfff15 	stw	r6,-4(fp)
  80f6b4:	e13ffd17 	ldw	r4,-12(fp)
  80f6b8:	01400044 	movi	r5,1
  80f6bc:	080f6380 	call	80f638 <alt_up_audio_read_fifo_avail>
  80f6c0:	e0bffc15 	stw	r2,-16(fp)
  80f6c4:	e0bffc17 	ldw	r2,-16(fp)
  80f6c8:	10801868 	cmpgeui	r2,r2,97
  80f6cc:	1000021e 	bne	r2,zero,80f6d8 <alt_up_audio_record_r+0x40>
  80f6d0:	0005883a 	mov	r2,zero
  80f6d4:	00000506 	br	80f6ec <alt_up_audio_record_r+0x54>
  80f6d8:	e13ffd17 	ldw	r4,-12(fp)
  80f6dc:	e17ffe17 	ldw	r5,-8(fp)
  80f6e0:	e1bfff17 	ldw	r6,-4(fp)
  80f6e4:	01c00044 	movi	r7,1
  80f6e8:	080f8980 	call	80f898 <alt_up_audio_read_fifo>
  80f6ec:	e037883a 	mov	sp,fp
  80f6f0:	dfc00117 	ldw	ra,4(sp)
  80f6f4:	df000017 	ldw	fp,0(sp)
  80f6f8:	dec00204 	addi	sp,sp,8
  80f6fc:	f800283a 	ret

0080f700 <alt_up_audio_record_l>:
  80f700:	defffa04 	addi	sp,sp,-24
  80f704:	dfc00515 	stw	ra,20(sp)
  80f708:	df000415 	stw	fp,16(sp)
  80f70c:	df000404 	addi	fp,sp,16
  80f710:	e13ffd15 	stw	r4,-12(fp)
  80f714:	e17ffe15 	stw	r5,-8(fp)
  80f718:	e1bfff15 	stw	r6,-4(fp)
  80f71c:	e13ffd17 	ldw	r4,-12(fp)
  80f720:	000b883a 	mov	r5,zero
  80f724:	080f6380 	call	80f638 <alt_up_audio_read_fifo_avail>
  80f728:	e0bffc15 	stw	r2,-16(fp)
  80f72c:	e0bffc17 	ldw	r2,-16(fp)
  80f730:	10801868 	cmpgeui	r2,r2,97
  80f734:	1000021e 	bne	r2,zero,80f740 <alt_up_audio_record_l+0x40>
  80f738:	0005883a 	mov	r2,zero
  80f73c:	00000506 	br	80f754 <alt_up_audio_record_l+0x54>
  80f740:	e13ffd17 	ldw	r4,-12(fp)
  80f744:	e17ffe17 	ldw	r5,-8(fp)
  80f748:	e1bfff17 	ldw	r6,-4(fp)
  80f74c:	000f883a 	mov	r7,zero
  80f750:	080f8980 	call	80f898 <alt_up_audio_read_fifo>
  80f754:	e037883a 	mov	sp,fp
  80f758:	dfc00117 	ldw	ra,4(sp)
  80f75c:	df000017 	ldw	fp,0(sp)
  80f760:	dec00204 	addi	sp,sp,8
  80f764:	f800283a 	ret

0080f768 <alt_up_audio_write_fifo_space>:
  80f768:	defffc04 	addi	sp,sp,-16
  80f76c:	df000315 	stw	fp,12(sp)
  80f770:	df000304 	addi	fp,sp,12
  80f774:	e13ffe15 	stw	r4,-8(fp)
  80f778:	e17fff15 	stw	r5,-4(fp)
  80f77c:	e0bffe17 	ldw	r2,-8(fp)
  80f780:	10800a17 	ldw	r2,40(r2)
  80f784:	10800104 	addi	r2,r2,4
  80f788:	10800037 	ldwio	r2,0(r2)
  80f78c:	e0bffd15 	stw	r2,-12(fp)
  80f790:	e0bfff17 	ldw	r2,-4(fp)
  80f794:	1000031e 	bne	r2,zero,80f7a4 <alt_up_audio_write_fifo_space+0x3c>
  80f798:	e0bffd17 	ldw	r2,-12(fp)
  80f79c:	1004d63a 	srli	r2,r2,24
  80f7a0:	00000306 	br	80f7b0 <alt_up_audio_write_fifo_space+0x48>
  80f7a4:	e0bffd17 	ldw	r2,-12(fp)
  80f7a8:	10803fec 	andhi	r2,r2,255
  80f7ac:	1004d43a 	srli	r2,r2,16
  80f7b0:	e0bffd15 	stw	r2,-12(fp)
  80f7b4:	e0bffd17 	ldw	r2,-12(fp)
  80f7b8:	e037883a 	mov	sp,fp
  80f7bc:	df000017 	ldw	fp,0(sp)
  80f7c0:	dec00104 	addi	sp,sp,4
  80f7c4:	f800283a 	ret

0080f7c8 <alt_up_audio_play_r>:
  80f7c8:	defffa04 	addi	sp,sp,-24
  80f7cc:	dfc00515 	stw	ra,20(sp)
  80f7d0:	df000415 	stw	fp,16(sp)
  80f7d4:	df000404 	addi	fp,sp,16
  80f7d8:	e13ffd15 	stw	r4,-12(fp)
  80f7dc:	e17ffe15 	stw	r5,-8(fp)
  80f7e0:	e1bfff15 	stw	r6,-4(fp)
  80f7e4:	e13ffd17 	ldw	r4,-12(fp)
  80f7e8:	01400044 	movi	r5,1
  80f7ec:	080f7680 	call	80f768 <alt_up_audio_write_fifo_space>
  80f7f0:	e0bffc15 	stw	r2,-16(fp)
  80f7f4:	e0bffc17 	ldw	r2,-16(fp)
  80f7f8:	10801868 	cmpgeui	r2,r2,97
  80f7fc:	1000021e 	bne	r2,zero,80f808 <alt_up_audio_play_r+0x40>
  80f800:	0005883a 	mov	r2,zero
  80f804:	00000506 	br	80f81c <alt_up_audio_play_r+0x54>
  80f808:	e13ffd17 	ldw	r4,-12(fp)
  80f80c:	e17ffe17 	ldw	r5,-8(fp)
  80f810:	e1bfff17 	ldw	r6,-4(fp)
  80f814:	01c00044 	movi	r7,1
  80f818:	080f9780 	call	80f978 <alt_up_audio_write_fifo>
  80f81c:	e037883a 	mov	sp,fp
  80f820:	dfc00117 	ldw	ra,4(sp)
  80f824:	df000017 	ldw	fp,0(sp)
  80f828:	dec00204 	addi	sp,sp,8
  80f82c:	f800283a 	ret

0080f830 <alt_up_audio_play_l>:
  80f830:	defffa04 	addi	sp,sp,-24
  80f834:	dfc00515 	stw	ra,20(sp)
  80f838:	df000415 	stw	fp,16(sp)
  80f83c:	df000404 	addi	fp,sp,16
  80f840:	e13ffd15 	stw	r4,-12(fp)
  80f844:	e17ffe15 	stw	r5,-8(fp)
  80f848:	e1bfff15 	stw	r6,-4(fp)
  80f84c:	e13ffd17 	ldw	r4,-12(fp)
  80f850:	000b883a 	mov	r5,zero
  80f854:	080f7680 	call	80f768 <alt_up_audio_write_fifo_space>
  80f858:	e0bffc15 	stw	r2,-16(fp)
  80f85c:	e0bffc17 	ldw	r2,-16(fp)
  80f860:	10801868 	cmpgeui	r2,r2,97
  80f864:	1000021e 	bne	r2,zero,80f870 <alt_up_audio_play_l+0x40>
  80f868:	0005883a 	mov	r2,zero
  80f86c:	00000506 	br	80f884 <alt_up_audio_play_l+0x54>
  80f870:	e13ffd17 	ldw	r4,-12(fp)
  80f874:	e17ffe17 	ldw	r5,-8(fp)
  80f878:	e1bfff17 	ldw	r6,-4(fp)
  80f87c:	000f883a 	mov	r7,zero
  80f880:	080f9780 	call	80f978 <alt_up_audio_write_fifo>
  80f884:	e037883a 	mov	sp,fp
  80f888:	dfc00117 	ldw	ra,4(sp)
  80f88c:	df000017 	ldw	fp,0(sp)
  80f890:	dec00204 	addi	sp,sp,8
  80f894:	f800283a 	ret

0080f898 <alt_up_audio_read_fifo>:
  80f898:	defff904 	addi	sp,sp,-28
  80f89c:	df000615 	stw	fp,24(sp)
  80f8a0:	df000604 	addi	fp,sp,24
  80f8a4:	e13ffc15 	stw	r4,-16(fp)
  80f8a8:	e17ffd15 	stw	r5,-12(fp)
  80f8ac:	e1bffe15 	stw	r6,-8(fp)
  80f8b0:	e1ffff15 	stw	r7,-4(fp)
  80f8b4:	e03ffa15 	stw	zero,-24(fp)
  80f8b8:	00002706 	br	80f958 <alt_up_audio_read_fifo+0xc0>
  80f8bc:	e0bffc17 	ldw	r2,-16(fp)
  80f8c0:	10800a17 	ldw	r2,40(r2)
  80f8c4:	10800104 	addi	r2,r2,4
  80f8c8:	10800037 	ldwio	r2,0(r2)
  80f8cc:	e0bffb15 	stw	r2,-20(fp)
  80f8d0:	e0bfff17 	ldw	r2,-4(fp)
  80f8d4:	1000041e 	bne	r2,zero,80f8e8 <alt_up_audio_read_fifo+0x50>
  80f8d8:	e0bffb17 	ldw	r2,-20(fp)
  80f8dc:	10bfc00c 	andi	r2,r2,65280
  80f8e0:	1004d23a 	srli	r2,r2,8
  80f8e4:	00000206 	br	80f8f0 <alt_up_audio_read_fifo+0x58>
  80f8e8:	e0bffb17 	ldw	r2,-20(fp)
  80f8ec:	10803fcc 	andi	r2,r2,255
  80f8f0:	e0bffb15 	stw	r2,-20(fp)
  80f8f4:	e0bffb17 	ldw	r2,-20(fp)
  80f8f8:	10001626 	beq	r2,zero,80f954 <alt_up_audio_read_fifo+0xbc>
  80f8fc:	e0bffa17 	ldw	r2,-24(fp)
  80f900:	1085883a 	add	r2,r2,r2
  80f904:	1085883a 	add	r2,r2,r2
  80f908:	1007883a 	mov	r3,r2
  80f90c:	e0bffd17 	ldw	r2,-12(fp)
  80f910:	10c5883a 	add	r2,r2,r3
  80f914:	e0ffff17 	ldw	r3,-4(fp)
  80f918:	1800051e 	bne	r3,zero,80f930 <alt_up_audio_read_fifo+0x98>
  80f91c:	e0fffc17 	ldw	r3,-16(fp)
  80f920:	18c00a17 	ldw	r3,40(r3)
  80f924:	18c00204 	addi	r3,r3,8
  80f928:	18c00037 	ldwio	r3,0(r3)
  80f92c:	00000406 	br	80f940 <alt_up_audio_read_fifo+0xa8>
  80f930:	e0fffc17 	ldw	r3,-16(fp)
  80f934:	18c00a17 	ldw	r3,40(r3)
  80f938:	18c00304 	addi	r3,r3,12
  80f93c:	18c00037 	ldwio	r3,0(r3)
  80f940:	10c00015 	stw	r3,0(r2)
  80f944:	e0bffa17 	ldw	r2,-24(fp)
  80f948:	10800044 	addi	r2,r2,1
  80f94c:	e0bffa15 	stw	r2,-24(fp)
  80f950:	00000106 	br	80f958 <alt_up_audio_read_fifo+0xc0>
  80f954:	00000306 	br	80f964 <alt_up_audio_read_fifo+0xcc>
  80f958:	e0fffa17 	ldw	r3,-24(fp)
  80f95c:	e0bffe17 	ldw	r2,-8(fp)
  80f960:	18bfd616 	blt	r3,r2,80f8bc <__alt_data_end+0xff80f8bc>
  80f964:	e0bffa17 	ldw	r2,-24(fp)
  80f968:	e037883a 	mov	sp,fp
  80f96c:	df000017 	ldw	fp,0(sp)
  80f970:	dec00104 	addi	sp,sp,4
  80f974:	f800283a 	ret

0080f978 <alt_up_audio_write_fifo>:
  80f978:	defff904 	addi	sp,sp,-28
  80f97c:	df000615 	stw	fp,24(sp)
  80f980:	df000604 	addi	fp,sp,24
  80f984:	e13ffc15 	stw	r4,-16(fp)
  80f988:	e17ffd15 	stw	r5,-12(fp)
  80f98c:	e1bffe15 	stw	r6,-8(fp)
  80f990:	e1ffff15 	stw	r7,-4(fp)
  80f994:	e03ffa15 	stw	zero,-24(fp)
  80f998:	00003106 	br	80fa60 <alt_up_audio_write_fifo+0xe8>
  80f99c:	e0bffc17 	ldw	r2,-16(fp)
  80f9a0:	10800a17 	ldw	r2,40(r2)
  80f9a4:	10800104 	addi	r2,r2,4
  80f9a8:	10800037 	ldwio	r2,0(r2)
  80f9ac:	e0bffb15 	stw	r2,-20(fp)
  80f9b0:	e0bfff17 	ldw	r2,-4(fp)
  80f9b4:	1000031e 	bne	r2,zero,80f9c4 <alt_up_audio_write_fifo+0x4c>
  80f9b8:	e0bffb17 	ldw	r2,-20(fp)
  80f9bc:	1004d63a 	srli	r2,r2,24
  80f9c0:	00000306 	br	80f9d0 <alt_up_audio_write_fifo+0x58>
  80f9c4:	e0bffb17 	ldw	r2,-20(fp)
  80f9c8:	10803fec 	andhi	r2,r2,255
  80f9cc:	1004d43a 	srli	r2,r2,16
  80f9d0:	e0bffb15 	stw	r2,-20(fp)
  80f9d4:	e0bffb17 	ldw	r2,-20(fp)
  80f9d8:	10002026 	beq	r2,zero,80fa5c <alt_up_audio_write_fifo+0xe4>
  80f9dc:	e0bfff17 	ldw	r2,-4(fp)
  80f9e0:	10000f1e 	bne	r2,zero,80fa20 <alt_up_audio_write_fifo+0xa8>
  80f9e4:	e0bffc17 	ldw	r2,-16(fp)
  80f9e8:	10800a17 	ldw	r2,40(r2)
  80f9ec:	10800204 	addi	r2,r2,8
  80f9f0:	1009883a 	mov	r4,r2
  80f9f4:	e0bffa17 	ldw	r2,-24(fp)
  80f9f8:	10c00044 	addi	r3,r2,1
  80f9fc:	e0fffa15 	stw	r3,-24(fp)
  80fa00:	1085883a 	add	r2,r2,r2
  80fa04:	1085883a 	add	r2,r2,r2
  80fa08:	1007883a 	mov	r3,r2
  80fa0c:	e0bffd17 	ldw	r2,-12(fp)
  80fa10:	10c5883a 	add	r2,r2,r3
  80fa14:	10800017 	ldw	r2,0(r2)
  80fa18:	20800035 	stwio	r2,0(r4)
  80fa1c:	00001006 	br	80fa60 <alt_up_audio_write_fifo+0xe8>
  80fa20:	e0bffc17 	ldw	r2,-16(fp)
  80fa24:	10800a17 	ldw	r2,40(r2)
  80fa28:	10800304 	addi	r2,r2,12
  80fa2c:	1009883a 	mov	r4,r2
  80fa30:	e0bffa17 	ldw	r2,-24(fp)
  80fa34:	10c00044 	addi	r3,r2,1
  80fa38:	e0fffa15 	stw	r3,-24(fp)
  80fa3c:	1085883a 	add	r2,r2,r2
  80fa40:	1085883a 	add	r2,r2,r2
  80fa44:	1007883a 	mov	r3,r2
  80fa48:	e0bffd17 	ldw	r2,-12(fp)
  80fa4c:	10c5883a 	add	r2,r2,r3
  80fa50:	10800017 	ldw	r2,0(r2)
  80fa54:	20800035 	stwio	r2,0(r4)
  80fa58:	00000106 	br	80fa60 <alt_up_audio_write_fifo+0xe8>
  80fa5c:	00000306 	br	80fa6c <alt_up_audio_write_fifo+0xf4>
  80fa60:	e0fffa17 	ldw	r3,-24(fp)
  80fa64:	e0bffe17 	ldw	r2,-8(fp)
  80fa68:	18bfcc16 	blt	r3,r2,80f99c <__alt_data_end+0xff80f99c>
  80fa6c:	e0bffa17 	ldw	r2,-24(fp)
  80fa70:	e037883a 	mov	sp,fp
  80fa74:	df000017 	ldw	fp,0(sp)
  80fa78:	dec00104 	addi	sp,sp,4
  80fa7c:	f800283a 	ret

0080fa80 <alt_up_audio_read_fifo_head>:
  80fa80:	defffd04 	addi	sp,sp,-12
  80fa84:	df000215 	stw	fp,8(sp)
  80fa88:	df000204 	addi	fp,sp,8
  80fa8c:	e13ffe15 	stw	r4,-8(fp)
  80fa90:	e17fff15 	stw	r5,-4(fp)
  80fa94:	e0bfff17 	ldw	r2,-4(fp)
  80fa98:	1000051e 	bne	r2,zero,80fab0 <alt_up_audio_read_fifo_head+0x30>
  80fa9c:	e0bffe17 	ldw	r2,-8(fp)
  80faa0:	10800a17 	ldw	r2,40(r2)
  80faa4:	10800204 	addi	r2,r2,8
  80faa8:	10800037 	ldwio	r2,0(r2)
  80faac:	00000406 	br	80fac0 <alt_up_audio_read_fifo_head+0x40>
  80fab0:	e0bffe17 	ldw	r2,-8(fp)
  80fab4:	10800a17 	ldw	r2,40(r2)
  80fab8:	10800304 	addi	r2,r2,12
  80fabc:	10800037 	ldwio	r2,0(r2)
  80fac0:	e037883a 	mov	sp,fp
  80fac4:	df000017 	ldw	fp,0(sp)
  80fac8:	dec00104 	addi	sp,sp,4
  80facc:	f800283a 	ret

0080fad0 <alt_up_audio_write_fifo_head>:
  80fad0:	defffc04 	addi	sp,sp,-16
  80fad4:	df000315 	stw	fp,12(sp)
  80fad8:	df000304 	addi	fp,sp,12
  80fadc:	e13ffd15 	stw	r4,-12(fp)
  80fae0:	e17ffe15 	stw	r5,-8(fp)
  80fae4:	e1bfff15 	stw	r6,-4(fp)
  80fae8:	e0bfff17 	ldw	r2,-4(fp)
  80faec:	1000071e 	bne	r2,zero,80fb0c <alt_up_audio_write_fifo_head+0x3c>
  80faf0:	e0bffd17 	ldw	r2,-12(fp)
  80faf4:	10800a17 	ldw	r2,40(r2)
  80faf8:	10800204 	addi	r2,r2,8
  80fafc:	1007883a 	mov	r3,r2
  80fb00:	e0bffe17 	ldw	r2,-8(fp)
  80fb04:	18800035 	stwio	r2,0(r3)
  80fb08:	00000606 	br	80fb24 <alt_up_audio_write_fifo_head+0x54>
  80fb0c:	e0bffd17 	ldw	r2,-12(fp)
  80fb10:	10800a17 	ldw	r2,40(r2)
  80fb14:	10800304 	addi	r2,r2,12
  80fb18:	1007883a 	mov	r3,r2
  80fb1c:	e0bffe17 	ldw	r2,-8(fp)
  80fb20:	18800035 	stwio	r2,0(r3)
  80fb24:	e037883a 	mov	sp,fp
  80fb28:	df000017 	ldw	fp,0(sp)
  80fb2c:	dec00104 	addi	sp,sp,4
  80fb30:	f800283a 	ret

0080fb34 <alt_dcache_flush_all>:
  80fb34:	defffe04 	addi	sp,sp,-8
  80fb38:	df000115 	stw	fp,4(sp)
  80fb3c:	df000104 	addi	fp,sp,4
  80fb40:	e03fff15 	stw	zero,-4(fp)
  80fb44:	00000506 	br	80fb5c <alt_dcache_flush_all+0x28>
  80fb48:	e0bfff17 	ldw	r2,-4(fp)
  80fb4c:	1000003b 	flushd	0(r2)
  80fb50:	e0bfff17 	ldw	r2,-4(fp)
  80fb54:	10800804 	addi	r2,r2,32
  80fb58:	e0bfff15 	stw	r2,-4(fp)
  80fb5c:	e0bfff17 	ldw	r2,-4(fp)
  80fb60:	10820030 	cmpltui	r2,r2,2048
  80fb64:	103ff81e 	bne	r2,zero,80fb48 <__alt_data_end+0xff80fb48>
  80fb68:	e037883a 	mov	sp,fp
  80fb6c:	df000017 	ldw	fp,0(sp)
  80fb70:	dec00104 	addi	sp,sp,4
  80fb74:	f800283a 	ret

0080fb78 <alt_get_errno>:
  80fb78:	defffe04 	addi	sp,sp,-8
  80fb7c:	dfc00115 	stw	ra,4(sp)
  80fb80:	df000015 	stw	fp,0(sp)
  80fb84:	d839883a 	mov	fp,sp
  80fb88:	00802074 	movhi	r2,129
  80fb8c:	10889c04 	addi	r2,r2,8816
  80fb90:	10800017 	ldw	r2,0(r2)
  80fb94:	10000526 	beq	r2,zero,80fbac <alt_get_errno+0x34>
  80fb98:	00802074 	movhi	r2,129
  80fb9c:	10889c04 	addi	r2,r2,8816
  80fba0:	10800017 	ldw	r2,0(r2)
  80fba4:	103ee83a 	callr	r2
  80fba8:	00000206 	br	80fbb4 <alt_get_errno+0x3c>
  80fbac:	00802074 	movhi	r2,129
  80fbb0:	108bd304 	addi	r2,r2,12108
  80fbb4:	e037883a 	mov	sp,fp
  80fbb8:	dfc00117 	ldw	ra,4(sp)
  80fbbc:	df000017 	ldw	fp,0(sp)
  80fbc0:	dec00204 	addi	sp,sp,8
  80fbc4:	f800283a 	ret

0080fbc8 <alt_dev_llist_insert>:
  80fbc8:	defffa04 	addi	sp,sp,-24
  80fbcc:	dfc00515 	stw	ra,20(sp)
  80fbd0:	df000415 	stw	fp,16(sp)
  80fbd4:	df000404 	addi	fp,sp,16
  80fbd8:	e13ffe15 	stw	r4,-8(fp)
  80fbdc:	e17fff15 	stw	r5,-4(fp)
  80fbe0:	e0bffe17 	ldw	r2,-8(fp)
  80fbe4:	10000326 	beq	r2,zero,80fbf4 <alt_dev_llist_insert+0x2c>
  80fbe8:	e0bffe17 	ldw	r2,-8(fp)
  80fbec:	10800217 	ldw	r2,8(r2)
  80fbf0:	1000061e 	bne	r2,zero,80fc0c <alt_dev_llist_insert+0x44>
  80fbf4:	080fb780 	call	80fb78 <alt_get_errno>
  80fbf8:	1007883a 	mov	r3,r2
  80fbfc:	00800584 	movi	r2,22
  80fc00:	18800015 	stw	r2,0(r3)
  80fc04:	00bffa84 	movi	r2,-22
  80fc08:	00001306 	br	80fc58 <alt_dev_llist_insert+0x90>
  80fc0c:	e0bffe17 	ldw	r2,-8(fp)
  80fc10:	e0ffff17 	ldw	r3,-4(fp)
  80fc14:	e0fffc15 	stw	r3,-16(fp)
  80fc18:	e0bffd15 	stw	r2,-12(fp)
  80fc1c:	e0bffd17 	ldw	r2,-12(fp)
  80fc20:	e0fffc17 	ldw	r3,-16(fp)
  80fc24:	10c00115 	stw	r3,4(r2)
  80fc28:	e0bffc17 	ldw	r2,-16(fp)
  80fc2c:	10c00017 	ldw	r3,0(r2)
  80fc30:	e0bffd17 	ldw	r2,-12(fp)
  80fc34:	10c00015 	stw	r3,0(r2)
  80fc38:	e0bffc17 	ldw	r2,-16(fp)
  80fc3c:	10800017 	ldw	r2,0(r2)
  80fc40:	e0fffd17 	ldw	r3,-12(fp)
  80fc44:	10c00115 	stw	r3,4(r2)
  80fc48:	e0bffc17 	ldw	r2,-16(fp)
  80fc4c:	e0fffd17 	ldw	r3,-12(fp)
  80fc50:	10c00015 	stw	r3,0(r2)
  80fc54:	0005883a 	mov	r2,zero
  80fc58:	e037883a 	mov	sp,fp
  80fc5c:	dfc00117 	ldw	ra,4(sp)
  80fc60:	df000017 	ldw	fp,0(sp)
  80fc64:	dec00204 	addi	sp,sp,8
  80fc68:	f800283a 	ret

0080fc6c <_do_ctors>:
  80fc6c:	defffd04 	addi	sp,sp,-12
  80fc70:	dfc00215 	stw	ra,8(sp)
  80fc74:	df000115 	stw	fp,4(sp)
  80fc78:	df000104 	addi	fp,sp,4
  80fc7c:	00802074 	movhi	r2,129
  80fc80:	1082de04 	addi	r2,r2,2936
  80fc84:	e0bfff15 	stw	r2,-4(fp)
  80fc88:	00000606 	br	80fca4 <_do_ctors+0x38>
  80fc8c:	e0bfff17 	ldw	r2,-4(fp)
  80fc90:	10800017 	ldw	r2,0(r2)
  80fc94:	103ee83a 	callr	r2
  80fc98:	e0bfff17 	ldw	r2,-4(fp)
  80fc9c:	10bfff04 	addi	r2,r2,-4
  80fca0:	e0bfff15 	stw	r2,-4(fp)
  80fca4:	e0ffff17 	ldw	r3,-4(fp)
  80fca8:	00802074 	movhi	r2,129
  80fcac:	1082df04 	addi	r2,r2,2940
  80fcb0:	18bff62e 	bgeu	r3,r2,80fc8c <__alt_data_end+0xff80fc8c>
  80fcb4:	e037883a 	mov	sp,fp
  80fcb8:	dfc00117 	ldw	ra,4(sp)
  80fcbc:	df000017 	ldw	fp,0(sp)
  80fcc0:	dec00204 	addi	sp,sp,8
  80fcc4:	f800283a 	ret

0080fcc8 <_do_dtors>:
  80fcc8:	defffd04 	addi	sp,sp,-12
  80fccc:	dfc00215 	stw	ra,8(sp)
  80fcd0:	df000115 	stw	fp,4(sp)
  80fcd4:	df000104 	addi	fp,sp,4
  80fcd8:	00802074 	movhi	r2,129
  80fcdc:	1082de04 	addi	r2,r2,2936
  80fce0:	e0bfff15 	stw	r2,-4(fp)
  80fce4:	00000606 	br	80fd00 <_do_dtors+0x38>
  80fce8:	e0bfff17 	ldw	r2,-4(fp)
  80fcec:	10800017 	ldw	r2,0(r2)
  80fcf0:	103ee83a 	callr	r2
  80fcf4:	e0bfff17 	ldw	r2,-4(fp)
  80fcf8:	10bfff04 	addi	r2,r2,-4
  80fcfc:	e0bfff15 	stw	r2,-4(fp)
  80fd00:	e0ffff17 	ldw	r3,-4(fp)
  80fd04:	00802074 	movhi	r2,129
  80fd08:	1082df04 	addi	r2,r2,2940
  80fd0c:	18bff62e 	bgeu	r3,r2,80fce8 <__alt_data_end+0xff80fce8>
  80fd10:	e037883a 	mov	sp,fp
  80fd14:	dfc00117 	ldw	ra,4(sp)
  80fd18:	df000017 	ldw	fp,0(sp)
  80fd1c:	dec00204 	addi	sp,sp,8
  80fd20:	f800283a 	ret

0080fd24 <alt_find_dev>:
  80fd24:	defffa04 	addi	sp,sp,-24
  80fd28:	dfc00515 	stw	ra,20(sp)
  80fd2c:	df000415 	stw	fp,16(sp)
  80fd30:	df000404 	addi	fp,sp,16
  80fd34:	e13ffe15 	stw	r4,-8(fp)
  80fd38:	e17fff15 	stw	r5,-4(fp)
  80fd3c:	e0bfff17 	ldw	r2,-4(fp)
  80fd40:	10800017 	ldw	r2,0(r2)
  80fd44:	e0bffc15 	stw	r2,-16(fp)
  80fd48:	e13ffe17 	ldw	r4,-8(fp)
  80fd4c:	080b75c0 	call	80b75c <strlen>
  80fd50:	10800044 	addi	r2,r2,1
  80fd54:	e0bffd15 	stw	r2,-12(fp)
  80fd58:	00000d06 	br	80fd90 <alt_find_dev+0x6c>
  80fd5c:	e0bffc17 	ldw	r2,-16(fp)
  80fd60:	10c00217 	ldw	r3,8(r2)
  80fd64:	e0bffd17 	ldw	r2,-12(fp)
  80fd68:	1809883a 	mov	r4,r3
  80fd6c:	e17ffe17 	ldw	r5,-8(fp)
  80fd70:	100d883a 	mov	r6,r2
  80fd74:	08108240 	call	810824 <memcmp>
  80fd78:	1000021e 	bne	r2,zero,80fd84 <alt_find_dev+0x60>
  80fd7c:	e0bffc17 	ldw	r2,-16(fp)
  80fd80:	00000706 	br	80fda0 <alt_find_dev+0x7c>
  80fd84:	e0bffc17 	ldw	r2,-16(fp)
  80fd88:	10800017 	ldw	r2,0(r2)
  80fd8c:	e0bffc15 	stw	r2,-16(fp)
  80fd90:	e0fffc17 	ldw	r3,-16(fp)
  80fd94:	e0bfff17 	ldw	r2,-4(fp)
  80fd98:	18bff01e 	bne	r3,r2,80fd5c <__alt_data_end+0xff80fd5c>
  80fd9c:	0005883a 	mov	r2,zero
  80fda0:	e037883a 	mov	sp,fp
  80fda4:	dfc00117 	ldw	ra,4(sp)
  80fda8:	df000017 	ldw	fp,0(sp)
  80fdac:	dec00204 	addi	sp,sp,8
  80fdb0:	f800283a 	ret

0080fdb4 <alt_icache_flush_all>:
  80fdb4:	defffe04 	addi	sp,sp,-8
  80fdb8:	dfc00115 	stw	ra,4(sp)
  80fdbc:	df000015 	stw	fp,0(sp)
  80fdc0:	d839883a 	mov	fp,sp
  80fdc4:	0009883a 	mov	r4,zero
  80fdc8:	01440004 	movi	r5,4096
  80fdcc:	08106b00 	call	8106b0 <alt_icache_flush>
  80fdd0:	e037883a 	mov	sp,fp
  80fdd4:	dfc00117 	ldw	ra,4(sp)
  80fdd8:	df000017 	ldw	fp,0(sp)
  80fddc:	dec00204 	addi	sp,sp,8
  80fde0:	f800283a 	ret

0080fde4 <alt_open_fd>:
  80fde4:	defff904 	addi	sp,sp,-28
  80fde8:	dfc00615 	stw	ra,24(sp)
  80fdec:	df000515 	stw	fp,20(sp)
  80fdf0:	df000504 	addi	fp,sp,20
  80fdf4:	e13ffc15 	stw	r4,-16(fp)
  80fdf8:	e17ffd15 	stw	r5,-12(fp)
  80fdfc:	e1bffe15 	stw	r6,-8(fp)
  80fe00:	e1ffff15 	stw	r7,-4(fp)
  80fe04:	e13ffd17 	ldw	r4,-12(fp)
  80fe08:	e17ffe17 	ldw	r5,-8(fp)
  80fe0c:	e1bfff17 	ldw	r6,-4(fp)
  80fe10:	08101e80 	call	8101e8 <open>
  80fe14:	e0bffb15 	stw	r2,-20(fp)
  80fe18:	e0bffb17 	ldw	r2,-20(fp)
  80fe1c:	10001c16 	blt	r2,zero,80fe90 <alt_open_fd+0xac>
  80fe20:	00802074 	movhi	r2,129
  80fe24:	10879504 	addi	r2,r2,7764
  80fe28:	e0fffb17 	ldw	r3,-20(fp)
  80fe2c:	18c00324 	muli	r3,r3,12
  80fe30:	10c5883a 	add	r2,r2,r3
  80fe34:	10c00017 	ldw	r3,0(r2)
  80fe38:	e0bffc17 	ldw	r2,-16(fp)
  80fe3c:	10c00015 	stw	r3,0(r2)
  80fe40:	00802074 	movhi	r2,129
  80fe44:	10879504 	addi	r2,r2,7764
  80fe48:	e0fffb17 	ldw	r3,-20(fp)
  80fe4c:	18c00324 	muli	r3,r3,12
  80fe50:	18c00104 	addi	r3,r3,4
  80fe54:	10c5883a 	add	r2,r2,r3
  80fe58:	10c00017 	ldw	r3,0(r2)
  80fe5c:	e0bffc17 	ldw	r2,-16(fp)
  80fe60:	10c00115 	stw	r3,4(r2)
  80fe64:	00802074 	movhi	r2,129
  80fe68:	10879504 	addi	r2,r2,7764
  80fe6c:	e0fffb17 	ldw	r3,-20(fp)
  80fe70:	18c00324 	muli	r3,r3,12
  80fe74:	18c00204 	addi	r3,r3,8
  80fe78:	10c5883a 	add	r2,r2,r3
  80fe7c:	10c00017 	ldw	r3,0(r2)
  80fe80:	e0bffc17 	ldw	r2,-16(fp)
  80fe84:	10c00215 	stw	r3,8(r2)
  80fe88:	e13ffb17 	ldw	r4,-20(fp)
  80fe8c:	080d4c80 	call	80d4c8 <alt_release_fd>
  80fe90:	e037883a 	mov	sp,fp
  80fe94:	dfc00117 	ldw	ra,4(sp)
  80fe98:	df000017 	ldw	fp,0(sp)
  80fe9c:	dec00204 	addi	sp,sp,8
  80fea0:	f800283a 	ret

0080fea4 <alt_io_redirect>:
  80fea4:	defffb04 	addi	sp,sp,-20
  80fea8:	dfc00415 	stw	ra,16(sp)
  80feac:	df000315 	stw	fp,12(sp)
  80feb0:	df000304 	addi	fp,sp,12
  80feb4:	e13ffd15 	stw	r4,-12(fp)
  80feb8:	e17ffe15 	stw	r5,-8(fp)
  80febc:	e1bfff15 	stw	r6,-4(fp)
  80fec0:	01002074 	movhi	r4,129
  80fec4:	21079804 	addi	r4,r4,7776
  80fec8:	e17ffd17 	ldw	r5,-12(fp)
  80fecc:	01800044 	movi	r6,1
  80fed0:	01c07fc4 	movi	r7,511
  80fed4:	080fde40 	call	80fde4 <alt_open_fd>
  80fed8:	01002074 	movhi	r4,129
  80fedc:	21079504 	addi	r4,r4,7764
  80fee0:	e17ffe17 	ldw	r5,-8(fp)
  80fee4:	000d883a 	mov	r6,zero
  80fee8:	01c07fc4 	movi	r7,511
  80feec:	080fde40 	call	80fde4 <alt_open_fd>
  80fef0:	01002074 	movhi	r4,129
  80fef4:	21079b04 	addi	r4,r4,7788
  80fef8:	e17fff17 	ldw	r5,-4(fp)
  80fefc:	01800044 	movi	r6,1
  80ff00:	01c07fc4 	movi	r7,511
  80ff04:	080fde40 	call	80fde4 <alt_open_fd>
  80ff08:	e037883a 	mov	sp,fp
  80ff0c:	dfc00117 	ldw	ra,4(sp)
  80ff10:	df000017 	ldw	fp,0(sp)
  80ff14:	dec00204 	addi	sp,sp,8
  80ff18:	f800283a 	ret

0080ff1c <alt_irq_register>:
  80ff1c:	defff004 	addi	sp,sp,-64
  80ff20:	df000f15 	stw	fp,60(sp)
  80ff24:	df000f04 	addi	fp,sp,60
  80ff28:	e13ffd15 	stw	r4,-12(fp)
  80ff2c:	e17ffe15 	stw	r5,-8(fp)
  80ff30:	e1bfff15 	stw	r6,-4(fp)
  80ff34:	00bffa84 	movi	r2,-22
  80ff38:	e0bff115 	stw	r2,-60(fp)
  80ff3c:	e0bffd17 	ldw	r2,-12(fp)
  80ff40:	10800828 	cmpgeui	r2,r2,32
  80ff44:	10005c1e 	bne	r2,zero,8100b8 <alt_irq_register+0x19c>
  80ff48:	0005303a 	rdctl	r2,status
  80ff4c:	e0bff315 	stw	r2,-52(fp)
  80ff50:	e0fff317 	ldw	r3,-52(fp)
  80ff54:	00bfff84 	movi	r2,-2
  80ff58:	1884703a 	and	r2,r3,r2
  80ff5c:	1001703a 	wrctl	status,r2
  80ff60:	e0bff317 	ldw	r2,-52(fp)
  80ff64:	e0bff215 	stw	r2,-56(fp)
  80ff68:	00802074 	movhi	r2,129
  80ff6c:	1095d604 	addi	r2,r2,22360
  80ff70:	e0fffd17 	ldw	r3,-12(fp)
  80ff74:	180690fa 	slli	r3,r3,3
  80ff78:	10c5883a 	add	r2,r2,r3
  80ff7c:	e0ffff17 	ldw	r3,-4(fp)
  80ff80:	10c00015 	stw	r3,0(r2)
  80ff84:	00802074 	movhi	r2,129
  80ff88:	1095d604 	addi	r2,r2,22360
  80ff8c:	e0fffd17 	ldw	r3,-12(fp)
  80ff90:	180690fa 	slli	r3,r3,3
  80ff94:	18c00104 	addi	r3,r3,4
  80ff98:	10c5883a 	add	r2,r2,r3
  80ff9c:	e0fffe17 	ldw	r3,-8(fp)
  80ffa0:	10c00015 	stw	r3,0(r2)
  80ffa4:	e0bfff17 	ldw	r2,-4(fp)
  80ffa8:	10001f26 	beq	r2,zero,810028 <alt_irq_register+0x10c>
  80ffac:	e0bffd17 	ldw	r2,-12(fp)
  80ffb0:	e0bff415 	stw	r2,-48(fp)
  80ffb4:	0005303a 	rdctl	r2,status
  80ffb8:	e0bff515 	stw	r2,-44(fp)
  80ffbc:	e0fff517 	ldw	r3,-44(fp)
  80ffc0:	00bfff84 	movi	r2,-2
  80ffc4:	1884703a 	and	r2,r3,r2
  80ffc8:	1001703a 	wrctl	status,r2
  80ffcc:	e0bff517 	ldw	r2,-44(fp)
  80ffd0:	e0bff615 	stw	r2,-40(fp)
  80ffd4:	e0bff417 	ldw	r2,-48(fp)
  80ffd8:	00c00044 	movi	r3,1
  80ffdc:	1884983a 	sll	r2,r3,r2
  80ffe0:	1007883a 	mov	r3,r2
  80ffe4:	00802074 	movhi	r2,129
  80ffe8:	108bd904 	addi	r2,r2,12132
  80ffec:	10800017 	ldw	r2,0(r2)
  80fff0:	1886b03a 	or	r3,r3,r2
  80fff4:	00802074 	movhi	r2,129
  80fff8:	108bd904 	addi	r2,r2,12132
  80fffc:	10c00015 	stw	r3,0(r2)
  810000:	00802074 	movhi	r2,129
  810004:	108bd904 	addi	r2,r2,12132
  810008:	10800017 	ldw	r2,0(r2)
  81000c:	100170fa 	wrctl	ienable,r2
  810010:	e0bff617 	ldw	r2,-40(fp)
  810014:	e0bff715 	stw	r2,-36(fp)
  810018:	e0bff717 	ldw	r2,-36(fp)
  81001c:	1001703a 	wrctl	status,r2
  810020:	0005883a 	mov	r2,zero
  810024:	00001f06 	br	8100a4 <alt_irq_register+0x188>
  810028:	e0bffd17 	ldw	r2,-12(fp)
  81002c:	e0bff815 	stw	r2,-32(fp)
  810030:	0005303a 	rdctl	r2,status
  810034:	e0bff915 	stw	r2,-28(fp)
  810038:	e0fff917 	ldw	r3,-28(fp)
  81003c:	00bfff84 	movi	r2,-2
  810040:	1884703a 	and	r2,r3,r2
  810044:	1001703a 	wrctl	status,r2
  810048:	e0bff917 	ldw	r2,-28(fp)
  81004c:	e0bffa15 	stw	r2,-24(fp)
  810050:	e0bff817 	ldw	r2,-32(fp)
  810054:	00c00044 	movi	r3,1
  810058:	1884983a 	sll	r2,r3,r2
  81005c:	0084303a 	nor	r2,zero,r2
  810060:	1007883a 	mov	r3,r2
  810064:	00802074 	movhi	r2,129
  810068:	108bd904 	addi	r2,r2,12132
  81006c:	10800017 	ldw	r2,0(r2)
  810070:	1886703a 	and	r3,r3,r2
  810074:	00802074 	movhi	r2,129
  810078:	108bd904 	addi	r2,r2,12132
  81007c:	10c00015 	stw	r3,0(r2)
  810080:	00802074 	movhi	r2,129
  810084:	108bd904 	addi	r2,r2,12132
  810088:	10800017 	ldw	r2,0(r2)
  81008c:	100170fa 	wrctl	ienable,r2
  810090:	e0bffa17 	ldw	r2,-24(fp)
  810094:	e0bffb15 	stw	r2,-20(fp)
  810098:	e0bffb17 	ldw	r2,-20(fp)
  81009c:	1001703a 	wrctl	status,r2
  8100a0:	0005883a 	mov	r2,zero
  8100a4:	e0bff115 	stw	r2,-60(fp)
  8100a8:	e0bff217 	ldw	r2,-56(fp)
  8100ac:	e0bffc15 	stw	r2,-16(fp)
  8100b0:	e0bffc17 	ldw	r2,-16(fp)
  8100b4:	1001703a 	wrctl	status,r2
  8100b8:	e0bff117 	ldw	r2,-60(fp)
  8100bc:	e037883a 	mov	sp,fp
  8100c0:	df000017 	ldw	fp,0(sp)
  8100c4:	dec00104 	addi	sp,sp,4
  8100c8:	f800283a 	ret

008100cc <alt_get_errno>:
  8100cc:	defffe04 	addi	sp,sp,-8
  8100d0:	dfc00115 	stw	ra,4(sp)
  8100d4:	df000015 	stw	fp,0(sp)
  8100d8:	d839883a 	mov	fp,sp
  8100dc:	00802074 	movhi	r2,129
  8100e0:	10889c04 	addi	r2,r2,8816
  8100e4:	10800017 	ldw	r2,0(r2)
  8100e8:	10000526 	beq	r2,zero,810100 <alt_get_errno+0x34>
  8100ec:	00802074 	movhi	r2,129
  8100f0:	10889c04 	addi	r2,r2,8816
  8100f4:	10800017 	ldw	r2,0(r2)
  8100f8:	103ee83a 	callr	r2
  8100fc:	00000206 	br	810108 <alt_get_errno+0x3c>
  810100:	00802074 	movhi	r2,129
  810104:	108bd304 	addi	r2,r2,12108
  810108:	e037883a 	mov	sp,fp
  81010c:	dfc00117 	ldw	ra,4(sp)
  810110:	df000017 	ldw	fp,0(sp)
  810114:	dec00204 	addi	sp,sp,8
  810118:	f800283a 	ret

0081011c <alt_file_locked>:
  81011c:	defffd04 	addi	sp,sp,-12
  810120:	df000215 	stw	fp,8(sp)
  810124:	df000204 	addi	fp,sp,8
  810128:	e13fff15 	stw	r4,-4(fp)
  81012c:	e0bfff17 	ldw	r2,-4(fp)
  810130:	10800217 	ldw	r2,8(r2)
  810134:	10d00034 	orhi	r3,r2,16384
  810138:	e0bfff17 	ldw	r2,-4(fp)
  81013c:	10c00215 	stw	r3,8(r2)
  810140:	e03ffe15 	stw	zero,-8(fp)
  810144:	00001d06 	br	8101bc <alt_file_locked+0xa0>
  810148:	00802074 	movhi	r2,129
  81014c:	10879504 	addi	r2,r2,7764
  810150:	e0fffe17 	ldw	r3,-8(fp)
  810154:	18c00324 	muli	r3,r3,12
  810158:	10c5883a 	add	r2,r2,r3
  81015c:	10c00017 	ldw	r3,0(r2)
  810160:	e0bfff17 	ldw	r2,-4(fp)
  810164:	10800017 	ldw	r2,0(r2)
  810168:	1880111e 	bne	r3,r2,8101b0 <alt_file_locked+0x94>
  81016c:	00802074 	movhi	r2,129
  810170:	10879504 	addi	r2,r2,7764
  810174:	e0fffe17 	ldw	r3,-8(fp)
  810178:	18c00324 	muli	r3,r3,12
  81017c:	18c00204 	addi	r3,r3,8
  810180:	10c5883a 	add	r2,r2,r3
  810184:	10800017 	ldw	r2,0(r2)
  810188:	1000090e 	bge	r2,zero,8101b0 <alt_file_locked+0x94>
  81018c:	e0bffe17 	ldw	r2,-8(fp)
  810190:	10c00324 	muli	r3,r2,12
  810194:	00802074 	movhi	r2,129
  810198:	10879504 	addi	r2,r2,7764
  81019c:	1887883a 	add	r3,r3,r2
  8101a0:	e0bfff17 	ldw	r2,-4(fp)
  8101a4:	18800226 	beq	r3,r2,8101b0 <alt_file_locked+0x94>
  8101a8:	00bffcc4 	movi	r2,-13
  8101ac:	00000a06 	br	8101d8 <alt_file_locked+0xbc>
  8101b0:	e0bffe17 	ldw	r2,-8(fp)
  8101b4:	10800044 	addi	r2,r2,1
  8101b8:	e0bffe15 	stw	r2,-8(fp)
  8101bc:	00802074 	movhi	r2,129
  8101c0:	10889b04 	addi	r2,r2,8812
  8101c4:	10800017 	ldw	r2,0(r2)
  8101c8:	1007883a 	mov	r3,r2
  8101cc:	e0bffe17 	ldw	r2,-8(fp)
  8101d0:	18bfdd2e 	bgeu	r3,r2,810148 <__alt_data_end+0xff810148>
  8101d4:	0005883a 	mov	r2,zero
  8101d8:	e037883a 	mov	sp,fp
  8101dc:	df000017 	ldw	fp,0(sp)
  8101e0:	dec00104 	addi	sp,sp,4
  8101e4:	f800283a 	ret

008101e8 <open>:
  8101e8:	defff604 	addi	sp,sp,-40
  8101ec:	dfc00915 	stw	ra,36(sp)
  8101f0:	df000815 	stw	fp,32(sp)
  8101f4:	df000804 	addi	fp,sp,32
  8101f8:	e13ffd15 	stw	r4,-12(fp)
  8101fc:	e17ffe15 	stw	r5,-8(fp)
  810200:	e1bfff15 	stw	r6,-4(fp)
  810204:	00bfffc4 	movi	r2,-1
  810208:	e0bff915 	stw	r2,-28(fp)
  81020c:	00bffb44 	movi	r2,-19
  810210:	e0bffa15 	stw	r2,-24(fp)
  810214:	e03ffb15 	stw	zero,-20(fp)
  810218:	e13ffd17 	ldw	r4,-12(fp)
  81021c:	01402074 	movhi	r5,129
  810220:	29489904 	addi	r5,r5,8804
  810224:	080fd240 	call	80fd24 <alt_find_dev>
  810228:	e0bff815 	stw	r2,-32(fp)
  81022c:	e0bff817 	ldw	r2,-32(fp)
  810230:	1000051e 	bne	r2,zero,810248 <open+0x60>
  810234:	e13ffd17 	ldw	r4,-12(fp)
  810238:	08104e80 	call	8104e8 <alt_find_file>
  81023c:	e0bff815 	stw	r2,-32(fp)
  810240:	00800044 	movi	r2,1
  810244:	e0bffb15 	stw	r2,-20(fp)
  810248:	e0bff817 	ldw	r2,-32(fp)
  81024c:	10002926 	beq	r2,zero,8102f4 <open+0x10c>
  810250:	e13ff817 	ldw	r4,-32(fp)
  810254:	08105fc0 	call	8105fc <alt_get_fd>
  810258:	e0bff915 	stw	r2,-28(fp)
  81025c:	e0bff917 	ldw	r2,-28(fp)
  810260:	1000030e 	bge	r2,zero,810270 <open+0x88>
  810264:	e0bff917 	ldw	r2,-28(fp)
  810268:	e0bffa15 	stw	r2,-24(fp)
  81026c:	00002306 	br	8102fc <open+0x114>
  810270:	e0bff917 	ldw	r2,-28(fp)
  810274:	10c00324 	muli	r3,r2,12
  810278:	00802074 	movhi	r2,129
  81027c:	10879504 	addi	r2,r2,7764
  810280:	1885883a 	add	r2,r3,r2
  810284:	e0bffc15 	stw	r2,-16(fp)
  810288:	e0fffe17 	ldw	r3,-8(fp)
  81028c:	00900034 	movhi	r2,16384
  810290:	10bfffc4 	addi	r2,r2,-1
  810294:	1886703a 	and	r3,r3,r2
  810298:	e0bffc17 	ldw	r2,-16(fp)
  81029c:	10c00215 	stw	r3,8(r2)
  8102a0:	e0bffb17 	ldw	r2,-20(fp)
  8102a4:	1000051e 	bne	r2,zero,8102bc <open+0xd4>
  8102a8:	e13ffc17 	ldw	r4,-16(fp)
  8102ac:	081011c0 	call	81011c <alt_file_locked>
  8102b0:	e0bffa15 	stw	r2,-24(fp)
  8102b4:	e0bffa17 	ldw	r2,-24(fp)
  8102b8:	10001016 	blt	r2,zero,8102fc <open+0x114>
  8102bc:	e0bff817 	ldw	r2,-32(fp)
  8102c0:	10800317 	ldw	r2,12(r2)
  8102c4:	10000826 	beq	r2,zero,8102e8 <open+0x100>
  8102c8:	e0bff817 	ldw	r2,-32(fp)
  8102cc:	10800317 	ldw	r2,12(r2)
  8102d0:	e13ffc17 	ldw	r4,-16(fp)
  8102d4:	e17ffd17 	ldw	r5,-12(fp)
  8102d8:	e1bffe17 	ldw	r6,-8(fp)
  8102dc:	e1ffff17 	ldw	r7,-4(fp)
  8102e0:	103ee83a 	callr	r2
  8102e4:	00000106 	br	8102ec <open+0x104>
  8102e8:	0005883a 	mov	r2,zero
  8102ec:	e0bffa15 	stw	r2,-24(fp)
  8102f0:	00000206 	br	8102fc <open+0x114>
  8102f4:	00bffb44 	movi	r2,-19
  8102f8:	e0bffa15 	stw	r2,-24(fp)
  8102fc:	e0bffa17 	ldw	r2,-24(fp)
  810300:	1000090e 	bge	r2,zero,810328 <open+0x140>
  810304:	e13ff917 	ldw	r4,-28(fp)
  810308:	080d4c80 	call	80d4c8 <alt_release_fd>
  81030c:	08100cc0 	call	8100cc <alt_get_errno>
  810310:	1007883a 	mov	r3,r2
  810314:	e0bffa17 	ldw	r2,-24(fp)
  810318:	0085c83a 	sub	r2,zero,r2
  81031c:	18800015 	stw	r2,0(r3)
  810320:	00bfffc4 	movi	r2,-1
  810324:	00000106 	br	81032c <open+0x144>
  810328:	e0bff917 	ldw	r2,-28(fp)
  81032c:	e037883a 	mov	sp,fp
  810330:	dfc00117 	ldw	ra,4(sp)
  810334:	df000017 	ldw	fp,0(sp)
  810338:	dec00204 	addi	sp,sp,8
  81033c:	f800283a 	ret

00810340 <usleep>:
  810340:	defffd04 	addi	sp,sp,-12
  810344:	dfc00215 	stw	ra,8(sp)
  810348:	df000115 	stw	fp,4(sp)
  81034c:	df000104 	addi	fp,sp,4
  810350:	e13fff15 	stw	r4,-4(fp)
  810354:	e13fff17 	ldw	r4,-4(fp)
  810358:	08103900 	call	810390 <alt_busy_sleep>
  81035c:	e037883a 	mov	sp,fp
  810360:	dfc00117 	ldw	ra,4(sp)
  810364:	df000017 	ldw	fp,0(sp)
  810368:	dec00204 	addi	sp,sp,8
  81036c:	f800283a 	ret

00810370 <altera_nios2_gen2_irq_init>:
  810370:	deffff04 	addi	sp,sp,-4
  810374:	df000015 	stw	fp,0(sp)
  810378:	d839883a 	mov	fp,sp
  81037c:	000170fa 	wrctl	ienable,zero
  810380:	e037883a 	mov	sp,fp
  810384:	df000017 	ldw	fp,0(sp)
  810388:	dec00104 	addi	sp,sp,4
  81038c:	f800283a 	ret

00810390 <alt_busy_sleep>:
  810390:	defffa04 	addi	sp,sp,-24
  810394:	dfc00515 	stw	ra,20(sp)
  810398:	df000415 	stw	fp,16(sp)
  81039c:	df000404 	addi	fp,sp,16
  8103a0:	e13fff15 	stw	r4,-4(fp)
  8103a4:	008000c4 	movi	r2,3
  8103a8:	e0bffd15 	stw	r2,-12(fp)
  8103ac:	e0fffd17 	ldw	r3,-12(fp)
  8103b0:	008003f4 	movhi	r2,15
  8103b4:	10909004 	addi	r2,r2,16960
  8103b8:	1885383a 	mul	r2,r3,r2
  8103bc:	0100bef4 	movhi	r4,763
  8103c0:	213c2004 	addi	r4,r4,-3968
  8103c4:	100b883a 	mov	r5,r2
  8103c8:	080a2500 	call	80a250 <__udivsi3>
  8103cc:	01200034 	movhi	r4,32768
  8103d0:	213fffc4 	addi	r4,r4,-1
  8103d4:	100b883a 	mov	r5,r2
  8103d8:	080a2500 	call	80a250 <__udivsi3>
  8103dc:	e13fff17 	ldw	r4,-4(fp)
  8103e0:	100b883a 	mov	r5,r2
  8103e4:	080a2500 	call	80a250 <__udivsi3>
  8103e8:	e0bffe15 	stw	r2,-8(fp)
  8103ec:	e0bffe17 	ldw	r2,-8(fp)
  8103f0:	10002a26 	beq	r2,zero,81049c <alt_busy_sleep+0x10c>
  8103f4:	e03ffc15 	stw	zero,-16(fp)
  8103f8:	00001706 	br	810458 <alt_busy_sleep+0xc8>
  8103fc:	00a00034 	movhi	r2,32768
  810400:	10bfffc4 	addi	r2,r2,-1
  810404:	10bfffc4 	addi	r2,r2,-1
  810408:	103ffe1e 	bne	r2,zero,810404 <__alt_data_end+0xff810404>
  81040c:	e0fffd17 	ldw	r3,-12(fp)
  810410:	008003f4 	movhi	r2,15
  810414:	10909004 	addi	r2,r2,16960
  810418:	1885383a 	mul	r2,r3,r2
  81041c:	0100bef4 	movhi	r4,763
  810420:	213c2004 	addi	r4,r4,-3968
  810424:	100b883a 	mov	r5,r2
  810428:	080a2500 	call	80a250 <__udivsi3>
  81042c:	01200034 	movhi	r4,32768
  810430:	213fffc4 	addi	r4,r4,-1
  810434:	100b883a 	mov	r5,r2
  810438:	080a2500 	call	80a250 <__udivsi3>
  81043c:	1007883a 	mov	r3,r2
  810440:	e0bfff17 	ldw	r2,-4(fp)
  810444:	10c5c83a 	sub	r2,r2,r3
  810448:	e0bfff15 	stw	r2,-4(fp)
  81044c:	e0bffc17 	ldw	r2,-16(fp)
  810450:	10800044 	addi	r2,r2,1
  810454:	e0bffc15 	stw	r2,-16(fp)
  810458:	e0fffc17 	ldw	r3,-16(fp)
  81045c:	e0bffe17 	ldw	r2,-8(fp)
  810460:	18bfe616 	blt	r3,r2,8103fc <__alt_data_end+0xff8103fc>
  810464:	e0fffd17 	ldw	r3,-12(fp)
  810468:	008003f4 	movhi	r2,15
  81046c:	10909004 	addi	r2,r2,16960
  810470:	1885383a 	mul	r2,r3,r2
  810474:	0100bef4 	movhi	r4,763
  810478:	213c2004 	addi	r4,r4,-3968
  81047c:	100b883a 	mov	r5,r2
  810480:	080a2500 	call	80a250 <__udivsi3>
  810484:	1007883a 	mov	r3,r2
  810488:	e0bfff17 	ldw	r2,-4(fp)
  81048c:	1885383a 	mul	r2,r3,r2
  810490:	10bfffc4 	addi	r2,r2,-1
  810494:	103ffe1e 	bne	r2,zero,810490 <__alt_data_end+0xff810490>
  810498:	00000d06 	br	8104d0 <alt_busy_sleep+0x140>
  81049c:	e0fffd17 	ldw	r3,-12(fp)
  8104a0:	008003f4 	movhi	r2,15
  8104a4:	10909004 	addi	r2,r2,16960
  8104a8:	1885383a 	mul	r2,r3,r2
  8104ac:	0100bef4 	movhi	r4,763
  8104b0:	213c2004 	addi	r4,r4,-3968
  8104b4:	100b883a 	mov	r5,r2
  8104b8:	080a2500 	call	80a250 <__udivsi3>
  8104bc:	1007883a 	mov	r3,r2
  8104c0:	e0bfff17 	ldw	r2,-4(fp)
  8104c4:	1885383a 	mul	r2,r3,r2
  8104c8:	10bfffc4 	addi	r2,r2,-1
  8104cc:	00bffe16 	blt	zero,r2,8104c8 <__alt_data_end+0xff8104c8>
  8104d0:	0005883a 	mov	r2,zero
  8104d4:	e037883a 	mov	sp,fp
  8104d8:	dfc00117 	ldw	ra,4(sp)
  8104dc:	df000017 	ldw	fp,0(sp)
  8104e0:	dec00204 	addi	sp,sp,8
  8104e4:	f800283a 	ret

008104e8 <alt_find_file>:
  8104e8:	defffb04 	addi	sp,sp,-20
  8104ec:	dfc00415 	stw	ra,16(sp)
  8104f0:	df000315 	stw	fp,12(sp)
  8104f4:	df000304 	addi	fp,sp,12
  8104f8:	e13fff15 	stw	r4,-4(fp)
  8104fc:	00802074 	movhi	r2,129
  810500:	10889704 	addi	r2,r2,8796
  810504:	10800017 	ldw	r2,0(r2)
  810508:	e0bffd15 	stw	r2,-12(fp)
  81050c:	00003106 	br	8105d4 <alt_find_file+0xec>
  810510:	e0bffd17 	ldw	r2,-12(fp)
  810514:	10800217 	ldw	r2,8(r2)
  810518:	1009883a 	mov	r4,r2
  81051c:	080b75c0 	call	80b75c <strlen>
  810520:	e0bffe15 	stw	r2,-8(fp)
  810524:	e0bffd17 	ldw	r2,-12(fp)
  810528:	10c00217 	ldw	r3,8(r2)
  81052c:	e0bffe17 	ldw	r2,-8(fp)
  810530:	10bfffc4 	addi	r2,r2,-1
  810534:	1885883a 	add	r2,r3,r2
  810538:	10800003 	ldbu	r2,0(r2)
  81053c:	10803fcc 	andi	r2,r2,255
  810540:	1080201c 	xori	r2,r2,128
  810544:	10bfe004 	addi	r2,r2,-128
  810548:	10800bd8 	cmpnei	r2,r2,47
  81054c:	1000031e 	bne	r2,zero,81055c <alt_find_file+0x74>
  810550:	e0bffe17 	ldw	r2,-8(fp)
  810554:	10bfffc4 	addi	r2,r2,-1
  810558:	e0bffe15 	stw	r2,-8(fp)
  81055c:	e0bffe17 	ldw	r2,-8(fp)
  810560:	e0ffff17 	ldw	r3,-4(fp)
  810564:	1885883a 	add	r2,r3,r2
  810568:	10800003 	ldbu	r2,0(r2)
  81056c:	10803fcc 	andi	r2,r2,255
  810570:	1080201c 	xori	r2,r2,128
  810574:	10bfe004 	addi	r2,r2,-128
  810578:	10800be0 	cmpeqi	r2,r2,47
  81057c:	1000081e 	bne	r2,zero,8105a0 <alt_find_file+0xb8>
  810580:	e0bffe17 	ldw	r2,-8(fp)
  810584:	e0ffff17 	ldw	r3,-4(fp)
  810588:	1885883a 	add	r2,r3,r2
  81058c:	10800003 	ldbu	r2,0(r2)
  810590:	10803fcc 	andi	r2,r2,255
  810594:	1080201c 	xori	r2,r2,128
  810598:	10bfe004 	addi	r2,r2,-128
  81059c:	10000a1e 	bne	r2,zero,8105c8 <alt_find_file+0xe0>
  8105a0:	e0bffd17 	ldw	r2,-12(fp)
  8105a4:	10c00217 	ldw	r3,8(r2)
  8105a8:	e0bffe17 	ldw	r2,-8(fp)
  8105ac:	1809883a 	mov	r4,r3
  8105b0:	e17fff17 	ldw	r5,-4(fp)
  8105b4:	100d883a 	mov	r6,r2
  8105b8:	08108240 	call	810824 <memcmp>
  8105bc:	1000021e 	bne	r2,zero,8105c8 <alt_find_file+0xe0>
  8105c0:	e0bffd17 	ldw	r2,-12(fp)
  8105c4:	00000806 	br	8105e8 <alt_find_file+0x100>
  8105c8:	e0bffd17 	ldw	r2,-12(fp)
  8105cc:	10800017 	ldw	r2,0(r2)
  8105d0:	e0bffd15 	stw	r2,-12(fp)
  8105d4:	e0fffd17 	ldw	r3,-12(fp)
  8105d8:	00802074 	movhi	r2,129
  8105dc:	10889704 	addi	r2,r2,8796
  8105e0:	18bfcb1e 	bne	r3,r2,810510 <__alt_data_end+0xff810510>
  8105e4:	0005883a 	mov	r2,zero
  8105e8:	e037883a 	mov	sp,fp
  8105ec:	dfc00117 	ldw	ra,4(sp)
  8105f0:	df000017 	ldw	fp,0(sp)
  8105f4:	dec00204 	addi	sp,sp,8
  8105f8:	f800283a 	ret

008105fc <alt_get_fd>:
  8105fc:	defffc04 	addi	sp,sp,-16
  810600:	df000315 	stw	fp,12(sp)
  810604:	df000304 	addi	fp,sp,12
  810608:	e13fff15 	stw	r4,-4(fp)
  81060c:	00bffa04 	movi	r2,-24
  810610:	e0bffe15 	stw	r2,-8(fp)
  810614:	e03ffd15 	stw	zero,-12(fp)
  810618:	00001d06 	br	810690 <alt_get_fd+0x94>
  81061c:	00802074 	movhi	r2,129
  810620:	10879504 	addi	r2,r2,7764
  810624:	e0fffd17 	ldw	r3,-12(fp)
  810628:	18c00324 	muli	r3,r3,12
  81062c:	10c5883a 	add	r2,r2,r3
  810630:	10800017 	ldw	r2,0(r2)
  810634:	1000131e 	bne	r2,zero,810684 <alt_get_fd+0x88>
  810638:	00802074 	movhi	r2,129
  81063c:	10879504 	addi	r2,r2,7764
  810640:	e0fffd17 	ldw	r3,-12(fp)
  810644:	18c00324 	muli	r3,r3,12
  810648:	10c5883a 	add	r2,r2,r3
  81064c:	e0ffff17 	ldw	r3,-4(fp)
  810650:	10c00015 	stw	r3,0(r2)
  810654:	00802074 	movhi	r2,129
  810658:	10889b04 	addi	r2,r2,8812
  81065c:	10c00017 	ldw	r3,0(r2)
  810660:	e0bffd17 	ldw	r2,-12(fp)
  810664:	1880040e 	bge	r3,r2,810678 <alt_get_fd+0x7c>
  810668:	00802074 	movhi	r2,129
  81066c:	10889b04 	addi	r2,r2,8812
  810670:	e0fffd17 	ldw	r3,-12(fp)
  810674:	10c00015 	stw	r3,0(r2)
  810678:	e0bffd17 	ldw	r2,-12(fp)
  81067c:	e0bffe15 	stw	r2,-8(fp)
  810680:	00000606 	br	81069c <alt_get_fd+0xa0>
  810684:	e0bffd17 	ldw	r2,-12(fp)
  810688:	10800044 	addi	r2,r2,1
  81068c:	e0bffd15 	stw	r2,-12(fp)
  810690:	e0bffd17 	ldw	r2,-12(fp)
  810694:	10800810 	cmplti	r2,r2,32
  810698:	103fe01e 	bne	r2,zero,81061c <__alt_data_end+0xff81061c>
  81069c:	e0bffe17 	ldw	r2,-8(fp)
  8106a0:	e037883a 	mov	sp,fp
  8106a4:	df000017 	ldw	fp,0(sp)
  8106a8:	dec00104 	addi	sp,sp,4
  8106ac:	f800283a 	ret

008106b0 <alt_icache_flush>:
  8106b0:	defffb04 	addi	sp,sp,-20
  8106b4:	df000415 	stw	fp,16(sp)
  8106b8:	df000404 	addi	fp,sp,16
  8106bc:	e13ffe15 	stw	r4,-8(fp)
  8106c0:	e17fff15 	stw	r5,-4(fp)
  8106c4:	e0bfff17 	ldw	r2,-4(fp)
  8106c8:	10840070 	cmpltui	r2,r2,4097
  8106cc:	1000021e 	bne	r2,zero,8106d8 <alt_icache_flush+0x28>
  8106d0:	00840004 	movi	r2,4096
  8106d4:	e0bfff15 	stw	r2,-4(fp)
  8106d8:	e0fffe17 	ldw	r3,-8(fp)
  8106dc:	e0bfff17 	ldw	r2,-4(fp)
  8106e0:	1885883a 	add	r2,r3,r2
  8106e4:	e0bffd15 	stw	r2,-12(fp)
  8106e8:	e0bffe17 	ldw	r2,-8(fp)
  8106ec:	e0bffc15 	stw	r2,-16(fp)
  8106f0:	00000506 	br	810708 <alt_icache_flush+0x58>
  8106f4:	e0bffc17 	ldw	r2,-16(fp)
  8106f8:	1000603a 	flushi	r2
  8106fc:	e0bffc17 	ldw	r2,-16(fp)
  810700:	10800804 	addi	r2,r2,32
  810704:	e0bffc15 	stw	r2,-16(fp)
  810708:	e0fffc17 	ldw	r3,-16(fp)
  81070c:	e0bffd17 	ldw	r2,-12(fp)
  810710:	18bff836 	bltu	r3,r2,8106f4 <__alt_data_end+0xff8106f4>
  810714:	e0bffe17 	ldw	r2,-8(fp)
  810718:	108007cc 	andi	r2,r2,31
  81071c:	10000226 	beq	r2,zero,810728 <alt_icache_flush+0x78>
  810720:	e0bffc17 	ldw	r2,-16(fp)
  810724:	1000603a 	flushi	r2
  810728:	0000203a 	flushp
  81072c:	e037883a 	mov	sp,fp
  810730:	df000017 	ldw	fp,0(sp)
  810734:	dec00104 	addi	sp,sp,4
  810738:	f800283a 	ret

0081073c <alt_exception_cause_generated_bad_addr>:
  81073c:	defffe04 	addi	sp,sp,-8
  810740:	df000115 	stw	fp,4(sp)
  810744:	df000104 	addi	fp,sp,4
  810748:	e13fff15 	stw	r4,-4(fp)
  81074c:	e0bfff17 	ldw	r2,-4(fp)
  810750:	10bffe84 	addi	r2,r2,-6
  810754:	10c00428 	cmpgeui	r3,r2,16
  810758:	18001a1e 	bne	r3,zero,8107c4 <alt_exception_cause_generated_bad_addr+0x88>
  81075c:	100690ba 	slli	r3,r2,2
  810760:	00802074 	movhi	r2,129
  810764:	1081dd04 	addi	r2,r2,1908
  810768:	1885883a 	add	r2,r3,r2
  81076c:	10800017 	ldw	r2,0(r2)
  810770:	1000683a 	jmp	r2
  810774:	008107b4 	movhi	r2,1054
  810778:	008107b4 	movhi	r2,1054
  81077c:	008107c4 	movi	r2,1055
  810780:	008107c4 	movi	r2,1055
  810784:	008107c4 	movi	r2,1055
  810788:	008107b4 	movhi	r2,1054
  81078c:	008107bc 	xorhi	r2,zero,1054
  810790:	008107c4 	movi	r2,1055
  810794:	008107b4 	movhi	r2,1054
  810798:	008107b4 	movhi	r2,1054
  81079c:	008107c4 	movi	r2,1055
  8107a0:	008107b4 	movhi	r2,1054
  8107a4:	008107bc 	xorhi	r2,zero,1054
  8107a8:	008107c4 	movi	r2,1055
  8107ac:	008107c4 	movi	r2,1055
  8107b0:	008107b4 	movhi	r2,1054
  8107b4:	00800044 	movi	r2,1
  8107b8:	00000306 	br	8107c8 <alt_exception_cause_generated_bad_addr+0x8c>
  8107bc:	0005883a 	mov	r2,zero
  8107c0:	00000106 	br	8107c8 <alt_exception_cause_generated_bad_addr+0x8c>
  8107c4:	0005883a 	mov	r2,zero
  8107c8:	e037883a 	mov	sp,fp
  8107cc:	df000017 	ldw	fp,0(sp)
  8107d0:	dec00104 	addi	sp,sp,4
  8107d4:	f800283a 	ret

008107d8 <atexit>:
  8107d8:	200b883a 	mov	r5,r4
  8107dc:	000d883a 	mov	r6,zero
  8107e0:	0009883a 	mov	r4,zero
  8107e4:	000f883a 	mov	r7,zero
  8107e8:	08108a01 	jmpi	8108a0 <__register_exitproc>

008107ec <exit>:
  8107ec:	defffe04 	addi	sp,sp,-8
  8107f0:	000b883a 	mov	r5,zero
  8107f4:	dc000015 	stw	r16,0(sp)
  8107f8:	dfc00115 	stw	ra,4(sp)
  8107fc:	2021883a 	mov	r16,r4
  810800:	08109b40 	call	8109b4 <__call_exitprocs>
  810804:	00802074 	movhi	r2,129
  810808:	10889304 	addi	r2,r2,8780
  81080c:	11000017 	ldw	r4,0(r2)
  810810:	20800f17 	ldw	r2,60(r4)
  810814:	10000126 	beq	r2,zero,81081c <exit+0x30>
  810818:	103ee83a 	callr	r2
  81081c:	8009883a 	mov	r4,r16
  810820:	0810b480 	call	810b48 <_exit>

00810824 <memcmp>:
  810824:	01c000c4 	movi	r7,3
  810828:	3980192e 	bgeu	r7,r6,810890 <memcmp+0x6c>
  81082c:	2144b03a 	or	r2,r4,r5
  810830:	11c4703a 	and	r2,r2,r7
  810834:	10000f26 	beq	r2,zero,810874 <memcmp+0x50>
  810838:	20800003 	ldbu	r2,0(r4)
  81083c:	28c00003 	ldbu	r3,0(r5)
  810840:	10c0151e 	bne	r2,r3,810898 <memcmp+0x74>
  810844:	31bfff84 	addi	r6,r6,-2
  810848:	01ffffc4 	movi	r7,-1
  81084c:	00000406 	br	810860 <memcmp+0x3c>
  810850:	20800003 	ldbu	r2,0(r4)
  810854:	28c00003 	ldbu	r3,0(r5)
  810858:	31bfffc4 	addi	r6,r6,-1
  81085c:	10c00e1e 	bne	r2,r3,810898 <memcmp+0x74>
  810860:	21000044 	addi	r4,r4,1
  810864:	29400044 	addi	r5,r5,1
  810868:	31fff91e 	bne	r6,r7,810850 <__alt_data_end+0xff810850>
  81086c:	0005883a 	mov	r2,zero
  810870:	f800283a 	ret
  810874:	20c00017 	ldw	r3,0(r4)
  810878:	28800017 	ldw	r2,0(r5)
  81087c:	1880041e 	bne	r3,r2,810890 <memcmp+0x6c>
  810880:	31bfff04 	addi	r6,r6,-4
  810884:	21000104 	addi	r4,r4,4
  810888:	29400104 	addi	r5,r5,4
  81088c:	39bff936 	bltu	r7,r6,810874 <__alt_data_end+0xff810874>
  810890:	303fe91e 	bne	r6,zero,810838 <__alt_data_end+0xff810838>
  810894:	003ff506 	br	81086c <__alt_data_end+0xff81086c>
  810898:	10c5c83a 	sub	r2,r2,r3
  81089c:	f800283a 	ret

008108a0 <__register_exitproc>:
  8108a0:	00802074 	movhi	r2,129
  8108a4:	defffa04 	addi	sp,sp,-24
  8108a8:	10889304 	addi	r2,r2,8780
  8108ac:	dc000315 	stw	r16,12(sp)
  8108b0:	14000017 	ldw	r16,0(r2)
  8108b4:	dc400415 	stw	r17,16(sp)
  8108b8:	dfc00515 	stw	ra,20(sp)
  8108bc:	80805217 	ldw	r2,328(r16)
  8108c0:	2023883a 	mov	r17,r4
  8108c4:	10003626 	beq	r2,zero,8109a0 <__register_exitproc+0x100>
  8108c8:	10c00117 	ldw	r3,4(r2)
  8108cc:	010007c4 	movi	r4,31
  8108d0:	20c00e16 	blt	r4,r3,81090c <__register_exitproc+0x6c>
  8108d4:	1a400044 	addi	r9,r3,1
  8108d8:	8800211e 	bne	r17,zero,810960 <__register_exitproc+0xc0>
  8108dc:	18c00084 	addi	r3,r3,2
  8108e0:	18c7883a 	add	r3,r3,r3
  8108e4:	18c7883a 	add	r3,r3,r3
  8108e8:	12400115 	stw	r9,4(r2)
  8108ec:	10c7883a 	add	r3,r2,r3
  8108f0:	19400015 	stw	r5,0(r3)
  8108f4:	0005883a 	mov	r2,zero
  8108f8:	dfc00517 	ldw	ra,20(sp)
  8108fc:	dc400417 	ldw	r17,16(sp)
  810900:	dc000317 	ldw	r16,12(sp)
  810904:	dec00604 	addi	sp,sp,24
  810908:	f800283a 	ret
  81090c:	00800034 	movhi	r2,0
  810910:	10800004 	addi	r2,r2,0
  810914:	10002526 	beq	r2,zero,8109ac <__register_exitproc+0x10c>
  810918:	01006404 	movi	r4,400
  81091c:	d9400015 	stw	r5,0(sp)
  810920:	d9800115 	stw	r6,4(sp)
  810924:	d9c00215 	stw	r7,8(sp)
  810928:	00000000 	call	0 <__reset-0x800000>
  81092c:	d9400017 	ldw	r5,0(sp)
  810930:	d9800117 	ldw	r6,4(sp)
  810934:	d9c00217 	ldw	r7,8(sp)
  810938:	10001c26 	beq	r2,zero,8109ac <__register_exitproc+0x10c>
  81093c:	80c05217 	ldw	r3,328(r16)
  810940:	10000115 	stw	zero,4(r2)
  810944:	02400044 	movi	r9,1
  810948:	10c00015 	stw	r3,0(r2)
  81094c:	80805215 	stw	r2,328(r16)
  810950:	10006215 	stw	zero,392(r2)
  810954:	10006315 	stw	zero,396(r2)
  810958:	0007883a 	mov	r3,zero
  81095c:	883fdf26 	beq	r17,zero,8108dc <__alt_data_end+0xff8108dc>
  810960:	18d1883a 	add	r8,r3,r3
  810964:	4211883a 	add	r8,r8,r8
  810968:	1211883a 	add	r8,r2,r8
  81096c:	41802215 	stw	r6,136(r8)
  810970:	01000044 	movi	r4,1
  810974:	11806217 	ldw	r6,392(r2)
  810978:	20c8983a 	sll	r4,r4,r3
  81097c:	310cb03a 	or	r6,r6,r4
  810980:	11806215 	stw	r6,392(r2)
  810984:	41c04215 	stw	r7,264(r8)
  810988:	01800084 	movi	r6,2
  81098c:	89bfd31e 	bne	r17,r6,8108dc <__alt_data_end+0xff8108dc>
  810990:	11806317 	ldw	r6,396(r2)
  810994:	3108b03a 	or	r4,r6,r4
  810998:	11006315 	stw	r4,396(r2)
  81099c:	003fcf06 	br	8108dc <__alt_data_end+0xff8108dc>
  8109a0:	80805304 	addi	r2,r16,332
  8109a4:	80805215 	stw	r2,328(r16)
  8109a8:	003fc706 	br	8108c8 <__alt_data_end+0xff8108c8>
  8109ac:	00bfffc4 	movi	r2,-1
  8109b0:	003fd106 	br	8108f8 <__alt_data_end+0xff8108f8>

008109b4 <__call_exitprocs>:
  8109b4:	00802074 	movhi	r2,129
  8109b8:	10889304 	addi	r2,r2,8780
  8109bc:	10800017 	ldw	r2,0(r2)
  8109c0:	defff404 	addi	sp,sp,-48
  8109c4:	dd800815 	stw	r22,32(sp)
  8109c8:	d8800015 	stw	r2,0(sp)
  8109cc:	10805204 	addi	r2,r2,328
  8109d0:	dd000615 	stw	r20,24(sp)
  8109d4:	dc800415 	stw	r18,16(sp)
  8109d8:	dfc00b15 	stw	ra,44(sp)
  8109dc:	df000a15 	stw	fp,40(sp)
  8109e0:	ddc00915 	stw	r23,36(sp)
  8109e4:	dd400715 	stw	r21,28(sp)
  8109e8:	dcc00515 	stw	r19,20(sp)
  8109ec:	dc400315 	stw	r17,12(sp)
  8109f0:	dc000215 	stw	r16,8(sp)
  8109f4:	2025883a 	mov	r18,r4
  8109f8:	2829883a 	mov	r20,r5
  8109fc:	d8800115 	stw	r2,4(sp)
  810a00:	05bfffc4 	movi	r22,-1
  810a04:	d8800017 	ldw	r2,0(sp)
  810a08:	14c05217 	ldw	r19,328(r2)
  810a0c:	98001d26 	beq	r19,zero,810a84 <__call_exitprocs+0xd0>
  810a10:	dd400117 	ldw	r21,4(sp)
  810a14:	98800117 	ldw	r2,4(r19)
  810a18:	173fffc4 	addi	fp,r2,-1
  810a1c:	e0000d16 	blt	fp,zero,810a54 <__call_exitprocs+0xa0>
  810a20:	14000044 	addi	r16,r2,1
  810a24:	8421883a 	add	r16,r16,r16
  810a28:	8421883a 	add	r16,r16,r16
  810a2c:	84402004 	addi	r17,r16,128
  810a30:	9c63883a 	add	r17,r19,r17
  810a34:	9c21883a 	add	r16,r19,r16
  810a38:	a0001e26 	beq	r20,zero,810ab4 <__call_exitprocs+0x100>
  810a3c:	80804017 	ldw	r2,256(r16)
  810a40:	15001c26 	beq	r2,r20,810ab4 <__call_exitprocs+0x100>
  810a44:	e73fffc4 	addi	fp,fp,-1
  810a48:	843fff04 	addi	r16,r16,-4
  810a4c:	8c7fff04 	addi	r17,r17,-4
  810a50:	e5bff91e 	bne	fp,r22,810a38 <__alt_data_end+0xff810a38>
  810a54:	00800034 	movhi	r2,0
  810a58:	10800004 	addi	r2,r2,0
  810a5c:	10000926 	beq	r2,zero,810a84 <__call_exitprocs+0xd0>
  810a60:	98800117 	ldw	r2,4(r19)
  810a64:	1000311e 	bne	r2,zero,810b2c <__call_exitprocs+0x178>
  810a68:	98800017 	ldw	r2,0(r19)
  810a6c:	10003426 	beq	r2,zero,810b40 <__call_exitprocs+0x18c>
  810a70:	9809883a 	mov	r4,r19
  810a74:	a8800015 	stw	r2,0(r21)
  810a78:	00000000 	call	0 <__reset-0x800000>
  810a7c:	acc00017 	ldw	r19,0(r21)
  810a80:	983fe41e 	bne	r19,zero,810a14 <__alt_data_end+0xff810a14>
  810a84:	dfc00b17 	ldw	ra,44(sp)
  810a88:	df000a17 	ldw	fp,40(sp)
  810a8c:	ddc00917 	ldw	r23,36(sp)
  810a90:	dd800817 	ldw	r22,32(sp)
  810a94:	dd400717 	ldw	r21,28(sp)
  810a98:	dd000617 	ldw	r20,24(sp)
  810a9c:	dcc00517 	ldw	r19,20(sp)
  810aa0:	dc800417 	ldw	r18,16(sp)
  810aa4:	dc400317 	ldw	r17,12(sp)
  810aa8:	dc000217 	ldw	r16,8(sp)
  810aac:	dec00c04 	addi	sp,sp,48
  810ab0:	f800283a 	ret
  810ab4:	98800117 	ldw	r2,4(r19)
  810ab8:	80c00017 	ldw	r3,0(r16)
  810abc:	10bfffc4 	addi	r2,r2,-1
  810ac0:	17001526 	beq	r2,fp,810b18 <__call_exitprocs+0x164>
  810ac4:	80000015 	stw	zero,0(r16)
  810ac8:	183fde26 	beq	r3,zero,810a44 <__alt_data_end+0xff810a44>
  810acc:	00800044 	movi	r2,1
  810ad0:	1708983a 	sll	r4,r2,fp
  810ad4:	98806217 	ldw	r2,392(r19)
  810ad8:	9dc00117 	ldw	r23,4(r19)
  810adc:	2084703a 	and	r2,r4,r2
  810ae0:	1000061e 	bne	r2,zero,810afc <__call_exitprocs+0x148>
  810ae4:	183ee83a 	callr	r3
  810ae8:	98800117 	ldw	r2,4(r19)
  810aec:	15ffc51e 	bne	r2,r23,810a04 <__alt_data_end+0xff810a04>
  810af0:	a8800017 	ldw	r2,0(r21)
  810af4:	14ffd326 	beq	r2,r19,810a44 <__alt_data_end+0xff810a44>
  810af8:	003fc206 	br	810a04 <__alt_data_end+0xff810a04>
  810afc:	98806317 	ldw	r2,396(r19)
  810b00:	2084703a 	and	r2,r4,r2
  810b04:	1000061e 	bne	r2,zero,810b20 <__call_exitprocs+0x16c>
  810b08:	89400017 	ldw	r5,0(r17)
  810b0c:	9009883a 	mov	r4,r18
  810b10:	183ee83a 	callr	r3
  810b14:	003ff406 	br	810ae8 <__alt_data_end+0xff810ae8>
  810b18:	9f000115 	stw	fp,4(r19)
  810b1c:	003fea06 	br	810ac8 <__alt_data_end+0xff810ac8>
  810b20:	89000017 	ldw	r4,0(r17)
  810b24:	183ee83a 	callr	r3
  810b28:	003fef06 	br	810ae8 <__alt_data_end+0xff810ae8>
  810b2c:	98800017 	ldw	r2,0(r19)
  810b30:	982b883a 	mov	r21,r19
  810b34:	1027883a 	mov	r19,r2
  810b38:	983fb61e 	bne	r19,zero,810a14 <__alt_data_end+0xff810a14>
  810b3c:	003fd106 	br	810a84 <__alt_data_end+0xff810a84>
  810b40:	0005883a 	mov	r2,zero
  810b44:	003ffa06 	br	810b30 <__alt_data_end+0xff810b30>

00810b48 <_exit>:
  810b48:	defffd04 	addi	sp,sp,-12
  810b4c:	df000215 	stw	fp,8(sp)
  810b50:	df000204 	addi	fp,sp,8
  810b54:	e13fff15 	stw	r4,-4(fp)
  810b58:	0001883a 	nop
  810b5c:	e0bfff17 	ldw	r2,-4(fp)
  810b60:	e0bffe15 	stw	r2,-8(fp)
  810b64:	e0bffe17 	ldw	r2,-8(fp)
  810b68:	10000226 	beq	r2,zero,810b74 <_exit+0x2c>
  810b6c:	002af070 	cmpltui	zero,zero,43969
  810b70:	00000106 	br	810b78 <_exit+0x30>
  810b74:	002af0b0 	cmpltui	zero,zero,43970
  810b78:	003fff06 	br	810b78 <__alt_data_end+0xff810b78>
