
lab2.elf:     file format elf32-littlenios2
lab2.elf
architecture: nios2:r1, flags 0x00000112:
EXEC_P, HAS_SYMS, D_PAGED
start address 0x00800244

Program Header:
    LOAD off    0x00001000 vaddr 0x00800000 paddr 0x00800000 align 2**12
         filesz 0x00000020 memsz 0x00000020 flags r-x
    LOAD off    0x00001020 vaddr 0x00800020 paddr 0x00800020 align 2**12
         filesz 0x0001ba14 memsz 0x0001ba14 flags r-x
    LOAD off    0x0001ca34 vaddr 0x0081ba34 paddr 0x0081c748 align 2**12
         filesz 0x00000d14 memsz 0x00000d14 flags rw-
    LOAD off    0x0001e45c vaddr 0x0081d45c paddr 0x0081d45c align 2**12
         filesz 0x00000000 memsz 0x00006a50 flags rw-

Sections:
Idx Name          Size      VMA       LMA       File off  Algn
  0 .entry        00000020  00800000  00800000  00001000  2**5
                  CONTENTS, ALLOC, LOAD, READONLY, CODE
  1 .exceptions   00000224  00800020  00800020  00001020  2**2
                  CONTENTS, ALLOC, LOAD, READONLY, CODE
  2 .text         0001aed8  00800244  00800244  00001244  2**2
                  CONTENTS, ALLOC, LOAD, READONLY, CODE
  3 .rodata       00000918  0081b11c  0081b11c  0001c11c  2**2
                  CONTENTS, ALLOC, LOAD, READONLY, DATA
  4 .rwdata       00000d14  0081ba34  0081c748  0001ca34  2**2
                  CONTENTS, ALLOC, LOAD, DATA, SMALL_DATA
  5 .bss          00006a50  0081d45c  0081d45c  0001e45c  2**2
                  ALLOC, SMALL_DATA
  6 .sdram_0      00000000  00823eac  00823eac  0001d748  2**0
                  CONTENTS
  7 .comment      00000023  00000000  00000000  0001d748  2**0
                  CONTENTS, READONLY
  8 .debug_aranges 00001260  00000000  00000000  0001d770  2**3
                  CONTENTS, READONLY, DEBUGGING
  9 .debug_info   00030e5b  00000000  00000000  0001e9d0  2**0
                  CONTENTS, READONLY, DEBUGGING
 10 .debug_abbrev 0000bd0c  00000000  00000000  0004f82b  2**0
                  CONTENTS, READONLY, DEBUGGING
 11 .debug_line   0000f6b0  00000000  00000000  0005b537  2**0
                  CONTENTS, READONLY, DEBUGGING
 12 .debug_frame  00003740  00000000  00000000  0006abe8  2**2
                  CONTENTS, READONLY, DEBUGGING
 13 .debug_str    00004a0e  00000000  00000000  0006e328  2**0
                  CONTENTS, READONLY, DEBUGGING
 14 .debug_loc    00018a67  00000000  00000000  00072d36  2**0
                  CONTENTS, READONLY, DEBUGGING
 15 .debug_alt_sim_info 00000060  00000000  00000000  0008b7a0  2**2
                  CONTENTS, READONLY, DEBUGGING
 16 .debug_ranges 00001a38  00000000  00000000  0008b800  2**3
                  CONTENTS, READONLY, DEBUGGING
 17 .thread_model 00000003  00000000  00000000  00091cca  2**0
                  CONTENTS, READONLY
 18 .cpu          0000000c  00000000  00000000  00091ccd  2**0
                  CONTENTS, READONLY
 19 .qsys         00000001  00000000  00000000  00091cd9  2**0
                  CONTENTS, READONLY
 20 .simulation_enabled 00000001  00000000  00000000  00091cda  2**0
                  CONTENTS, READONLY
 21 .sysid_hash   00000004  00000000  00000000  00091cdb  2**0
                  CONTENTS, READONLY
 22 .sysid_base   00000004  00000000  00000000  00091cdf  2**0
                  CONTENTS, READONLY
 23 .sysid_time   00000004  00000000  00000000  00091ce3  2**0
                  CONTENTS, READONLY
 24 .stderr_dev   0000000b  00000000  00000000  00091ce7  2**0
                  CONTENTS, READONLY
 25 .stdin_dev    0000000b  00000000  00000000  00091cf2  2**0
                  CONTENTS, READONLY
 26 .stdout_dev   0000000b  00000000  00000000  00091cfd  2**0
                  CONTENTS, READONLY
 27 .sopc_system_name 0000000b  00000000  00000000  00091d08  2**0
                  CONTENTS, READONLY
 28 .quartus_project_dir 0000001c  00000000  00000000  00091d13  2**0
                  CONTENTS, READONLY
 29 .jdi          00004244  00000000  00000000  00091d2f  2**0
                  CONTENTS, READONLY
 30 .sopcinfo     0008ff21  00000000  00000000  00095f73  2**0
                  CONTENTS, READONLY
SYMBOL TABLE:
00800000 l    d  .entry	00000000 .entry
00800020 l    d  .exceptions	00000000 .exceptions
00800244 l    d  .text	00000000 .text
0081b11c l    d  .rodata	00000000 .rodata
0081ba34 l    d  .rwdata	00000000 .rwdata
0081d45c l    d  .bss	00000000 .bss
00823eac l    d  .sdram_0	00000000 .sdram_0
00000000 l    d  .comment	00000000 .comment
00000000 l    d  .debug_aranges	00000000 .debug_aranges
00000000 l    d  .debug_info	00000000 .debug_info
00000000 l    d  .debug_abbrev	00000000 .debug_abbrev
00000000 l    d  .debug_line	00000000 .debug_line
00000000 l    d  .debug_frame	00000000 .debug_frame
00000000 l    d  .debug_str	00000000 .debug_str
00000000 l    d  .debug_loc	00000000 .debug_loc
00000000 l    d  .debug_alt_sim_info	00000000 .debug_alt_sim_info
00000000 l    d  .debug_ranges	00000000 .debug_ranges
00000000 l    df *ABS*	00000000 ../lab2_bsp//obj/HAL/src/crt0.o
0080028c l       .text	00000000 alt_after_alt_main
00000000 l    df *ABS*	00000000 alt_irq_handler.c
00000000 l    df *ABS*	00000000 alt_instruction_exception_entry.c
00000000 l    df *ABS*	00000000 fatfs.c
00000000 l    df *ABS*	00000000 fatfs_diskio.c
0081c6f0 l     O .rwdata	00000001 Stat
0081d45c l     O .bss	00000001 CardType
0081d45e l     O .bss	00000002 Timer1
0081d460 l     O .bss	00000002 Timer2
0081d462 l     O .bss	00000001 XMITDummy
0081d464 l     O .bss	00000004 Control1
008002b4 l     F .text	0000004c SetLowSpeed
00800300 l     F .text	0000006c SetHighSpeed
0080036c l     F .text	00000044 InitDiskIOHardware
008003b0 l     F .text	0000003c Set8BitTransfer
008003ec l     F .text	00000038 Set32BitTransfer
00800424 l     F .text	00000050 ReceiveU8
00800474 l     F .text	0000012c ReceiveDatablock
008005a0 l     F .text	00000188 TransmitDatablock
0080074c l     F .text	00000054 WaitReady
00800728 l     F .text	00000024 GetCDWP
008007a0 l     F .text	00000044 ReleaseBus
008007e4 l     F .text	00000250 SendCMD
0081d468 l     O .bss	00000004 pvm.1830
00000000 l    df *ABS*	00000000 fatfs_nios2_de0_nano_spi.c
00000000 l    df *ABS*	00000000 fatfs_nios2_de1_pio.c
00000000 l    df *ABS*	00000000 fatfs_nios2_de1_spi.c
00000000 l    df *ABS*	00000000 ff.c
0081d46c l     O .bss	00000004 FatFs
0081d470 l     O .bss	00000002 Fsid
00801548 l     F .text	0000006c mem_cpy
008015b4 l     F .text	00000058 mem_set
0080160c l     F .text	0000008c mem_cmp
00801698 l     F .text	0000007c chk_chr
00801714 l     F .text	0000015c move_window
00801870 l     F .text	0000021c sync
008020ec l     F .text	00000114 remove_chain
00802200 l     F .text	000001e4 create_chain
008023e4 l     F .text	000001ec dir_sdi
008025d0 l     F .text	000002e8 dir_next
008028b8 l     F .text	000000f4 dir_find
008029ac l     F .text	000000fc dir_read
00802aa8 l     F .text	00000120 dir_register
00802bc8 l     F .text	00000098 dir_remove
00802c60 l     F .text	000002ec create_name
0081b160 l     O .rodata	00000080 excvt.1856
00802f4c l     F .text	00000230 get_fileinfo
0080317c l     F .text	000001d0 follow_path
0080334c l     F .text	00000174 check_fs
008034c0 l     F .text	0000093c chk_mounted
00803dfc l     F .text	00000090 validate
0081b1e0 l     O .rodata	00000016 vst.2095
0081b1f6 l     O .rodata	00000016 cst.2096
00000000 l    df *ABS*	00000000 hello_world.c
0081d520 l     O .bss	00000018 alarm
0081d47c l     O .bss	00000004 Systick
0081d480 l     O .bss	00000002 Timer
0081c6fc l     O .rwdata	00000004 ft
00807ff4 l     F .text	00000068 TimerFunction
0081d488 l     O .bss	00000002 wTimer10ms.3530
0080805c l     F .text	00000050 IoInit
008080ac l     F .text	000000a4 put_rc
00000000 l    df *ABS*	00000000 helpers.c
00000000 l    df *ABS*	00000000 monitor.c
00000000 l    df *ABS*	00000000 uart_nios2.c
00000000 l    df *ABS*	00000000 lib2-divmod.c
00809678 l     F .text	0000006c udivmodsi4
00000000 l    df *ABS*	00000000 fopen.c
00000000 l    df *ABS*	00000000 fprintf.c
00000000 l    df *ABS*	00000000 fseek.c
00000000 l    df *ABS*	00000000 fseeko.c
00000000 l    df *ABS*	00000000 fstatr.c
00000000 l    df *ABS*	00000000 getc.c
00000000 l    df *ABS*	00000000 impure.c
0081ba34 l     O .rwdata	00000424 impure_data
00000000 l    df *ABS*	00000000 int_errno.c
00000000 l    df *ABS*	00000000 makebuf.c
00000000 l    df *ABS*	00000000 mallocr.c
00000000 l    df *ABS*	00000000 memset.c
00000000 l    df *ABS*	00000000 openr.c
00000000 l    df *ABS*	00000000 printf.c
00000000 l    df *ABS*	00000000 putchar.c
00000000 l    df *ABS*	00000000 puts.c
00000000 l    df *ABS*	00000000 refill.c
0080ab00 l     F .text	0000001c lflush
00000000 l    df *ABS*	00000000 rget.c
00000000 l    df *ABS*	00000000 sbrkr.c
00000000 l    df *ABS*	00000000 stdio.c
00000000 l    df *ABS*	00000000 strlen.c
00000000 l    df *ABS*	00000000 strstr.c
0080afa0 l     F .text	000000fc critical_factorization
0080b09c l     F .text	00000374 two_way_long_needle
00000000 l    df *ABS*	00000000 vfprintf.c
0081b4be l     O .rodata	00000010 zeroes.4255
0080d6fc l     F .text	000000bc __sbprintf
0081b4ce l     O .rodata	00000010 blanks.4254
00000000 l    df *ABS*	00000000 writer.c
00000000 l    df *ABS*	00000000 wsetup.c
00000000 l    df *ABS*	00000000 closer.c
00000000 l    df *ABS*	00000000 dtoa.c
0080d9bc l     F .text	00000200 quorem
00000000 l    df *ABS*	00000000 fflush.c
00000000 l    df *ABS*	00000000 findfp.c
0080f578 l     F .text	00000008 __fp_lock
0080f580 l     F .text	00000008 __fp_unlock
0080f594 l     F .text	0000019c __sinit.part.1
00000000 l    df *ABS*	00000000 flags.c
00000000 l    df *ABS*	00000000 mallocr.c
00000000 l    df *ABS*	00000000 fvwrite.c
00000000 l    df *ABS*	00000000 fwalk.c
00000000 l    df *ABS*	00000000 isattyr.c
00000000 l    df *ABS*	00000000 locale.c
0081c280 l     O .rwdata	00000020 lc_ctype_charset
0081c260 l     O .rwdata	00000020 lc_message_charset
0081c2a0 l     O .rwdata	00000038 lconv
00000000 l    df *ABS*	00000000 lseekr.c
00000000 l    df *ABS*	00000000 memchr.c
00000000 l    df *ABS*	00000000 memcmp.c
00000000 l    df *ABS*	00000000 memcpy.c
00000000 l    df *ABS*	00000000 memmove.c
00000000 l    df *ABS*	00000000 mprec.c
0081b4fc l     O .rodata	0000000c p05.2710
00000000 l    df *ABS*	00000000 putc.c
00000000 l    df *ABS*	00000000 readr.c
00000000 l    df *ABS*	00000000 mallocr.c
00000000 l    df *ABS*	00000000 s_fpclassify.c
00000000 l    df *ABS*	00000000 strchr.c
00000000 l    df *ABS*	00000000 strcmp.c
00000000 l    df *ABS*	00000000 vfprintf.c
008122f4 l     F .text	000000fc __sprint_r.part.0
0081b630 l     O .rodata	00000010 blanks.4199
0081b620 l     O .rodata	00000010 zeroes.4200
008136fc l     F .text	000000bc __sbprintf
00000000 l    df *ABS*	00000000 wbuf.c
00000000 l    df *ABS*	00000000 mallocr.c
00000000 l    df *ABS*	00000000 fclose.c
00000000 l    df *ABS*	00000000 fputwc.c
00000000 l    df *ABS*	00000000 wcrtomb.c
00000000 l    df *ABS*	00000000 wctomb_r.c
00000000 l    df *ABS*	00000000 libgcc2.c
00000000 l    df *ABS*	00000000 libgcc2.c
00000000 l    df *ABS*	00000000 adddf3.c
00000000 l    df *ABS*	00000000 divdf3.c
00000000 l    df *ABS*	00000000 eqdf2.c
00000000 l    df *ABS*	00000000 gedf2.c
00000000 l    df *ABS*	00000000 ledf2.c
00000000 l    df *ABS*	00000000 muldf3.c
00000000 l    df *ABS*	00000000 subdf3.c
00000000 l    df *ABS*	00000000 fixdfsi.c
00000000 l    df *ABS*	00000000 floatsidf.c
00000000 l    df *ABS*	00000000 floatunsidf.c
00000000 l    df *ABS*	00000000 libgcc2.c
00000000 l    df *ABS*	00000000 libgcc2.c
00000000 l    df *ABS*	00000000 alt_alarm_start.c
00000000 l    df *ABS*	00000000 alt_close.c
0081712c l     F .text	00000050 alt_get_errno
00000000 l    df *ABS*	00000000 alt_dev.c
0081724c l     F .text	0000002c alt_dev_null_write
00000000 l    df *ABS*	00000000 alt_errno.c
00000000 l    df *ABS*	00000000 alt_fstat.c
00817278 l     F .text	00000050 alt_get_errno
00000000 l    df *ABS*	00000000 alt_irq_register.c
00000000 l    df *ABS*	00000000 alt_irq_vars.c
00000000 l    df *ABS*	00000000 alt_isatty.c
00817528 l     F .text	00000050 alt_get_errno
00000000 l    df *ABS*	00000000 alt_load.c
0081761c l     F .text	00000064 alt_load_section
00000000 l    df *ABS*	00000000 alt_lseek.c
00817700 l     F .text	00000050 alt_get_errno
00000000 l    df *ABS*	00000000 alt_main.c
00000000 l    df *ABS*	00000000 alt_malloc_lock.c
00000000 l    df *ABS*	00000000 alt_open.c
008178dc l     F .text	00000050 alt_get_errno
0081792c l     F .text	000000cc alt_file_locked
00000000 l    df *ABS*	00000000 alt_printf.c
00000000 l    df *ABS*	00000000 alt_putchar.c
00000000 l    df *ABS*	00000000 alt_read.c
00817dbc l     F .text	00000050 alt_get_errno
00000000 l    df *ABS*	00000000 alt_release_fd.c
00000000 l    df *ABS*	00000000 alt_sbrk.c
0081c734 l     O .rwdata	00000004 heap_end
00000000 l    df *ABS*	00000000 alt_tick.c
00000000 l    df *ABS*	00000000 alt_write.c
008181b4 l     F .text	00000050 alt_get_errno
00000000 l    df *ABS*	00000000 alt_sys_init.c
008182fc l     F .text	00000038 alt_dev_reg
0081c480 l     O .rwdata	0000002c jtag_uart_0
0081c4ac l     O .rwdata	00000120 lcd_display
0081c5cc l     O .rwdata	000000c4 uart
0081c690 l     O .rwdata	00000030 audio_i2c
0081c6c0 l     O .rwdata	00000030 Audio
00000000 l    df *ABS*	00000000 altera_avalon_jtag_uart_fd.c
00000000 l    df *ABS*	00000000 altera_avalon_jtag_uart_read.c
00000000 l    df *ABS*	00000000 altera_avalon_jtag_uart_write.c
00000000 l    df *ABS*	00000000 altera_avalon_lcd_16207.c
0081c740 l     O .rwdata	00000004 colstart
00818624 l     F .text	000000b4 lcd_write_command
008186d8 l     F .text	000000d4 lcd_write_data
008187ac l     F .text	000000cc lcd_clear_screen
00818878 l     F .text	000001e8 lcd_repaint_screen
00818a60 l     F .text	000000c8 lcd_scroll_up
00818b28 l     F .text	000002a0 lcd_handle_escape
008192b0 l     F .text	000000ac alt_lcd_16207_timeout
00000000 l    df *ABS*	00000000 altera_avalon_lcd_16207_fd.c
00000000 l    df *ABS*	00000000 altera_avalon_uart_fd.c
00000000 l    df *ABS*	00000000 altera_avalon_uart_init.c
008196a4 l     F .text	0000009c altera_avalon_uart_irq
00819740 l     F .text	000000e0 altera_avalon_uart_rxirq
00819820 l     F .text	00000144 altera_avalon_uart_txirq
00000000 l    df *ABS*	00000000 altera_avalon_uart_read.c
008199b8 l     F .text	00000050 alt_get_errno
00000000 l    df *ABS*	00000000 altera_avalon_uart_write.c
00819be4 l     F .text	00000050 alt_get_errno
00000000 l    df *ABS*	00000000 altera_up_avalon_audio.c
00000000 l    df *ABS*	00000000 alt_dcache_flush_all.c
00000000 l    df *ABS*	00000000 alt_dev_llist_insert.c
0081a5b8 l     F .text	00000050 alt_get_errno
00000000 l    df *ABS*	00000000 alt_do_ctors.c
00000000 l    df *ABS*	00000000 alt_do_dtors.c
00000000 l    df *ABS*	00000000 alt_find_dev.c
00000000 l    df *ABS*	00000000 alt_find_file.c
00000000 l    df *ABS*	00000000 alt_get_fd.c
00000000 l    df *ABS*	00000000 alt_icache_flush_all.c
00000000 l    df *ABS*	00000000 alt_io_redirect.c
0081a9ec l     F .text	000000c0 alt_open_fd
00000000 l    df *ABS*	00000000 alt_usleep.c
00000000 l    df *ABS*	00000000 altera_nios2_gen2_irq.c
00000000 l    df *ABS*	00000000 alt_busy_sleep.c
00000000 l    df *ABS*	00000000 alt_icache_flush.c
00000000 l    df *ABS*	00000000 atexit.c
00000000 l    df *ABS*	00000000 ctype_.c
0081b8b1 l     O .rodata	00000180 _ctype_b
00000000 l    df *ABS*	00000000 exit.c
00000000 l    df *ABS*	00000000 __atexit.c
00000000 l    df *ABS*	00000000 __call_atexit.c
00000000 l    df *ABS*	00000000 alt_exit.c
0081d51c g     O .bss	00000004 alt_instruction_exception_handler
0080aa2c g     F .text	00000018 putchar
0081d474 g     O .bss	00000004 ofs
008117d0 g     F .text	00000074 _mprec_log10
008118bc g     F .text	0000008c __any_on
00810420 g     F .text	00000054 _isatty_r
0081b508 g     O .rodata	00000028 __mprec_tinytens
008077c8 g     F .text	000000d0 f_gets
00817824 g     F .text	00000078 alt_main
008081f0 g     F .text	00000050 file_open
0080aa44 g     F .text	000000a8 _puts_r
0081d560 g     O .bss	00000230 Fatfs
00823dac g     O .bss	00000100 alt_irq
00810554 g     F .text	0000005c _lseek_r
00801af8 g     F .text	00000284 get_fat
0081c748 g       *ABS*	00000000 __flash_rwdata_start
0080f918 g     F .text	000000ac __sflags
00815b54 g     F .text	00000084 .hidden __eqdf2
0081a078 g     F .text	00000060 alt_up_audio_read_fifo_avail
00823eac g       *ABS*	00000000 __alt_heap_start
008095e8 g     F .text	00000038 uart0_put
0080a9e8 g     F .text	0000003c printf
008079a4 g     F .text	00000650 f_printf
0081a0d8 g     F .text	00000068 alt_up_audio_record_r
00813cb4 g     F .text	0000009c _wcrtomb_r
0080aea4 g     F .text	0000005c __sseek
0080f8c8 g     F .text	00000010 __sinit
008137b8 g     F .text	00000138 __swbuf_r
0081d790 g     O .bss	00002000 right_buffer
0081d48c g     O .bss	00000004 lcd
00810474 g     F .text	0000007c _setlocale_r
0080f730 g     F .text	00000068 __sfmoreglue
008178bc g     F .text	00000020 __malloc_unlock
0081d490 g     O .bss	00000004 num_bytes
0081d494 g     O .bss	00000002 w1
0081f790 g     O .bss	00000224 File1
00819fe8 g     F .text	00000090 alt_up_audio_reset_audio_core
0081084c g     F .text	0000015c memmove
0080f8b0 g     F .text	00000018 _cleanup
008109a8 g     F .text	000000a8 _Balloc
00815bd8 g     F .text	000000e0 .hidden __gtdf2
0081ab54 g     F .text	00000020 altera_nios2_gen2_irq_init
00000000  w      *UND*	00000000 __errno
0081d478 g     O .bss	00000004 file_index
00800000 g     F .entry	0000001c __reset
00800020 g       *ABS*	00000000 __flash_exceptions_start
0081d498 g     O .bss	00000004 p2
00809d8c g     F .text	00000058 _fstat_r
0081d4e8 g     O .bss	00000004 errno
0080ad64 g     F .text	00000014 __srget
0080ae20 g     F .text	00000008 __seofread
00800f08 g     F .text	0000016c ffs_DiskIOWrite
00819fa8 g     F .text	00000040 alt_up_audio_write_interrupt_pending
0081d50c g     O .bss	00000004 alt_argv
008246f0 g       *ABS*	00000000 _gp
0081ab24 g     F .text	00000030 usleep
0081d49c g     O .bss	00000004 fs
0081c300 g     O .rwdata	00000180 alt_fd_list
0081f9b4 g     O .bss	00000018 Finfo
00809de4 g     F .text	00000070 _getc_r
00809e54 g     F .text	00000088 getc
0080aa24 g     F .text	00000008 _putchar_r
00801074 g     F .text	000004a8 ffs_DiskIOIoctl
0081a764 g     F .text	00000090 alt_find_dev
00810714 g     F .text	00000138 memcpy
0081f9cc g     O .bss	00002000 left_buffer
0080f588 g     F .text	0000000c _cleanup_r
00816e14 g     F .text	000000d0 .hidden __floatsidf
0081aaac g     F .text	00000078 alt_io_redirect
00815cb8 g     F .text	000000e0 .hidden __ltdf2
0081b11c g       *ABS*	00000000 __DTOR_END__
0080aaec g     F .text	00000014 puts
0081ad58 g     F .text	0000009c alt_exception_cause_generated_bad_addr
00812078 g     F .text	00000074 __fpclassifyd
0081172c g     F .text	000000a4 __ratio
008136d8 g     F .text	00000024 __vfiprintf_internal
008065f8 g     F .text	00000314 f_rename
0081a4c0 g     F .text	00000050 alt_up_audio_read_fifo_head
008184ac g     F .text	000000e4 altera_avalon_jtag_uart_read
00000000  w      *UND*	00000000 malloc
0080a9bc g     F .text	0000002c _printf_r
00809794 g     F .text	00000008 .hidden __udivsi3
00817578 g     F .text	000000a4 isatty
0081b558 g     O .rodata	000000c8 __mprec_tens
0081d4a0 g     O .bss	00000002 acc_dirs
0081d4a2 g     O .bss	00000001 b1
008104f0 g     F .text	0000000c __locale_charset
00808f8c g     F .text	000001b8 xitoa
0081d4a4 g     O .bss	00000004 cnt
0081accc g     F .text	0000008c alt_icache_flush
0081d4f4 g     O .bss	00000004 __malloc_top_pad
00805ba0 g     F .text	000001e8 f_truncate
00808c50 g     F .text	00000284 xatoi
0081c710 g     O .rwdata	00000004 __mb_cur_max
00810520 g     F .text	0000000c _localeconv_r
00810db4 g     F .text	0000003c __i2b
0080fdd8 g     F .text	000004c0 __sfvwrite_r
0081d4a8 g     O .bss	00000004 audio_dev
0080ad78 g     F .text	00000054 _sbrk_r
008093f0 g     F .text	0000011c put_dump
0081d4ac g     O .bss	00000004 ptr
00811ab4 g     F .text	0000005c _read_r
0081c728 g     O .rwdata	00000004 alt_max_fd
0081a510 g     F .text	00000064 alt_up_audio_write_fifo_head
00808488 g     F .text	00000208 button_ISR
008139d0 g     F .text	000000f0 _fclose_r
0081d4b0 g     O .bss	00000002 acc_files
0080f548 g     F .text	00000030 fflush
0081d4f0 g     O .bss	00000004 __malloc_max_sbrked_mem
00817378 g     F .text	000001b0 alt_irq_register
008149ec g     F .text	0000089c .hidden __adddf3
008114d4 g     F .text	0000011c __b2d
0081445c g     F .text	00000590 .hidden __umoddi3
00817750 g     F .text	000000d4 lseek
0081c700 g     O .rwdata	00000004 _global_impure_ptr
0081d4b4 g     O .bss	00000004 run_state
00811b10 g     F .text	00000568 _realloc_r
00823eac g       *ABS*	00000000 __bss_end
008180b0 g     F .text	00000104 alt_tick
00813e9c g     F .text	000005c0 .hidden __udivdi3
00813ad4 g     F .text	00000184 _fputwc_r
0081b530 g     O .rodata	00000028 __mprec_bigtens
00810b98 g     F .text	00000104 __s2b
00816ee4 g     F .text	000000a4 .hidden __floatunsidf
00808150 g     F .text	0000004c disk_init
0081127c g     F .text	00000060 __mcmp
00819604 g     F .text	000000a0 altera_avalon_uart_init
00819de0 g     F .text	00000040 alt_up_audio_open_dev
0080f8e8 g     F .text	00000018 __fp_lock_all
00805d88 g     F .text	00000218 f_unlink
0081a208 g     F .text	00000068 alt_up_audio_play_r
00818018 g     F .text	00000098 alt_alarm_stop
00809144 g     F .text	000002ac xprintf
0081d504 g     O .bss	00000004 alt_irq_active
00809924 g     F .text	00000444 _fseeko_r
0081d4b8 g     O .bss	00000004 s1
0080950c g     F .text	000000bc get_line
008000fc g     F .exceptions	000000d4 alt_irq_handler
0081c2d8 g     O .rwdata	00000028 alt_dev_null
00807898 g     F .text	00000074 f_putc
0080790c g     F .text	00000098 f_puts
0081a574 g     F .text	00000044 alt_dcache_flush_all
00810c9c g     F .text	00000068 __hi0bits
008219cc g     O .bss	00000050 file_name
00816d8c g     F .text	00000088 .hidden __fixdfsi
0081d4bc g     O .bss	00000004 p1
0081c748 g       *ABS*	00000000 __ram_rwdata_end
0081c720 g     O .rwdata	00000008 alt_dev_list
00818204 g     F .text	000000f8 write
00811948 g     F .text	000000a0 _putc_r
0081ba34 g       *ABS*	00000000 __ram_rodata_end
008172c8 g     F .text	000000b0 fstat
008098d8 g     F .text	00000024 fprintf
00815cb8 g     F .text	000000e0 .hidden __ledf2
00810fec g     F .text	00000140 __pow5mult
00812408 g     F .text	000012d0 ___vfiprintf_internal_r
0081d500 g     O .bss	00000004 __nlocale_changed
0080979c g     F .text	00000008 .hidden __umodsi3
00823eac g       *ABS*	00000000 end
00818dc8 g     F .text	000004e8 altera_avalon_lcd_16207_write
00809d68 g     F .text	00000024 fseeko
0081d4c0 g     O .bss	00000004 r_buf
00819c34 g     F .text	000001ac altera_avalon_uart_write
00809900 g     F .text	00000024 fseek
008001d0 g     F .exceptions	00000074 alt_instruction_exception_entry
0081b11c g       *ABS*	00000000 __CTOR_LIST__
01000000 g       *ABS*	00000000 __alt_stack_pointer
00819554 g     F .text	00000060 altera_avalon_uart_write_fd
00816f88 g     F .text	00000064 .hidden __clzsi2
008195b4 g     F .text	00000050 altera_avalon_uart_close_fd
00818590 g     F .text	00000094 altera_avalon_jtag_uart_write
0080f8d8 g     F .text	00000004 __sfp_lock_acquire
008105b0 g     F .text	000000e8 memchr
0080b788 g     F .text	00001f50 ___vfprintf_internal_r
0080fae8 g     F .text	000002f0 _free_r
00817b50 g     F .text	00000228 alt_printf
008104fc g     F .text	00000010 __locale_mb_cur_max
00808f24 g     F .text	00000068 xputs
0081d4c4 g     O .bss	00000008 blk
0081af54 g     F .text	00000194 __call_exitprocs
0080acf0 g     F .text	00000074 __srget_r
0081d4cc g     O .bss	00000004 ptr2
0081c6f8 g     O .rwdata	00000004 blen
008095c8 g     F .text	00000020 uart0_init
00821a1c g     O .bss	00002000 Buff
0081d4fc g     O .bss	00000004 __mlocale_changed
0080508c g     F .text	00000048 f_close
0081c708 g     O .rwdata	00000004 __malloc_sbrk_base
00800244 g     F .text	0000004c _start
0081d514 g     O .bss	00000004 _alt_tick_rate
00808240 g     F .text	00000048 is_wav
0080b410 g     F .text	00000378 strstr
00808288 g     F .text	000001b8 play_file
0081a3b8 g     F .text	00000108 alt_up_audio_write_fifo
0081112c g     F .text	00000150 __lshift
0081d518 g     O .bss	00000004 _alt_nticks
00817e0c g     F .text	000000fc read
00818368 g     F .text	00000084 alt_sys_init
0081a2d8 g     F .text	000000e0 alt_up_audio_read_fifo
0080a960 g     F .text	0000005c _open_r
0081ae40 g     F .text	00000114 __register_exitproc
008043a4 g     F .text	000004e4 f_read
00819f14 g     F .text	00000054 alt_up_audio_disable_write_interrupt
00810df0 g     F .text	000001fc __multiply
00805730 g     F .text	000000e4 f_readdir
00808440 g     F .text	00000048 lcd_print
0081ba34 g       *ABS*	00000000 __ram_rwdata_start
00800dec g     F .text	0000011c ffs_DiskIORead
0081b11c g       *ABS*	00000000 __ram_rodata_start
0081d538 g     O .bss	00000028 __malloc_current_mallinfo
008115f0 g     F .text	0000013c __d2b
008063e0 g     F .text	00000104 f_chmod
00823a1c g     O .bss	00000224 File2
008183ec g     F .text	00000060 altera_avalon_jtag_uart_read_fd
0081a908 g     F .text	000000b4 alt_get_fd
00800a60 g     F .text	00000108 ffs_DiskIOTimerproc
0081ab74 g     F .text	00000158 alt_busy_sleep
0080d968 g     F .text	00000054 _close_r
00819ec4 g     F .text	00000050 alt_up_audio_enable_write_interrupt
00800b68 g     F .text	0000025c ffs_DiskIOInitialize
00810698 g     F .text	0000007c memcmp
0080819c g     F .text	00000054 filesys_init
00823eac g       *ABS*	00000000 __alt_stack_base
0080d814 g     F .text	00000154 __swsetup_r
00823c40 g     O .bss	0000001c Dir
00815288 g     F .text	000008cc .hidden __divdf3
00819e70 g     F .text	00000054 alt_up_audio_disable_read_interrupt
0080f798 g     F .text	00000118 __sfp
00811844 g     F .text	00000078 __copybits
0081be58 g     O .rwdata	00000408 __malloc_av_
0080f8e4 g     F .text	00000004 __sinit_lock_release
00815d98 g     F .text	00000724 .hidden __muldf3
0080adcc g     F .text	00000054 __sread
0081d4d0 g     O .bss	00000004 acc_size
0080151c g     F .text	0000002c get_fattime
0081a7f4 g     F .text	00000114 alt_find_file
0081a608 g     F .text	000000a4 alt_dev_llist_insert
0081789c g     F .text	00000020 __malloc_lock
008098b0 g     F .text	00000028 _fprintf_r
00817f68 g     F .text	000000b0 sbrk
0080f4ec g     F .text	0000005c _fflush_r
0081390c g     F .text	000000c4 _calloc_r
0081d4d4 g     O .bss	00000004 fifospace
00809894 g     F .text	0000001c fopen
0081d45c g       *ABS*	00000000 __bss_start
0080a83c g     F .text	00000124 memset
00808690 g     F .text	000005c0 main
0081a1a8 g     F .text	00000060 alt_up_audio_write_fifo_space
0081d510 g     O .bss	00000004 alt_envp
0081d4ec g     O .bss	00000004 __malloc_max_total_mem
0081844c g     F .text	00000060 altera_avalon_jtag_uart_write_fd
008138f0 g     F .text	0000001c __swbuf
00804e04 g     F .text	00000288 f_sync
0081935c g     F .text	00000138 altera_avalon_lcd_16207_init
0080af00 g     F .text	00000008 __sclose
01000000 g       *ABS*	00000000 __alt_heap_limit
00813ac0 g     F .text	00000014 fclose
0080dbbc g     F .text	00001728 _dtoa_r
0080a094 g     F .text	000007a8 _malloc_r
00813e10 g     F .text	00000030 __ascii_wctomb
00823c5c g     O .bss	00000100 Line
0080690c g     F .text	00000ebc f_mkfs
0081c72c g     O .rwdata	00000004 alt_errno
00803e8c g     F .text	00000094 f_mount
00810298 g     F .text	000000c4 _fwalk
008055c0 g     F .text	00000170 f_opendir
008119e8 g     F .text	000000cc putc
008096e4 g     F .text	00000054 .hidden __divsi3
0080f9c4 g     F .text	00000124 _malloc_trim_r
0081b11c g       *ABS*	00000000 __CTOR_END__
00812250 g     F .text	000000a4 strcmp
0081b11c g       *ABS*	00000000 __flash_rodata_start
0081b11c g       *ABS*	00000000 __DTOR_LIST__
00801d7c g     F .text	00000370 put_fat
00808ed4 g     F .text	00000050 xputc
00815b54 g     F .text	00000084 .hidden __nedf2
00818334 g     F .text	00000034 alt_irq_init
00817f08 g     F .text	00000060 alt_release_fd
008050d4 g     F .text	000004ec f_lseek
0081b640 g     O .rodata	00000100 .hidden __clz_tab
0081d4f8 g     O .bss	00000004 _PathLocale
0081d484 g     O .bss	00000004 sect
0081adf4 g     F .text	00000014 atexit
0080d7b8 g     F .text	0000005c _write_r
0081052c g     F .text	0000001c setlocale
0081d4d8 g     O .bss	00000004 s2
0081c704 g     O .rwdata	00000004 _impure_ptr
0081d508 g     O .bss	00000004 alt_argc
0080f2e4 g     F .text	00000208 __sflush_r
0081a708 g     F .text	0000005c _do_dtors
00810518 g     F .text	00000008 __locale_cjk_lang
008098fc g     F .text	00000004 _fseek_r
0080ab1c g     F .text	000001d4 __srefill_r
00800000 g       *ABS*	00000000 __alt_mem_sdram_0
00800020 g       .exceptions	00000000 alt_irq_entry
00800dc4 g     F .text	00000028 ffs_DiskIOStatus
00811474 g     F .text	00000060 __ulp
00805814 g     F .text	000000a0 f_stat
0080f900 g     F .text	00000018 __fp_unlock_all
00819494 g     F .text	00000060 altera_avalon_lcd_16207_write_fd
0081c718 g     O .rwdata	00000008 alt_fs_list
0081a140 g     F .text	00000068 alt_up_audio_record_l
00800020 g       *ABS*	00000000 __ram_exceptions_start
00810548 g     F .text	0000000c localeconv
00801a8c g     F .text	0000006c clust2sect
0081d4dc g     O .bss	00000004 p3
0081c748 g       *ABS*	00000000 _edata
008064e4 g     F .text	00000114 f_utime
008194f4 g     F .text	00000060 altera_avalon_uart_read_fd
00823eac g       *ABS*	00000000 _end
00800244 g       *ABS*	00000000 __ram_exceptions_end
00804888 g     F .text	0000057c f_write
0081d4e0 g     O .bss	00000004 l_buf
0081a270 g     F .text	00000068 alt_up_audio_play_l
0080ae28 g     F .text	0000007c __swrite
0081c70c g     O .rwdata	00000004 __malloc_trim_threshold
00803f20 g     F .text	00000484 f_open
0081d4e4 g     O .bss	00000001 res
0081050c g     F .text	0000000c __locale_msgcharset
0081ae08 g     F .text	00000038 exit
0081035c g     F .text	000000c4 _fwalk_reent
008112dc g     F .text	00000198 __mdiff
0081c6f4 g     O .rwdata	00000004 read_amt
00809738 g     F .text	0000005c .hidden __modsi3
0081c744 g     O .rwdata	00000004 __ctype_ptr__
01000000 g       *ABS*	00000000 __alt_data_end
00800020 g     F .exceptions	00000000 alt_exception
0080f8dc g     F .text	00000004 __sfp_lock_release
0081d482 g     O .bss	00000001 drv
0081b7b0 g     O .rodata	00000101 _ctype_
00809620 g     F .text	00000058 uart0_get
00805fa0 g     F .text	00000440 f_mkdir
00819964 g     F .text	00000054 altera_avalon_uart_close
008097a4 g     F .text	000000f0 _fopen_r
0081b0e8 g     F .text	00000034 _exit
00800290 g     F .text	00000024 ffs_Init
00816fec g     F .text	00000140 alt_alarm_start
00809edc g     F .text	000001b8 __smakebuf_r
0080af08 g     F .text	00000098 strlen
008179f8 g     F .text	00000158 open
00815bd8 g     F .text	000000e0 .hidden __gedf2
00817d78 g     F .text	00000044 alt_putchar
0081c714 g     O .rwdata	00000004 __wctomb
008123f0 g     F .text	00000018 __sprint_r
0081a9bc g     F .text	00000030 alt_icache_flush_all
008120ec g     F .text	00000164 strchr
008058b4 g     F .text	000002ec f_getfree
0081c730 g     O .rwdata	00000004 alt_priority_mask
0080d6d8 g     F .text	00000024 __vfprintf_internal
00819a08 g     F .text	000001dc altera_avalon_uart_read
00813e40 g     F .text	0000005c _wctomb_r
008164bc g     F .text	000008d0 .hidden __subdf3
00800a34 g     F .text	0000002c ffs_DiskIOInit
00810d04 g     F .text	000000b0 __lo0bits
0081c738 g     O .rwdata	00000008 alt_alarm_list
0081a6ac g     F .text	0000005c _do_ctors
00813d50 g     F .text	000000c0 wcrtomb
0081717c g     F .text	000000d0 close
00817680 g     F .text	00000080 alt_load
00819e20 g     F .text	00000050 alt_up_audio_enable_read_interrupt
00813c58 g     F .text	0000005c fputwc
00823d5c g     O .bss	00000050 file_size
00000000  w      *UND*	00000000 free
0080f8e0 g     F .text	00000004 __sinit_lock_acquire
00810a78 g     F .text	00000120 __multadd
00810a50 g     F .text	00000028 _Bfree
00819f68 g     F .text	00000040 alt_up_audio_read_interrupt_pending



Disassembly of section .entry:

00800000 <__reset>:
  800000:	00840014 	movui	r2,4096
  800004:	1001483a 	initi	r2
  800008:	10bff804 	addi	r2,r2,-32
  80000c:	00bffd16 	blt	zero,r2,800004 <__alt_data_end+0xff800004>
  800010:	00402034 	movhi	at,128
  800014:	08409114 	ori	at,at,580
  800018:	0800683a 	jmp	at
  80001c:	00000000 	call	0 <__reset-0x800000>

Disassembly of section .exceptions:

00800020 <alt_exception>:
  800020:	deffed04 	addi	sp,sp,-76
  800024:	dfc00015 	stw	ra,0(sp)
  800028:	d8400215 	stw	at,8(sp)
  80002c:	d8800315 	stw	r2,12(sp)
  800030:	d8c00415 	stw	r3,16(sp)
  800034:	d9000515 	stw	r4,20(sp)
  800038:	d9400615 	stw	r5,24(sp)
  80003c:	d9800715 	stw	r6,28(sp)
  800040:	d9c00815 	stw	r7,32(sp)
  800044:	000b307a 	rdctl	r5,estatus
  800048:	da000915 	stw	r8,36(sp)
  80004c:	da400a15 	stw	r9,40(sp)
  800050:	da800b15 	stw	r10,44(sp)
  800054:	dac00c15 	stw	r11,48(sp)
  800058:	db000d15 	stw	r12,52(sp)
  80005c:	db400e15 	stw	r13,56(sp)
  800060:	db800f15 	stw	r14,60(sp)
  800064:	dbc01015 	stw	r15,64(sp)
  800068:	d9401115 	stw	r5,68(sp)
  80006c:	ebffff04 	addi	r15,ea,-4
  800070:	dbc01215 	stw	r15,72(sp)
  800074:	0009313a 	rdctl	r4,ipending
  800078:	2880004c 	andi	r2,r5,1
  80007c:	10000326 	beq	r2,zero,80008c <alt_exception+0x6c>
  800080:	20000226 	beq	r4,zero,80008c <alt_exception+0x6c>
  800084:	08000fc0 	call	8000fc <alt_irq_handler>
  800088:	00000706 	br	8000a8 <alt_exception+0x88>
  80008c:	df401215 	stw	ea,72(sp)
  800090:	e8bfff17 	ldw	r2,-4(ea)
  800094:	e93fff04 	addi	r4,ea,-4
  800098:	08001d00 	call	8001d0 <alt_instruction_exception_entry>
  80009c:	1000021e 	bne	r2,zero,8000a8 <alt_exception+0x88>
  8000a0:	ebffff04 	addi	r15,ea,-4
  8000a4:	dbc01215 	stw	r15,72(sp)
  8000a8:	d9401117 	ldw	r5,68(sp)
  8000ac:	df401217 	ldw	ea,72(sp)
  8000b0:	dfc00017 	ldw	ra,0(sp)
  8000b4:	2801707a 	wrctl	estatus,r5
  8000b8:	d8400217 	ldw	at,8(sp)
  8000bc:	d8800317 	ldw	r2,12(sp)
  8000c0:	d8c00417 	ldw	r3,16(sp)
  8000c4:	d9000517 	ldw	r4,20(sp)
  8000c8:	d9400617 	ldw	r5,24(sp)
  8000cc:	d9800717 	ldw	r6,28(sp)
  8000d0:	d9c00817 	ldw	r7,32(sp)
  8000d4:	da000917 	ldw	r8,36(sp)
  8000d8:	da400a17 	ldw	r9,40(sp)
  8000dc:	da800b17 	ldw	r10,44(sp)
  8000e0:	dac00c17 	ldw	r11,48(sp)
  8000e4:	db000d17 	ldw	r12,52(sp)
  8000e8:	db400e17 	ldw	r13,56(sp)
  8000ec:	db800f17 	ldw	r14,60(sp)
  8000f0:	dbc01017 	ldw	r15,64(sp)
  8000f4:	dec01304 	addi	sp,sp,76
  8000f8:	ef80083a 	eret

008000fc <alt_irq_handler>:
  8000fc:	defff904 	addi	sp,sp,-28
  800100:	dfc00615 	stw	ra,24(sp)
  800104:	df000515 	stw	fp,20(sp)
  800108:	df000504 	addi	fp,sp,20
  80010c:	0001883a 	nop
  800110:	0005313a 	rdctl	r2,ipending
  800114:	e0bffe15 	stw	r2,-8(fp)
  800118:	e0bffe17 	ldw	r2,-8(fp)
  80011c:	e0bffb15 	stw	r2,-20(fp)
  800120:	e03ffd15 	stw	zero,-12(fp)
  800124:	00800044 	movi	r2,1
  800128:	e0bffc15 	stw	r2,-16(fp)
  80012c:	e0fffb17 	ldw	r3,-20(fp)
  800130:	e0bffc17 	ldw	r2,-16(fp)
  800134:	1884703a 	and	r2,r3,r2
  800138:	10001526 	beq	r2,zero,800190 <alt_irq_handler+0x94>
  80013c:	008020b4 	movhi	r2,130
  800140:	108f6b04 	addi	r2,r2,15788
  800144:	e0fffd17 	ldw	r3,-12(fp)
  800148:	180690fa 	slli	r3,r3,3
  80014c:	10c5883a 	add	r2,r2,r3
  800150:	10c00017 	ldw	r3,0(r2)
  800154:	008020b4 	movhi	r2,130
  800158:	108f6b04 	addi	r2,r2,15788
  80015c:	e13ffd17 	ldw	r4,-12(fp)
  800160:	200890fa 	slli	r4,r4,3
  800164:	21000104 	addi	r4,r4,4
  800168:	1105883a 	add	r2,r2,r4
  80016c:	10800017 	ldw	r2,0(r2)
  800170:	1009883a 	mov	r4,r2
  800174:	e17ffd17 	ldw	r5,-12(fp)
  800178:	183ee83a 	callr	r3
  80017c:	0001883a 	nop
  800180:	0005313a 	rdctl	r2,ipending
  800184:	e0bfff15 	stw	r2,-4(fp)
  800188:	e0bfff17 	ldw	r2,-4(fp)
  80018c:	00000706 	br	8001ac <alt_irq_handler+0xb0>
  800190:	e0bffc17 	ldw	r2,-16(fp)
  800194:	1085883a 	add	r2,r2,r2
  800198:	e0bffc15 	stw	r2,-16(fp)
  80019c:	e0bffd17 	ldw	r2,-12(fp)
  8001a0:	10800044 	addi	r2,r2,1
  8001a4:	e0bffd15 	stw	r2,-12(fp)
  8001a8:	003fe006 	br	80012c <__alt_data_end+0xff80012c>
  8001ac:	e0bffb15 	stw	r2,-20(fp)
  8001b0:	e0bffb17 	ldw	r2,-20(fp)
  8001b4:	103fda1e 	bne	r2,zero,800120 <__alt_data_end+0xff800120>
  8001b8:	0001883a 	nop
  8001bc:	e037883a 	mov	sp,fp
  8001c0:	dfc00117 	ldw	ra,4(sp)
  8001c4:	df000017 	ldw	fp,0(sp)
  8001c8:	dec00204 	addi	sp,sp,8
  8001cc:	f800283a 	ret

008001d0 <alt_instruction_exception_entry>:
  8001d0:	defffb04 	addi	sp,sp,-20
  8001d4:	dfc00415 	stw	ra,16(sp)
  8001d8:	df000315 	stw	fp,12(sp)
  8001dc:	df000304 	addi	fp,sp,12
  8001e0:	e13fff15 	stw	r4,-4(fp)
  8001e4:	000531fa 	rdctl	r2,exception
  8001e8:	e0bffd15 	stw	r2,-12(fp)
  8001ec:	e0bffd17 	ldw	r2,-12(fp)
  8001f0:	10801f0c 	andi	r2,r2,124
  8001f4:	1004d0ba 	srli	r2,r2,2
  8001f8:	e0bffd15 	stw	r2,-12(fp)
  8001fc:	0005333a 	rdctl	r2,badaddr
  800200:	e0bffe15 	stw	r2,-8(fp)
  800204:	d0a38b17 	ldw	r2,-29140(gp)
  800208:	10000726 	beq	r2,zero,800228 <alt_instruction_exception_entry+0x58>
  80020c:	d0a38b17 	ldw	r2,-29140(gp)
  800210:	e0fffd17 	ldw	r3,-12(fp)
  800214:	1809883a 	mov	r4,r3
  800218:	e17fff17 	ldw	r5,-4(fp)
  80021c:	e1bffe17 	ldw	r6,-8(fp)
  800220:	103ee83a 	callr	r2
  800224:	00000206 	br	800230 <alt_instruction_exception_entry+0x60>
  800228:	003da03a 	break	0
  80022c:	0005883a 	mov	r2,zero
  800230:	e037883a 	mov	sp,fp
  800234:	dfc00117 	ldw	ra,4(sp)
  800238:	df000017 	ldw	fp,0(sp)
  80023c:	dec00204 	addi	sp,sp,8
  800240:	f800283a 	ret

Disassembly of section .text:

00800244 <_start>:
  800244:	00820014 	movui	r2,2048
  800248:	10000033 	initd	0(r2)
  80024c:	10bff804 	addi	r2,r2,-32
  800250:	00bffd16 	blt	zero,r2,800248 <__alt_data_end+0xff800248>
  800254:	06c04034 	movhi	sp,256
  800258:	dec00014 	ori	sp,sp,0
  80025c:	068020b4 	movhi	gp,130
  800260:	d691bc14 	ori	gp,gp,18160
  800264:	00802074 	movhi	r2,129
  800268:	10b51714 	ori	r2,r2,54364
  80026c:	00c020b4 	movhi	r3,130
  800270:	18cfab14 	ori	r3,r3,16044
  800274:	10c00326 	beq	r2,r3,800284 <_start+0x40>
  800278:	10000015 	stw	zero,0(r2)
  80027c:	10800104 	addi	r2,r2,4
  800280:	10fffd36 	bltu	r2,r3,800278 <__alt_data_end+0xff800278>
  800284:	08176800 	call	817680 <alt_load>
  800288:	08178240 	call	817824 <alt_main>

0080028c <alt_after_alt_main>:
  80028c:	003fff06 	br	80028c <__alt_data_end+0xff80028c>

00800290 <ffs_Init>:
  800290:	defffe04 	addi	sp,sp,-8
  800294:	df000115 	stw	fp,4(sp)
  800298:	df000104 	addi	fp,sp,4
  80029c:	e03fff0d 	sth	zero,-4(fp)
  8002a0:	e0bfff0b 	ldhu	r2,-4(fp)
  8002a4:	e037883a 	mov	sp,fp
  8002a8:	df000017 	ldw	fp,0(sp)
  8002ac:	dec00104 	addi	sp,sp,4
  8002b0:	f800283a 	ret

008002b4 <SetLowSpeed>:
  8002b4:	deffff04 	addi	sp,sp,-4
  8002b8:	df000015 	stw	fp,0(sp)
  8002bc:	d839883a 	mov	fp,sp
  8002c0:	d0e35d17 	ldw	r3,-29324(gp)
  8002c4:	00bffff4 	movhi	r2,65535
  8002c8:	10803fc4 	addi	r2,r2,255
  8002cc:	1884703a 	and	r2,r3,r2
  8002d0:	d0a35d15 	stw	r2,-29324(gp)
  8002d4:	d0a35d17 	ldw	r2,-29324(gp)
  8002d8:	10be4014 	ori	r2,r2,63744
  8002dc:	d0a35d15 	stw	r2,-29324(gp)
  8002e0:	00a04034 	movhi	r2,33024
  8002e4:	10841204 	addi	r2,r2,4168
  8002e8:	d0e35d17 	ldw	r3,-29324(gp)
  8002ec:	10c00015 	stw	r3,0(r2)
  8002f0:	e037883a 	mov	sp,fp
  8002f4:	df000017 	ldw	fp,0(sp)
  8002f8:	dec00104 	addi	sp,sp,4
  8002fc:	f800283a 	ret

00800300 <SetHighSpeed>:
  800300:	deffff04 	addi	sp,sp,-4
  800304:	df000015 	stw	fp,0(sp)
  800308:	d839883a 	mov	fp,sp
  80030c:	d0e35d17 	ldw	r3,-29324(gp)
  800310:	00bffff4 	movhi	r2,65535
  800314:	10803fc4 	addi	r2,r2,255
  800318:	1884703a 	and	r2,r3,r2
  80031c:	d0a35d15 	stw	r2,-29324(gp)
  800320:	d0a35b03 	ldbu	r2,-29332(gp)
  800324:	10803fcc 	andi	r2,r2,255
  800328:	1080004c 	andi	r2,r2,1
  80032c:	1000041e 	bne	r2,zero,800340 <SetHighSpeed+0x40>
  800330:	d0a35d17 	ldw	r2,-29324(gp)
  800334:	10804014 	ori	r2,r2,256
  800338:	d0a35d15 	stw	r2,-29324(gp)
  80033c:	00000306 	br	80034c <SetHighSpeed+0x4c>
  800340:	d0a35d17 	ldw	r2,-29324(gp)
  800344:	10808014 	ori	r2,r2,512
  800348:	d0a35d15 	stw	r2,-29324(gp)
  80034c:	00a04034 	movhi	r2,33024
  800350:	10841204 	addi	r2,r2,4168
  800354:	d0e35d17 	ldw	r3,-29324(gp)
  800358:	10c00015 	stw	r3,0(r2)
  80035c:	e037883a 	mov	sp,fp
  800360:	df000017 	ldw	fp,0(sp)
  800364:	dec00104 	addi	sp,sp,4
  800368:	f800283a 	ret

0080036c <InitDiskIOHardware>:
  80036c:	defffe04 	addi	sp,sp,-8
  800370:	dfc00115 	stw	ra,4(sp)
  800374:	df000015 	stw	fp,0(sp)
  800378:	d839883a 	mov	fp,sp
  80037c:	d0a35d17 	ldw	r2,-29324(gp)
  800380:	10800054 	ori	r2,r2,1
  800384:	d0a35d15 	stw	r2,-29324(gp)
  800388:	00a04034 	movhi	r2,33024
  80038c:	10841204 	addi	r2,r2,4168
  800390:	d0e35d17 	ldw	r3,-29324(gp)
  800394:	10c00015 	stw	r3,0(r2)
  800398:	08002b40 	call	8002b4 <SetLowSpeed>
  80039c:	e037883a 	mov	sp,fp
  8003a0:	dfc00117 	ldw	ra,4(sp)
  8003a4:	df000017 	ldw	fp,0(sp)
  8003a8:	dec00204 	addi	sp,sp,8
  8003ac:	f800283a 	ret

008003b0 <Set8BitTransfer>:
  8003b0:	deffff04 	addi	sp,sp,-4
  8003b4:	df000015 	stw	fp,0(sp)
  8003b8:	d839883a 	mov	fp,sp
  8003bc:	d0e35d17 	ldw	r3,-29324(gp)
  8003c0:	00bfff44 	movi	r2,-3
  8003c4:	1884703a 	and	r2,r3,r2
  8003c8:	d0a35d15 	stw	r2,-29324(gp)
  8003cc:	00a04034 	movhi	r2,33024
  8003d0:	10841204 	addi	r2,r2,4168
  8003d4:	d0e35d17 	ldw	r3,-29324(gp)
  8003d8:	10c00015 	stw	r3,0(r2)
  8003dc:	e037883a 	mov	sp,fp
  8003e0:	df000017 	ldw	fp,0(sp)
  8003e4:	dec00104 	addi	sp,sp,4
  8003e8:	f800283a 	ret

008003ec <Set32BitTransfer>:
  8003ec:	deffff04 	addi	sp,sp,-4
  8003f0:	df000015 	stw	fp,0(sp)
  8003f4:	d839883a 	mov	fp,sp
  8003f8:	d0a35d17 	ldw	r2,-29324(gp)
  8003fc:	10800094 	ori	r2,r2,2
  800400:	d0a35d15 	stw	r2,-29324(gp)
  800404:	00a04034 	movhi	r2,33024
  800408:	10841204 	addi	r2,r2,4168
  80040c:	d0e35d17 	ldw	r3,-29324(gp)
  800410:	10c00015 	stw	r3,0(r2)
  800414:	e037883a 	mov	sp,fp
  800418:	df000017 	ldw	fp,0(sp)
  80041c:	dec00104 	addi	sp,sp,4
  800420:	f800283a 	ret

00800424 <ReceiveU8>:
  800424:	deffff04 	addi	sp,sp,-4
  800428:	df000015 	stw	fp,0(sp)
  80042c:	d839883a 	mov	fp,sp
  800430:	00a04034 	movhi	r2,33024
  800434:	10841004 	addi	r2,r2,4160
  800438:	00c03fc4 	movi	r3,255
  80043c:	10c00015 	stw	r3,0(r2)
  800440:	0001883a 	nop
  800444:	00a04034 	movhi	r2,33024
  800448:	10841304 	addi	r2,r2,4172
  80044c:	10800017 	ldw	r2,0(r2)
  800450:	1080004c 	andi	r2,r2,1
  800454:	103ffb26 	beq	r2,zero,800444 <__alt_data_end+0xff800444>
  800458:	00a04034 	movhi	r2,33024
  80045c:	10841104 	addi	r2,r2,4164
  800460:	10800017 	ldw	r2,0(r2)
  800464:	e037883a 	mov	sp,fp
  800468:	df000017 	ldw	fp,0(sp)
  80046c:	dec00104 	addi	sp,sp,4
  800470:	f800283a 	ret

00800474 <ReceiveDatablock>:
  800474:	defff904 	addi	sp,sp,-28
  800478:	dfc00615 	stw	ra,24(sp)
  80047c:	df000515 	stw	fp,20(sp)
  800480:	df000504 	addi	fp,sp,20
  800484:	e13ffe15 	stw	r4,-8(fp)
  800488:	e17fff15 	stw	r5,-4(fp)
  80048c:	e0bffe17 	ldw	r2,-8(fp)
  800490:	e0bffc15 	stw	r2,-16(fp)
  800494:	00800284 	movi	r2,10
  800498:	d0a35b8d 	sth	r2,-29330(gp)
  80049c:	08004240 	call	800424 <ReceiveU8>
  8004a0:	e0bffd05 	stb	r2,-12(fp)
  8004a4:	e0bffd03 	ldbu	r2,-12(fp)
  8004a8:	10803fd8 	cmpnei	r2,r2,255
  8004ac:	1000031e 	bne	r2,zero,8004bc <ReceiveDatablock+0x48>
  8004b0:	d0a35b8b 	ldhu	r2,-29330(gp)
  8004b4:	10bfffcc 	andi	r2,r2,65535
  8004b8:	103ff81e 	bne	r2,zero,80049c <__alt_data_end+0xff80049c>
  8004bc:	e0bffd03 	ldbu	r2,-12(fp)
  8004c0:	10803fa0 	cmpeqi	r2,r2,254
  8004c4:	1000021e 	bne	r2,zero,8004d0 <ReceiveDatablock+0x5c>
  8004c8:	0005883a 	mov	r2,zero
  8004cc:	00002f06 	br	80058c <ReceiveDatablock+0x118>
  8004d0:	08003ec0 	call	8003ec <Set32BitTransfer>
  8004d4:	e0bfff17 	ldw	r2,-4(fp)
  8004d8:	1004d0fa 	srli	r2,r2,3
  8004dc:	e0bffb05 	stb	r2,-20(fp)
  8004e0:	00a04034 	movhi	r2,33024
  8004e4:	10841004 	addi	r2,r2,4160
  8004e8:	00ffffc4 	movi	r3,-1
  8004ec:	10c00015 	stw	r3,0(r2)
  8004f0:	0001883a 	nop
  8004f4:	00a04034 	movhi	r2,33024
  8004f8:	10841304 	addi	r2,r2,4172
  8004fc:	10800017 	ldw	r2,0(r2)
  800500:	1080004c 	andi	r2,r2,1
  800504:	103ffb26 	beq	r2,zero,8004f4 <__alt_data_end+0xff8004f4>
  800508:	e0fffc17 	ldw	r3,-16(fp)
  80050c:	18800104 	addi	r2,r3,4
  800510:	e0bffc15 	stw	r2,-16(fp)
  800514:	00a04034 	movhi	r2,33024
  800518:	10841104 	addi	r2,r2,4164
  80051c:	10800017 	ldw	r2,0(r2)
  800520:	18800015 	stw	r2,0(r3)
  800524:	00a04034 	movhi	r2,33024
  800528:	10841004 	addi	r2,r2,4160
  80052c:	00ffffc4 	movi	r3,-1
  800530:	10c00015 	stw	r3,0(r2)
  800534:	0001883a 	nop
  800538:	00a04034 	movhi	r2,33024
  80053c:	10841304 	addi	r2,r2,4172
  800540:	10800017 	ldw	r2,0(r2)
  800544:	1080004c 	andi	r2,r2,1
  800548:	103ffb26 	beq	r2,zero,800538 <__alt_data_end+0xff800538>
  80054c:	e0fffc17 	ldw	r3,-16(fp)
  800550:	18800104 	addi	r2,r3,4
  800554:	e0bffc15 	stw	r2,-16(fp)
  800558:	00a04034 	movhi	r2,33024
  80055c:	10841104 	addi	r2,r2,4164
  800560:	10800017 	ldw	r2,0(r2)
  800564:	18800015 	stw	r2,0(r3)
  800568:	e0bffb03 	ldbu	r2,-20(fp)
  80056c:	10bfffc4 	addi	r2,r2,-1
  800570:	e0bffb05 	stb	r2,-20(fp)
  800574:	e0bffb03 	ldbu	r2,-20(fp)
  800578:	103fd91e 	bne	r2,zero,8004e0 <__alt_data_end+0xff8004e0>
  80057c:	08003b00 	call	8003b0 <Set8BitTransfer>
  800580:	08004240 	call	800424 <ReceiveU8>
  800584:	08004240 	call	800424 <ReceiveU8>
  800588:	00800044 	movi	r2,1
  80058c:	e037883a 	mov	sp,fp
  800590:	dfc00117 	ldw	ra,4(sp)
  800594:	df000017 	ldw	fp,0(sp)
  800598:	dec00204 	addi	sp,sp,8
  80059c:	f800283a 	ret

008005a0 <TransmitDatablock>:
  8005a0:	defff904 	addi	sp,sp,-28
  8005a4:	dfc00615 	stw	ra,24(sp)
  8005a8:	df000515 	stw	fp,20(sp)
  8005ac:	df000504 	addi	fp,sp,20
  8005b0:	e13ffe15 	stw	r4,-8(fp)
  8005b4:	2805883a 	mov	r2,r5
  8005b8:	e0bfff05 	stb	r2,-4(fp)
  8005bc:	e03ffb05 	stb	zero,-20(fp)
  8005c0:	e0bffe17 	ldw	r2,-8(fp)
  8005c4:	e0bffc15 	stw	r2,-16(fp)
  8005c8:	080074c0 	call	80074c <WaitReady>
  8005cc:	10803fcc 	andi	r2,r2,255
  8005d0:	10803fe0 	cmpeqi	r2,r2,255
  8005d4:	1000021e 	bne	r2,zero,8005e0 <TransmitDatablock+0x40>
  8005d8:	0005883a 	mov	r2,zero
  8005dc:	00004d06 	br	800714 <TransmitDatablock+0x174>
  8005e0:	00a04034 	movhi	r2,33024
  8005e4:	10841004 	addi	r2,r2,4160
  8005e8:	e0ffff03 	ldbu	r3,-4(fp)
  8005ec:	10c00015 	stw	r3,0(r2)
  8005f0:	0001883a 	nop
  8005f4:	00a04034 	movhi	r2,33024
  8005f8:	10841304 	addi	r2,r2,4172
  8005fc:	10800017 	ldw	r2,0(r2)
  800600:	1080004c 	andi	r2,r2,1
  800604:	103ffb26 	beq	r2,zero,8005f4 <__alt_data_end+0xff8005f4>
  800608:	e0bfff03 	ldbu	r2,-4(fp)
  80060c:	10803f60 	cmpeqi	r2,r2,253
  800610:	10003f1e 	bne	r2,zero,800710 <TransmitDatablock+0x170>
  800614:	00801004 	movi	r2,64
  800618:	e0bffb05 	stb	r2,-20(fp)
  80061c:	08003ec0 	call	8003ec <Set32BitTransfer>
  800620:	00a04034 	movhi	r2,33024
  800624:	10841004 	addi	r2,r2,4160
  800628:	e0fffc17 	ldw	r3,-16(fp)
  80062c:	19000104 	addi	r4,r3,4
  800630:	e13ffc15 	stw	r4,-16(fp)
  800634:	18c00017 	ldw	r3,0(r3)
  800638:	10c00015 	stw	r3,0(r2)
  80063c:	0001883a 	nop
  800640:	00a04034 	movhi	r2,33024
  800644:	10841304 	addi	r2,r2,4172
  800648:	10800017 	ldw	r2,0(r2)
  80064c:	1080004c 	andi	r2,r2,1
  800650:	103ffb26 	beq	r2,zero,800640 <__alt_data_end+0xff800640>
  800654:	00a04034 	movhi	r2,33024
  800658:	10841004 	addi	r2,r2,4160
  80065c:	e0fffc17 	ldw	r3,-16(fp)
  800660:	19000104 	addi	r4,r3,4
  800664:	e13ffc15 	stw	r4,-16(fp)
  800668:	18c00017 	ldw	r3,0(r3)
  80066c:	10c00015 	stw	r3,0(r2)
  800670:	0001883a 	nop
  800674:	00a04034 	movhi	r2,33024
  800678:	10841304 	addi	r2,r2,4172
  80067c:	10800017 	ldw	r2,0(r2)
  800680:	1080004c 	andi	r2,r2,1
  800684:	103ffb26 	beq	r2,zero,800674 <__alt_data_end+0xff800674>
  800688:	e0bffb03 	ldbu	r2,-20(fp)
  80068c:	10bfffc4 	addi	r2,r2,-1
  800690:	e0bffb05 	stb	r2,-20(fp)
  800694:	e0bffb03 	ldbu	r2,-20(fp)
  800698:	103fe11e 	bne	r2,zero,800620 <__alt_data_end+0xff800620>
  80069c:	08003b00 	call	8003b0 <Set8BitTransfer>
  8006a0:	00a04034 	movhi	r2,33024
  8006a4:	10841004 	addi	r2,r2,4160
  8006a8:	00c03fc4 	movi	r3,255
  8006ac:	10c00015 	stw	r3,0(r2)
  8006b0:	0001883a 	nop
  8006b4:	00a04034 	movhi	r2,33024
  8006b8:	10841304 	addi	r2,r2,4172
  8006bc:	10800017 	ldw	r2,0(r2)
  8006c0:	1080004c 	andi	r2,r2,1
  8006c4:	103ffb26 	beq	r2,zero,8006b4 <__alt_data_end+0xff8006b4>
  8006c8:	00a04034 	movhi	r2,33024
  8006cc:	10841004 	addi	r2,r2,4160
  8006d0:	00c03fc4 	movi	r3,255
  8006d4:	10c00015 	stw	r3,0(r2)
  8006d8:	0001883a 	nop
  8006dc:	00a04034 	movhi	r2,33024
  8006e0:	10841304 	addi	r2,r2,4172
  8006e4:	10800017 	ldw	r2,0(r2)
  8006e8:	1080004c 	andi	r2,r2,1
  8006ec:	103ffb26 	beq	r2,zero,8006dc <__alt_data_end+0xff8006dc>
  8006f0:	08004240 	call	800424 <ReceiveU8>
  8006f4:	e0bffd05 	stb	r2,-12(fp)
  8006f8:	e0bffd03 	ldbu	r2,-12(fp)
  8006fc:	108007cc 	andi	r2,r2,31
  800700:	10800160 	cmpeqi	r2,r2,5
  800704:	1000021e 	bne	r2,zero,800710 <TransmitDatablock+0x170>
  800708:	0005883a 	mov	r2,zero
  80070c:	00000106 	br	800714 <TransmitDatablock+0x174>
  800710:	00800044 	movi	r2,1
  800714:	e037883a 	mov	sp,fp
  800718:	dfc00117 	ldw	ra,4(sp)
  80071c:	df000017 	ldw	fp,0(sp)
  800720:	dec00204 	addi	sp,sp,8
  800724:	f800283a 	ret

00800728 <GetCDWP>:
  800728:	defffe04 	addi	sp,sp,-8
  80072c:	df000115 	stw	fp,4(sp)
  800730:	df000104 	addi	fp,sp,4
  800734:	e03fff15 	stw	zero,-4(fp)
  800738:	e0bfff17 	ldw	r2,-4(fp)
  80073c:	e037883a 	mov	sp,fp
  800740:	df000017 	ldw	fp,0(sp)
  800744:	dec00104 	addi	sp,sp,4
  800748:	f800283a 	ret

0080074c <WaitReady>:
  80074c:	defffd04 	addi	sp,sp,-12
  800750:	dfc00215 	stw	ra,8(sp)
  800754:	df000115 	stw	fp,4(sp)
  800758:	df000104 	addi	fp,sp,4
  80075c:	00800c84 	movi	r2,50
  800760:	d0a35c0d 	sth	r2,-29328(gp)
  800764:	08004240 	call	800424 <ReceiveU8>
  800768:	08004240 	call	800424 <ReceiveU8>
  80076c:	e0bfff05 	stb	r2,-4(fp)
  800770:	e0bfff03 	ldbu	r2,-4(fp)
  800774:	10803fe0 	cmpeqi	r2,r2,255
  800778:	1000031e 	bne	r2,zero,800788 <WaitReady+0x3c>
  80077c:	d0a35c0b 	ldhu	r2,-29328(gp)
  800780:	10bfffcc 	andi	r2,r2,65535
  800784:	103ff81e 	bne	r2,zero,800768 <__alt_data_end+0xff800768>
  800788:	e0bfff03 	ldbu	r2,-4(fp)
  80078c:	e037883a 	mov	sp,fp
  800790:	dfc00117 	ldw	ra,4(sp)
  800794:	df000017 	ldw	fp,0(sp)
  800798:	dec00204 	addi	sp,sp,8
  80079c:	f800283a 	ret

008007a0 <ReleaseBus>:
  8007a0:	defffe04 	addi	sp,sp,-8
  8007a4:	dfc00115 	stw	ra,4(sp)
  8007a8:	df000015 	stw	fp,0(sp)
  8007ac:	d839883a 	mov	fp,sp
  8007b0:	d0a35d17 	ldw	r2,-29324(gp)
  8007b4:	10800054 	ori	r2,r2,1
  8007b8:	d0a35d15 	stw	r2,-29324(gp)
  8007bc:	00a04034 	movhi	r2,33024
  8007c0:	10841204 	addi	r2,r2,4168
  8007c4:	d0e35d17 	ldw	r3,-29324(gp)
  8007c8:	10c00015 	stw	r3,0(r2)
  8007cc:	08004240 	call	800424 <ReceiveU8>
  8007d0:	e037883a 	mov	sp,fp
  8007d4:	dfc00117 	ldw	ra,4(sp)
  8007d8:	df000017 	ldw	fp,0(sp)
  8007dc:	dec00204 	addi	sp,sp,8
  8007e0:	f800283a 	ret

008007e4 <SendCMD>:
  8007e4:	defffb04 	addi	sp,sp,-20
  8007e8:	dfc00415 	stw	ra,16(sp)
  8007ec:	df000315 	stw	fp,12(sp)
  8007f0:	df000304 	addi	fp,sp,12
  8007f4:	2005883a 	mov	r2,r4
  8007f8:	e17fff15 	stw	r5,-4(fp)
  8007fc:	e0bffe05 	stb	r2,-8(fp)
  800800:	e0bffe03 	ldbu	r2,-8(fp)
  800804:	10803fcc 	andi	r2,r2,255
  800808:	1080201c 	xori	r2,r2,128
  80080c:	10bfe004 	addi	r2,r2,-128
  800810:	10000c0e 	bge	r2,zero,800844 <SendCMD+0x60>
  800814:	e0bffe03 	ldbu	r2,-8(fp)
  800818:	10801fcc 	andi	r2,r2,127
  80081c:	e0bffe05 	stb	r2,-8(fp)
  800820:	01001dc4 	movi	r4,119
  800824:	000b883a 	mov	r5,zero
  800828:	08007e40 	call	8007e4 <SendCMD>
  80082c:	e0bffd45 	stb	r2,-11(fp)
  800830:	e0bffd43 	ldbu	r2,-11(fp)
  800834:	108000b0 	cmpltui	r2,r2,2
  800838:	1000021e 	bne	r2,zero,800844 <SendCMD+0x60>
  80083c:	e0bffd43 	ldbu	r2,-11(fp)
  800840:	00007706 	br	800a20 <SendCMD+0x23c>
  800844:	d0a35d17 	ldw	r2,-29324(gp)
  800848:	10800054 	ori	r2,r2,1
  80084c:	d0a35d15 	stw	r2,-29324(gp)
  800850:	00a04034 	movhi	r2,33024
  800854:	10841204 	addi	r2,r2,4168
  800858:	d0e35d17 	ldw	r3,-29324(gp)
  80085c:	10c00015 	stw	r3,0(r2)
  800860:	d0e35d17 	ldw	r3,-29324(gp)
  800864:	00bfff84 	movi	r2,-2
  800868:	1884703a 	and	r2,r3,r2
  80086c:	d0a35d15 	stw	r2,-29324(gp)
  800870:	00a04034 	movhi	r2,33024
  800874:	10841204 	addi	r2,r2,4168
  800878:	d0e35d17 	ldw	r3,-29324(gp)
  80087c:	10c00015 	stw	r3,0(r2)
  800880:	080074c0 	call	80074c <WaitReady>
  800884:	10803fcc 	andi	r2,r2,255
  800888:	10803fe0 	cmpeqi	r2,r2,255
  80088c:	1000021e 	bne	r2,zero,800898 <SendCMD+0xb4>
  800890:	00bfffc4 	movi	r2,-1
  800894:	00006206 	br	800a20 <SendCMD+0x23c>
  800898:	00a04034 	movhi	r2,33024
  80089c:	10841004 	addi	r2,r2,4160
  8008a0:	e0fffe03 	ldbu	r3,-8(fp)
  8008a4:	10c00015 	stw	r3,0(r2)
  8008a8:	0001883a 	nop
  8008ac:	00a04034 	movhi	r2,33024
  8008b0:	10841304 	addi	r2,r2,4172
  8008b4:	10800017 	ldw	r2,0(r2)
  8008b8:	1080004c 	andi	r2,r2,1
  8008bc:	103ffb26 	beq	r2,zero,8008ac <__alt_data_end+0xff8008ac>
  8008c0:	00a04034 	movhi	r2,33024
  8008c4:	10841004 	addi	r2,r2,4160
  8008c8:	e0ffff17 	ldw	r3,-4(fp)
  8008cc:	1806d63a 	srli	r3,r3,24
  8008d0:	18c03fcc 	andi	r3,r3,255
  8008d4:	10c00015 	stw	r3,0(r2)
  8008d8:	0001883a 	nop
  8008dc:	00a04034 	movhi	r2,33024
  8008e0:	10841304 	addi	r2,r2,4172
  8008e4:	10800017 	ldw	r2,0(r2)
  8008e8:	1080004c 	andi	r2,r2,1
  8008ec:	103ffb26 	beq	r2,zero,8008dc <__alt_data_end+0xff8008dc>
  8008f0:	00a04034 	movhi	r2,33024
  8008f4:	10841004 	addi	r2,r2,4160
  8008f8:	e0ffff17 	ldw	r3,-4(fp)
  8008fc:	1806d43a 	srli	r3,r3,16
  800900:	18c03fcc 	andi	r3,r3,255
  800904:	10c00015 	stw	r3,0(r2)
  800908:	0001883a 	nop
  80090c:	00a04034 	movhi	r2,33024
  800910:	10841304 	addi	r2,r2,4172
  800914:	10800017 	ldw	r2,0(r2)
  800918:	1080004c 	andi	r2,r2,1
  80091c:	103ffb26 	beq	r2,zero,80090c <__alt_data_end+0xff80090c>
  800920:	00a04034 	movhi	r2,33024
  800924:	10841004 	addi	r2,r2,4160
  800928:	e0ffff17 	ldw	r3,-4(fp)
  80092c:	1806d23a 	srli	r3,r3,8
  800930:	18c03fcc 	andi	r3,r3,255
  800934:	10c00015 	stw	r3,0(r2)
  800938:	0001883a 	nop
  80093c:	00a04034 	movhi	r2,33024
  800940:	10841304 	addi	r2,r2,4172
  800944:	10800017 	ldw	r2,0(r2)
  800948:	1080004c 	andi	r2,r2,1
  80094c:	103ffb26 	beq	r2,zero,80093c <__alt_data_end+0xff80093c>
  800950:	00a04034 	movhi	r2,33024
  800954:	10841004 	addi	r2,r2,4160
  800958:	e0ffff17 	ldw	r3,-4(fp)
  80095c:	18c03fcc 	andi	r3,r3,255
  800960:	10c00015 	stw	r3,0(r2)
  800964:	0001883a 	nop
  800968:	00a04034 	movhi	r2,33024
  80096c:	10841304 	addi	r2,r2,4172
  800970:	10800017 	ldw	r2,0(r2)
  800974:	1080004c 	andi	r2,r2,1
  800978:	103ffb26 	beq	r2,zero,800968 <__alt_data_end+0xff800968>
  80097c:	00800044 	movi	r2,1
  800980:	e0bffd05 	stb	r2,-12(fp)
  800984:	e0bffe03 	ldbu	r2,-8(fp)
  800988:	10801018 	cmpnei	r2,r2,64
  80098c:	1000021e 	bne	r2,zero,800998 <SendCMD+0x1b4>
  800990:	00bfe544 	movi	r2,-107
  800994:	e0bffd05 	stb	r2,-12(fp)
  800998:	e0bffe03 	ldbu	r2,-8(fp)
  80099c:	10801218 	cmpnei	r2,r2,72
  8009a0:	1000021e 	bne	r2,zero,8009ac <SendCMD+0x1c8>
  8009a4:	00bfe1c4 	movi	r2,-121
  8009a8:	e0bffd05 	stb	r2,-12(fp)
  8009ac:	00a04034 	movhi	r2,33024
  8009b0:	10841004 	addi	r2,r2,4160
  8009b4:	e0fffd03 	ldbu	r3,-12(fp)
  8009b8:	10c00015 	stw	r3,0(r2)
  8009bc:	0001883a 	nop
  8009c0:	00a04034 	movhi	r2,33024
  8009c4:	10841304 	addi	r2,r2,4172
  8009c8:	10800017 	ldw	r2,0(r2)
  8009cc:	1080004c 	andi	r2,r2,1
  8009d0:	103ffb26 	beq	r2,zero,8009c0 <__alt_data_end+0xff8009c0>
  8009d4:	e0bffe03 	ldbu	r2,-8(fp)
  8009d8:	10801318 	cmpnei	r2,r2,76
  8009dc:	1000011e 	bne	r2,zero,8009e4 <SendCMD+0x200>
  8009e0:	08004240 	call	800424 <ReceiveU8>
  8009e4:	00800284 	movi	r2,10
  8009e8:	e0bffd05 	stb	r2,-12(fp)
  8009ec:	08004240 	call	800424 <ReceiveU8>
  8009f0:	e0bffd45 	stb	r2,-11(fp)
  8009f4:	e0bffd43 	ldbu	r2,-11(fp)
  8009f8:	10803fcc 	andi	r2,r2,255
  8009fc:	1080201c 	xori	r2,r2,128
  800a00:	10bfe004 	addi	r2,r2,-128
  800a04:	1000050e 	bge	r2,zero,800a1c <SendCMD+0x238>
  800a08:	e0bffd03 	ldbu	r2,-12(fp)
  800a0c:	10bfffc4 	addi	r2,r2,-1
  800a10:	e0bffd05 	stb	r2,-12(fp)
  800a14:	e0bffd03 	ldbu	r2,-12(fp)
  800a18:	103ff41e 	bne	r2,zero,8009ec <__alt_data_end+0xff8009ec>
  800a1c:	e0bffd43 	ldbu	r2,-11(fp)
  800a20:	e037883a 	mov	sp,fp
  800a24:	dfc00117 	ldw	ra,4(sp)
  800a28:	df000017 	ldw	fp,0(sp)
  800a2c:	dec00204 	addi	sp,sp,8
  800a30:	f800283a 	ret

00800a34 <ffs_DiskIOInit>:
  800a34:	defffe04 	addi	sp,sp,-8
  800a38:	dfc00115 	stw	ra,4(sp)
  800a3c:	df000015 	stw	fp,0(sp)
  800a40:	d839883a 	mov	fp,sp
  800a44:	080036c0 	call	80036c <InitDiskIOHardware>
  800a48:	0005883a 	mov	r2,zero
  800a4c:	e037883a 	mov	sp,fp
  800a50:	dfc00117 	ldw	ra,4(sp)
  800a54:	df000017 	ldw	fp,0(sp)
  800a58:	dec00204 	addi	sp,sp,8
  800a5c:	f800283a 	ret

00800a60 <ffs_DiskIOTimerproc>:
  800a60:	defffc04 	addi	sp,sp,-16
  800a64:	dfc00315 	stw	ra,12(sp)
  800a68:	df000215 	stw	fp,8(sp)
  800a6c:	df000204 	addi	fp,sp,8
  800a70:	d0a35b8b 	ldhu	r2,-29330(gp)
  800a74:	10bfffcc 	andi	r2,r2,65535
  800a78:	e0bfff15 	stw	r2,-4(fp)
  800a7c:	e0bfff17 	ldw	r2,-4(fp)
  800a80:	10000526 	beq	r2,zero,800a98 <ffs_DiskIOTimerproc+0x38>
  800a84:	e0bfff17 	ldw	r2,-4(fp)
  800a88:	10bfffc4 	addi	r2,r2,-1
  800a8c:	e0bfff15 	stw	r2,-4(fp)
  800a90:	e0bfff17 	ldw	r2,-4(fp)
  800a94:	d0a35b8d 	sth	r2,-29330(gp)
  800a98:	d0a35c0b 	ldhu	r2,-29328(gp)
  800a9c:	10bfffcc 	andi	r2,r2,65535
  800aa0:	e0bfff15 	stw	r2,-4(fp)
  800aa4:	e0bfff17 	ldw	r2,-4(fp)
  800aa8:	10000526 	beq	r2,zero,800ac0 <ffs_DiskIOTimerproc+0x60>
  800aac:	e0bfff17 	ldw	r2,-4(fp)
  800ab0:	10bfffc4 	addi	r2,r2,-1
  800ab4:	e0bfff15 	stw	r2,-4(fp)
  800ab8:	e0bfff17 	ldw	r2,-4(fp)
  800abc:	d0a35c0d 	sth	r2,-29328(gp)
  800ac0:	d0a35e17 	ldw	r2,-29320(gp)
  800ac4:	e0bfff15 	stw	r2,-4(fp)
  800ac8:	08007280 	call	800728 <GetCDWP>
  800acc:	d0a35e15 	stw	r2,-29320(gp)
  800ad0:	d0a35e17 	ldw	r2,-29320(gp)
  800ad4:	e0ffff17 	ldw	r3,-4(fp)
  800ad8:	18801e1e 	bne	r3,r2,800b54 <ffs_DiskIOTimerproc+0xf4>
  800adc:	d0a00003 	ldbu	r2,-32768(gp)
  800ae0:	e0bffe05 	stb	r2,-8(fp)
  800ae4:	d0a35e17 	ldw	r2,-29320(gp)
  800ae8:	1080008c 	andi	r2,r2,2
  800aec:	10000426 	beq	r2,zero,800b00 <ffs_DiskIOTimerproc+0xa0>
  800af0:	e0bffe03 	ldbu	r2,-8(fp)
  800af4:	10800114 	ori	r2,r2,4
  800af8:	e0bffe05 	stb	r2,-8(fp)
  800afc:	00000406 	br	800b10 <ffs_DiskIOTimerproc+0xb0>
  800b00:	e0fffe03 	ldbu	r3,-8(fp)
  800b04:	00bffec4 	movi	r2,-5
  800b08:	1884703a 	and	r2,r3,r2
  800b0c:	e0bffe05 	stb	r2,-8(fp)
  800b10:	d0a35e17 	ldw	r2,-29320(gp)
  800b14:	1080004c 	andi	r2,r2,1
  800b18:	10000426 	beq	r2,zero,800b2c <ffs_DiskIOTimerproc+0xcc>
  800b1c:	e0bffe03 	ldbu	r2,-8(fp)
  800b20:	108000d4 	ori	r2,r2,3
  800b24:	e0bffe05 	stb	r2,-8(fp)
  800b28:	00000406 	br	800b3c <ffs_DiskIOTimerproc+0xdc>
  800b2c:	e0fffe03 	ldbu	r3,-8(fp)
  800b30:	00bfff44 	movi	r2,-3
  800b34:	1884703a 	and	r2,r3,r2
  800b38:	e0bffe05 	stb	r2,-8(fp)
  800b3c:	e0fffe03 	ldbu	r3,-8(fp)
  800b40:	00bffec4 	movi	r2,-5
  800b44:	1884703a 	and	r2,r3,r2
  800b48:	e0bffe05 	stb	r2,-8(fp)
  800b4c:	e0bffe03 	ldbu	r2,-8(fp)
  800b50:	d0a00005 	stb	r2,-32768(gp)
  800b54:	e037883a 	mov	sp,fp
  800b58:	dfc00117 	ldw	ra,4(sp)
  800b5c:	df000017 	ldw	fp,0(sp)
  800b60:	dec00204 	addi	sp,sp,8
  800b64:	f800283a 	ret

00800b68 <ffs_DiskIOInitialize>:
  800b68:	defffa04 	addi	sp,sp,-24
  800b6c:	dfc00515 	stw	ra,20(sp)
  800b70:	df000415 	stw	fp,16(sp)
  800b74:	dc000315 	stw	r16,12(sp)
  800b78:	df000404 	addi	fp,sp,16
  800b7c:	2005883a 	mov	r2,r4
  800b80:	e0bffe05 	stb	r2,-8(fp)
  800b84:	d0a00003 	ldbu	r2,-32768(gp)
  800b88:	10803fcc 	andi	r2,r2,255
  800b8c:	1080008c 	andi	r2,r2,2
  800b90:	10000226 	beq	r2,zero,800b9c <ffs_DiskIOInitialize+0x34>
  800b94:	d0a00003 	ldbu	r2,-32768(gp)
  800b98:	00008406 	br	800dac <ffs_DiskIOInitialize+0x244>
  800b9c:	08002b40 	call	8002b4 <SetLowSpeed>
  800ba0:	00800284 	movi	r2,10
  800ba4:	e0bffc05 	stb	r2,-16(fp)
  800ba8:	00000406 	br	800bbc <ffs_DiskIOInitialize+0x54>
  800bac:	08004240 	call	800424 <ReceiveU8>
  800bb0:	e0bffc03 	ldbu	r2,-16(fp)
  800bb4:	10bfffc4 	addi	r2,r2,-1
  800bb8:	e0bffc05 	stb	r2,-16(fp)
  800bbc:	e0bffc03 	ldbu	r2,-16(fp)
  800bc0:	103ffa1e 	bne	r2,zero,800bac <__alt_data_end+0xff800bac>
  800bc4:	e03ffc45 	stb	zero,-15(fp)
  800bc8:	01001004 	movi	r4,64
  800bcc:	000b883a 	mov	r5,zero
  800bd0:	08007e40 	call	8007e4 <SendCMD>
  800bd4:	10803fcc 	andi	r2,r2,255
  800bd8:	10800058 	cmpnei	r2,r2,1
  800bdc:	1000681e 	bne	r2,zero,800d80 <ffs_DiskIOInitialize+0x218>
  800be0:	00801904 	movi	r2,100
  800be4:	d0a35b8d 	sth	r2,-29330(gp)
  800be8:	01001204 	movi	r4,72
  800bec:	01406a84 	movi	r5,426
  800bf0:	08007e40 	call	8007e4 <SendCMD>
  800bf4:	10803fcc 	andi	r2,r2,255
  800bf8:	10800058 	cmpnei	r2,r2,1
  800bfc:	10003e1e 	bne	r2,zero,800cf8 <ffs_DiskIOInitialize+0x190>
  800c00:	e03ffc05 	stb	zero,-16(fp)
  800c04:	00000906 	br	800c2c <ffs_DiskIOInitialize+0xc4>
  800c08:	e43ffc03 	ldbu	r16,-16(fp)
  800c0c:	08004240 	call	800424 <ReceiveU8>
  800c10:	1007883a 	mov	r3,r2
  800c14:	e0bffcc4 	addi	r2,fp,-13
  800c18:	1405883a 	add	r2,r2,r16
  800c1c:	10c00005 	stb	r3,0(r2)
  800c20:	e0bffc03 	ldbu	r2,-16(fp)
  800c24:	10800044 	addi	r2,r2,1
  800c28:	e0bffc05 	stb	r2,-16(fp)
  800c2c:	e0bffc03 	ldbu	r2,-16(fp)
  800c30:	10800130 	cmpltui	r2,r2,4
  800c34:	103ff41e 	bne	r2,zero,800c08 <__alt_data_end+0xff800c08>
  800c38:	e0bffd43 	ldbu	r2,-11(fp)
  800c3c:	10803fcc 	andi	r2,r2,255
  800c40:	10800058 	cmpnei	r2,r2,1
  800c44:	10004e1e 	bne	r2,zero,800d80 <ffs_DiskIOInitialize+0x218>
  800c48:	e0bffd83 	ldbu	r2,-10(fp)
  800c4c:	10803fcc 	andi	r2,r2,255
  800c50:	10802a98 	cmpnei	r2,r2,170
  800c54:	10004a1e 	bne	r2,zero,800d80 <ffs_DiskIOInitialize+0x218>
  800c58:	0001883a 	nop
  800c5c:	d0a35b8b 	ldhu	r2,-29330(gp)
  800c60:	10bfffcc 	andi	r2,r2,65535
  800c64:	10000526 	beq	r2,zero,800c7c <ffs_DiskIOInitialize+0x114>
  800c68:	01003a44 	movi	r4,233
  800c6c:	01500034 	movhi	r5,16384
  800c70:	08007e40 	call	8007e4 <SendCMD>
  800c74:	10803fcc 	andi	r2,r2,255
  800c78:	103ff81e 	bne	r2,zero,800c5c <__alt_data_end+0xff800c5c>
  800c7c:	d0a35b8b 	ldhu	r2,-29330(gp)
  800c80:	10bfffcc 	andi	r2,r2,65535
  800c84:	10003e26 	beq	r2,zero,800d80 <ffs_DiskIOInitialize+0x218>
  800c88:	01001e84 	movi	r4,122
  800c8c:	000b883a 	mov	r5,zero
  800c90:	08007e40 	call	8007e4 <SendCMD>
  800c94:	10803fcc 	andi	r2,r2,255
  800c98:	1000391e 	bne	r2,zero,800d80 <ffs_DiskIOInitialize+0x218>
  800c9c:	e03ffc05 	stb	zero,-16(fp)
  800ca0:	00000906 	br	800cc8 <ffs_DiskIOInitialize+0x160>
  800ca4:	e43ffc03 	ldbu	r16,-16(fp)
  800ca8:	08004240 	call	800424 <ReceiveU8>
  800cac:	1007883a 	mov	r3,r2
  800cb0:	e0bffcc4 	addi	r2,fp,-13
  800cb4:	1405883a 	add	r2,r2,r16
  800cb8:	10c00005 	stb	r3,0(r2)
  800cbc:	e0bffc03 	ldbu	r2,-16(fp)
  800cc0:	10800044 	addi	r2,r2,1
  800cc4:	e0bffc05 	stb	r2,-16(fp)
  800cc8:	e0bffc03 	ldbu	r2,-16(fp)
  800ccc:	10800130 	cmpltui	r2,r2,4
  800cd0:	103ff41e 	bne	r2,zero,800ca4 <__alt_data_end+0xff800ca4>
  800cd4:	e0bffcc3 	ldbu	r2,-13(fp)
  800cd8:	10803fcc 	andi	r2,r2,255
  800cdc:	1080100c 	andi	r2,r2,64
  800ce0:	10000226 	beq	r2,zero,800cec <ffs_DiskIOInitialize+0x184>
  800ce4:	00800304 	movi	r2,12
  800ce8:	00000106 	br	800cf0 <ffs_DiskIOInitialize+0x188>
  800cec:	00800104 	movi	r2,4
  800cf0:	e0bffc45 	stb	r2,-15(fp)
  800cf4:	00002206 	br	800d80 <ffs_DiskIOInitialize+0x218>
  800cf8:	01003a44 	movi	r4,233
  800cfc:	000b883a 	mov	r5,zero
  800d00:	08007e40 	call	8007e4 <SendCMD>
  800d04:	10803fcc 	andi	r2,r2,255
  800d08:	108000a8 	cmpgeui	r2,r2,2
  800d0c:	1000051e 	bne	r2,zero,800d24 <ffs_DiskIOInitialize+0x1bc>
  800d10:	00800084 	movi	r2,2
  800d14:	e0bffc45 	stb	r2,-15(fp)
  800d18:	00bffa44 	movi	r2,-23
  800d1c:	e0bffc85 	stb	r2,-14(fp)
  800d20:	00000406 	br	800d34 <ffs_DiskIOInitialize+0x1cc>
  800d24:	00800044 	movi	r2,1
  800d28:	e0bffc45 	stb	r2,-15(fp)
  800d2c:	00801044 	movi	r2,65
  800d30:	e0bffc85 	stb	r2,-14(fp)
  800d34:	0001883a 	nop
  800d38:	d0a35b8b 	ldhu	r2,-29330(gp)
  800d3c:	10bfffcc 	andi	r2,r2,65535
  800d40:	10000626 	beq	r2,zero,800d5c <ffs_DiskIOInitialize+0x1f4>
  800d44:	e0bffc83 	ldbu	r2,-14(fp)
  800d48:	1009883a 	mov	r4,r2
  800d4c:	000b883a 	mov	r5,zero
  800d50:	08007e40 	call	8007e4 <SendCMD>
  800d54:	10803fcc 	andi	r2,r2,255
  800d58:	103ff71e 	bne	r2,zero,800d38 <__alt_data_end+0xff800d38>
  800d5c:	d0a35b8b 	ldhu	r2,-29330(gp)
  800d60:	10bfffcc 	andi	r2,r2,65535
  800d64:	10000526 	beq	r2,zero,800d7c <ffs_DiskIOInitialize+0x214>
  800d68:	01001404 	movi	r4,80
  800d6c:	01408004 	movi	r5,512
  800d70:	08007e40 	call	8007e4 <SendCMD>
  800d74:	10803fcc 	andi	r2,r2,255
  800d78:	10000126 	beq	r2,zero,800d80 <ffs_DiskIOInitialize+0x218>
  800d7c:	e03ffc45 	stb	zero,-15(fp)
  800d80:	e0bffc43 	ldbu	r2,-15(fp)
  800d84:	d0a35b05 	stb	r2,-29332(gp)
  800d88:	08007a00 	call	8007a0 <ReleaseBus>
  800d8c:	e0bffc43 	ldbu	r2,-15(fp)
  800d90:	10000526 	beq	r2,zero,800da8 <ffs_DiskIOInitialize+0x240>
  800d94:	d0e00003 	ldbu	r3,-32768(gp)
  800d98:	00bfff84 	movi	r2,-2
  800d9c:	1884703a 	and	r2,r3,r2
  800da0:	d0a00005 	stb	r2,-32768(gp)
  800da4:	08003000 	call	800300 <SetHighSpeed>
  800da8:	d0a00003 	ldbu	r2,-32768(gp)
  800dac:	e6ffff04 	addi	sp,fp,-4
  800db0:	dfc00217 	ldw	ra,8(sp)
  800db4:	df000117 	ldw	fp,4(sp)
  800db8:	dc000017 	ldw	r16,0(sp)
  800dbc:	dec00304 	addi	sp,sp,12
  800dc0:	f800283a 	ret

00800dc4 <ffs_DiskIOStatus>:
  800dc4:	defffe04 	addi	sp,sp,-8
  800dc8:	df000115 	stw	fp,4(sp)
  800dcc:	df000104 	addi	fp,sp,4
  800dd0:	2005883a 	mov	r2,r4
  800dd4:	e0bfff05 	stb	r2,-4(fp)
  800dd8:	d0a00003 	ldbu	r2,-32768(gp)
  800ddc:	e037883a 	mov	sp,fp
  800de0:	df000017 	ldw	fp,0(sp)
  800de4:	dec00104 	addi	sp,sp,4
  800de8:	f800283a 	ret

00800dec <ffs_DiskIORead>:
  800dec:	defffa04 	addi	sp,sp,-24
  800df0:	dfc00515 	stw	ra,20(sp)
  800df4:	df000415 	stw	fp,16(sp)
  800df8:	df000404 	addi	fp,sp,16
  800dfc:	2007883a 	mov	r3,r4
  800e00:	e17ffd15 	stw	r5,-12(fp)
  800e04:	e1bffe15 	stw	r6,-8(fp)
  800e08:	3805883a 	mov	r2,r7
  800e0c:	e0fffc05 	stb	r3,-16(fp)
  800e10:	e0bfff05 	stb	r2,-4(fp)
  800e14:	e0bfff03 	ldbu	r2,-4(fp)
  800e18:	1000021e 	bne	r2,zero,800e24 <ffs_DiskIORead+0x38>
  800e1c:	00800104 	movi	r2,4
  800e20:	00003406 	br	800ef4 <ffs_DiskIORead+0x108>
  800e24:	d0a00003 	ldbu	r2,-32768(gp)
  800e28:	10803fcc 	andi	r2,r2,255
  800e2c:	1080004c 	andi	r2,r2,1
  800e30:	10000226 	beq	r2,zero,800e3c <ffs_DiskIORead+0x50>
  800e34:	008000c4 	movi	r2,3
  800e38:	00002e06 	br	800ef4 <ffs_DiskIORead+0x108>
  800e3c:	d0a35b03 	ldbu	r2,-29332(gp)
  800e40:	10803fcc 	andi	r2,r2,255
  800e44:	1080020c 	andi	r2,r2,8
  800e48:	1000031e 	bne	r2,zero,800e58 <ffs_DiskIORead+0x6c>
  800e4c:	e0bffe17 	ldw	r2,-8(fp)
  800e50:	1004927a 	slli	r2,r2,9
  800e54:	e0bffe15 	stw	r2,-8(fp)
  800e58:	e0bfff03 	ldbu	r2,-4(fp)
  800e5c:	10800058 	cmpnei	r2,r2,1
  800e60:	10000b1e 	bne	r2,zero,800e90 <ffs_DiskIORead+0xa4>
  800e64:	01001444 	movi	r4,81
  800e68:	e17ffe17 	ldw	r5,-8(fp)
  800e6c:	08007e40 	call	8007e4 <SendCMD>
  800e70:	10803fcc 	andi	r2,r2,255
  800e74:	10001b1e 	bne	r2,zero,800ee4 <ffs_DiskIORead+0xf8>
  800e78:	e13ffd17 	ldw	r4,-12(fp)
  800e7c:	01408004 	movi	r5,512
  800e80:	08004740 	call	800474 <ReceiveDatablock>
  800e84:	10001726 	beq	r2,zero,800ee4 <ffs_DiskIORead+0xf8>
  800e88:	e03fff05 	stb	zero,-4(fp)
  800e8c:	00001506 	br	800ee4 <ffs_DiskIORead+0xf8>
  800e90:	01001484 	movi	r4,82
  800e94:	e17ffe17 	ldw	r5,-8(fp)
  800e98:	08007e40 	call	8007e4 <SendCMD>
  800e9c:	10803fcc 	andi	r2,r2,255
  800ea0:	1000101e 	bne	r2,zero,800ee4 <ffs_DiskIORead+0xf8>
  800ea4:	e13ffd17 	ldw	r4,-12(fp)
  800ea8:	01408004 	movi	r5,512
  800eac:	08004740 	call	800474 <ReceiveDatablock>
  800eb0:	1000011e 	bne	r2,zero,800eb8 <ffs_DiskIORead+0xcc>
  800eb4:	00000806 	br	800ed8 <ffs_DiskIORead+0xec>
  800eb8:	e0bffd17 	ldw	r2,-12(fp)
  800ebc:	10808004 	addi	r2,r2,512
  800ec0:	e0bffd15 	stw	r2,-12(fp)
  800ec4:	e0bfff03 	ldbu	r2,-4(fp)
  800ec8:	10bfffc4 	addi	r2,r2,-1
  800ecc:	e0bfff05 	stb	r2,-4(fp)
  800ed0:	e0bfff03 	ldbu	r2,-4(fp)
  800ed4:	103ff31e 	bne	r2,zero,800ea4 <__alt_data_end+0xff800ea4>
  800ed8:	01001304 	movi	r4,76
  800edc:	000b883a 	mov	r5,zero
  800ee0:	08007e40 	call	8007e4 <SendCMD>
  800ee4:	08007a00 	call	8007a0 <ReleaseBus>
  800ee8:	e0bfff03 	ldbu	r2,-4(fp)
  800eec:	1004c03a 	cmpne	r2,r2,zero
  800ef0:	10803fcc 	andi	r2,r2,255
  800ef4:	e037883a 	mov	sp,fp
  800ef8:	dfc00117 	ldw	ra,4(sp)
  800efc:	df000017 	ldw	fp,0(sp)
  800f00:	dec00204 	addi	sp,sp,8
  800f04:	f800283a 	ret

00800f08 <ffs_DiskIOWrite>:
  800f08:	defffa04 	addi	sp,sp,-24
  800f0c:	dfc00515 	stw	ra,20(sp)
  800f10:	df000415 	stw	fp,16(sp)
  800f14:	df000404 	addi	fp,sp,16
  800f18:	2007883a 	mov	r3,r4
  800f1c:	e17ffd15 	stw	r5,-12(fp)
  800f20:	e1bffe15 	stw	r6,-8(fp)
  800f24:	3805883a 	mov	r2,r7
  800f28:	e0fffc05 	stb	r3,-16(fp)
  800f2c:	e0bfff05 	stb	r2,-4(fp)
  800f30:	e0bfff03 	ldbu	r2,-4(fp)
  800f34:	1000021e 	bne	r2,zero,800f40 <ffs_DiskIOWrite+0x38>
  800f38:	00800104 	movi	r2,4
  800f3c:	00004806 	br	801060 <ffs_DiskIOWrite+0x158>
  800f40:	d0a00003 	ldbu	r2,-32768(gp)
  800f44:	10803fcc 	andi	r2,r2,255
  800f48:	1080004c 	andi	r2,r2,1
  800f4c:	10000226 	beq	r2,zero,800f58 <ffs_DiskIOWrite+0x50>
  800f50:	008000c4 	movi	r2,3
  800f54:	00004206 	br	801060 <ffs_DiskIOWrite+0x158>
  800f58:	d0a00003 	ldbu	r2,-32768(gp)
  800f5c:	10803fcc 	andi	r2,r2,255
  800f60:	1080010c 	andi	r2,r2,4
  800f64:	10000226 	beq	r2,zero,800f70 <ffs_DiskIOWrite+0x68>
  800f68:	00800084 	movi	r2,2
  800f6c:	00003c06 	br	801060 <ffs_DiskIOWrite+0x158>
  800f70:	d0a35b03 	ldbu	r2,-29332(gp)
  800f74:	10803fcc 	andi	r2,r2,255
  800f78:	1080020c 	andi	r2,r2,8
  800f7c:	1000031e 	bne	r2,zero,800f8c <ffs_DiskIOWrite+0x84>
  800f80:	e0bffe17 	ldw	r2,-8(fp)
  800f84:	1004927a 	slli	r2,r2,9
  800f88:	e0bffe15 	stw	r2,-8(fp)
  800f8c:	e0bfff03 	ldbu	r2,-4(fp)
  800f90:	10800058 	cmpnei	r2,r2,1
  800f94:	10000b1e 	bne	r2,zero,800fc4 <ffs_DiskIOWrite+0xbc>
  800f98:	01001604 	movi	r4,88
  800f9c:	e17ffe17 	ldw	r5,-8(fp)
  800fa0:	08007e40 	call	8007e4 <SendCMD>
  800fa4:	10803fcc 	andi	r2,r2,255
  800fa8:	1000291e 	bne	r2,zero,801050 <ffs_DiskIOWrite+0x148>
  800fac:	e13ffd17 	ldw	r4,-12(fp)
  800fb0:	01403f84 	movi	r5,254
  800fb4:	08005a00 	call	8005a0 <TransmitDatablock>
  800fb8:	10002526 	beq	r2,zero,801050 <ffs_DiskIOWrite+0x148>
  800fbc:	e03fff05 	stb	zero,-4(fp)
  800fc0:	00002306 	br	801050 <ffs_DiskIOWrite+0x148>
  800fc4:	d0a35b03 	ldbu	r2,-29332(gp)
  800fc8:	10803fcc 	andi	r2,r2,255
  800fcc:	1080018c 	andi	r2,r2,6
  800fd0:	10000726 	beq	r2,zero,800ff0 <ffs_DiskIOWrite+0xe8>
  800fd4:	01001dc4 	movi	r4,119
  800fd8:	000b883a 	mov	r5,zero
  800fdc:	08007e40 	call	8007e4 <SendCMD>
  800fe0:	e0bfff03 	ldbu	r2,-4(fp)
  800fe4:	010015c4 	movi	r4,87
  800fe8:	100b883a 	mov	r5,r2
  800fec:	08007e40 	call	8007e4 <SendCMD>
  800ff0:	01001644 	movi	r4,89
  800ff4:	e17ffe17 	ldw	r5,-8(fp)
  800ff8:	08007e40 	call	8007e4 <SendCMD>
  800ffc:	10803fcc 	andi	r2,r2,255
  801000:	1000131e 	bne	r2,zero,801050 <ffs_DiskIOWrite+0x148>
  801004:	e13ffd17 	ldw	r4,-12(fp)
  801008:	01403f04 	movi	r5,252
  80100c:	08005a00 	call	8005a0 <TransmitDatablock>
  801010:	1000011e 	bne	r2,zero,801018 <ffs_DiskIOWrite+0x110>
  801014:	00000806 	br	801038 <ffs_DiskIOWrite+0x130>
  801018:	e0bffd17 	ldw	r2,-12(fp)
  80101c:	10808004 	addi	r2,r2,512
  801020:	e0bffd15 	stw	r2,-12(fp)
  801024:	e0bfff03 	ldbu	r2,-4(fp)
  801028:	10bfffc4 	addi	r2,r2,-1
  80102c:	e0bfff05 	stb	r2,-4(fp)
  801030:	e0bfff03 	ldbu	r2,-4(fp)
  801034:	103ff31e 	bne	r2,zero,801004 <__alt_data_end+0xff801004>
  801038:	0009883a 	mov	r4,zero
  80103c:	01403f44 	movi	r5,253
  801040:	08005a00 	call	8005a0 <TransmitDatablock>
  801044:	1000021e 	bne	r2,zero,801050 <ffs_DiskIOWrite+0x148>
  801048:	00800044 	movi	r2,1
  80104c:	e0bfff05 	stb	r2,-4(fp)
  801050:	08007a00 	call	8007a0 <ReleaseBus>
  801054:	e0bfff03 	ldbu	r2,-4(fp)
  801058:	1004c03a 	cmpne	r2,r2,zero
  80105c:	10803fcc 	andi	r2,r2,255
  801060:	e037883a 	mov	sp,fp
  801064:	dfc00117 	ldw	ra,4(sp)
  801068:	df000017 	ldw	fp,0(sp)
  80106c:	dec00204 	addi	sp,sp,8
  801070:	f800283a 	ret

00801074 <ffs_DiskIOIoctl>:
  801074:	defff204 	addi	sp,sp,-56
  801078:	dfc00d15 	stw	ra,52(sp)
  80107c:	df000c15 	stw	fp,48(sp)
  801080:	dc000b15 	stw	r16,44(sp)
  801084:	df000c04 	addi	fp,sp,48
  801088:	2007883a 	mov	r3,r4
  80108c:	2805883a 	mov	r2,r5
  801090:	e1bffe15 	stw	r6,-8(fp)
  801094:	e0fffc05 	stb	r3,-16(fp)
  801098:	e0bffd05 	stb	r2,-12(fp)
  80109c:	e0bffe17 	ldw	r2,-8(fp)
  8010a0:	e0bff615 	stw	r2,-40(fp)
  8010a4:	d0a00003 	ldbu	r2,-32768(gp)
  8010a8:	10803fcc 	andi	r2,r2,255
  8010ac:	1080004c 	andi	r2,r2,1
  8010b0:	10000226 	beq	r2,zero,8010bc <ffs_DiskIOIoctl+0x48>
  8010b4:	008000c4 	movi	r2,3
  8010b8:	00011206 	br	801504 <ffs_DiskIOIoctl+0x490>
  8010bc:	00800044 	movi	r2,1
  8010c0:	e0bff415 	stw	r2,-48(fp)
  8010c4:	e0bffd03 	ldbu	r2,-12(fp)
  8010c8:	10c003e8 	cmpgeui	r3,r2,15
  8010cc:	1801091e 	bne	r3,zero,8014f4 <ffs_DiskIOIoctl+0x480>
  8010d0:	100690ba 	slli	r3,r2,2
  8010d4:	00802034 	movhi	r2,128
  8010d8:	10843a04 	addi	r2,r2,4328
  8010dc:	1885883a 	add	r2,r3,r2
  8010e0:	10800017 	ldw	r2,0(r2)
  8010e4:	1000683a 	jmp	r2
  8010e8:	00801124 	muli	r2,zero,68
  8010ec:	00801160 	cmpeqi	r2,zero,69
  8010f0:	00801274 	movhi	r2,73
  8010f4:	00801288 	cmpgei	r2,zero,74
  8010f8:	008014f4 	movhi	r2,83
  8010fc:	008014f4 	movhi	r2,83
  801100:	008014f4 	movhi	r2,83
  801104:	008014f4 	movhi	r2,83
  801108:	008014f4 	movhi	r2,83
  80110c:	008014f4 	movhi	r2,83
  801110:	008013f8 	rdprs	r2,zero,79
  801114:	0080140c 	andi	r2,zero,80
  801118:	0080143c 	xorhi	r2,zero,80
  80111c:	0080146c 	andhi	r2,zero,81
  801120:	008014c0 	call	8014c <__reset-0x77feb4>
  801124:	d0e35d17 	ldw	r3,-29324(gp)
  801128:	00bfff84 	movi	r2,-2
  80112c:	1884703a 	and	r2,r3,r2
  801130:	d0a35d15 	stw	r2,-29324(gp)
  801134:	00a04034 	movhi	r2,33024
  801138:	10841204 	addi	r2,r2,4168
  80113c:	d0e35d17 	ldw	r3,-29324(gp)
  801140:	10c00015 	stw	r3,0(r2)
  801144:	080074c0 	call	80074c <WaitReady>
  801148:	10803fcc 	andi	r2,r2,255
  80114c:	10803fd8 	cmpnei	r2,r2,255
  801150:	1000021e 	bne	r2,zero,80115c <ffs_DiskIOIoctl+0xe8>
  801154:	e03ff415 	stw	zero,-48(fp)
  801158:	0000e806 	br	8014fc <ffs_DiskIOIoctl+0x488>
  80115c:	0000e706 	br	8014fc <ffs_DiskIOIoctl+0x488>
  801160:	01001244 	movi	r4,73
  801164:	000b883a 	mov	r5,zero
  801168:	08007e40 	call	8007e4 <SendCMD>
  80116c:	10803fcc 	andi	r2,r2,255
  801170:	10003f1e 	bne	r2,zero,801270 <ffs_DiskIOIoctl+0x1fc>
  801174:	e0bff784 	addi	r2,fp,-34
  801178:	1009883a 	mov	r4,r2
  80117c:	01400404 	movi	r5,16
  801180:	08004740 	call	800474 <ReceiveDatablock>
  801184:	10003a26 	beq	r2,zero,801270 <ffs_DiskIOIoctl+0x1fc>
  801188:	e0bff783 	ldbu	r2,-34(fp)
  80118c:	10803fcc 	andi	r2,r2,255
  801190:	1004d1ba 	srli	r2,r2,6
  801194:	10803fcc 	andi	r2,r2,255
  801198:	10800058 	cmpnei	r2,r2,1
  80119c:	10000d1e 	bne	r2,zero,8011d4 <ffs_DiskIOIoctl+0x160>
  8011a0:	e0bff9c3 	ldbu	r2,-25(fp)
  8011a4:	10803fcc 	andi	r2,r2,255
  8011a8:	e0fff983 	ldbu	r3,-26(fp)
  8011ac:	18c03fcc 	andi	r3,r3,255
  8011b0:	1806923a 	slli	r3,r3,8
  8011b4:	10c4b03a 	or	r2,r2,r3
  8011b8:	10800044 	addi	r2,r2,1
  8011bc:	e0bff70d 	sth	r2,-36(fp)
  8011c0:	e0bff70b 	ldhu	r2,-36(fp)
  8011c4:	100692ba 	slli	r3,r2,10
  8011c8:	e0bffe17 	ldw	r2,-8(fp)
  8011cc:	10c00015 	stw	r3,0(r2)
  8011d0:	00002506 	br	801268 <ffs_DiskIOIoctl+0x1f4>
  8011d4:	e0bff8c3 	ldbu	r2,-29(fp)
  8011d8:	108003cc 	andi	r2,r2,15
  8011dc:	1007883a 	mov	r3,r2
  8011e0:	e0bffa03 	ldbu	r2,-24(fp)
  8011e4:	10803fcc 	andi	r2,r2,255
  8011e8:	1004d1fa 	srli	r2,r2,7
  8011ec:	1885883a 	add	r2,r3,r2
  8011f0:	1007883a 	mov	r3,r2
  8011f4:	e0bff9c3 	ldbu	r2,-25(fp)
  8011f8:	108000cc 	andi	r2,r2,3
  8011fc:	1085883a 	add	r2,r2,r2
  801200:	1885883a 	add	r2,r3,r2
  801204:	10800084 	addi	r2,r2,2
  801208:	e0bff505 	stb	r2,-44(fp)
  80120c:	e0bff983 	ldbu	r2,-26(fp)
  801210:	10803fcc 	andi	r2,r2,255
  801214:	1004d1ba 	srli	r2,r2,6
  801218:	10c03fcc 	andi	r3,r2,255
  80121c:	e0bff943 	ldbu	r2,-27(fp)
  801220:	10803fcc 	andi	r2,r2,255
  801224:	1085883a 	add	r2,r2,r2
  801228:	1085883a 	add	r2,r2,r2
  80122c:	1885883a 	add	r2,r3,r2
  801230:	1007883a 	mov	r3,r2
  801234:	e0bff903 	ldbu	r2,-28(fp)
  801238:	10803fcc 	andi	r2,r2,255
  80123c:	108000cc 	andi	r2,r2,3
  801240:	100492ba 	slli	r2,r2,10
  801244:	1885883a 	add	r2,r3,r2
  801248:	10800044 	addi	r2,r2,1
  80124c:	e0bff70d 	sth	r2,-36(fp)
  801250:	e0fff70b 	ldhu	r3,-36(fp)
  801254:	e0bff503 	ldbu	r2,-44(fp)
  801258:	10bffdc4 	addi	r2,r2,-9
  80125c:	1886983a 	sll	r3,r3,r2
  801260:	e0bffe17 	ldw	r2,-8(fp)
  801264:	10c00015 	stw	r3,0(r2)
  801268:	e03ff415 	stw	zero,-48(fp)
  80126c:	0000a306 	br	8014fc <ffs_DiskIOIoctl+0x488>
  801270:	0000a206 	br	8014fc <ffs_DiskIOIoctl+0x488>
  801274:	e0bffe17 	ldw	r2,-8(fp)
  801278:	00c08004 	movi	r3,512
  80127c:	10c0000d 	sth	r3,0(r2)
  801280:	e03ff415 	stw	zero,-48(fp)
  801284:	00009d06 	br	8014fc <ffs_DiskIOIoctl+0x488>
  801288:	d0a35b03 	ldbu	r2,-29332(gp)
  80128c:	10803fcc 	andi	r2,r2,255
  801290:	1080010c 	andi	r2,r2,4
  801294:	10001e26 	beq	r2,zero,801310 <ffs_DiskIOIoctl+0x29c>
  801298:	01003344 	movi	r4,205
  80129c:	000b883a 	mov	r5,zero
  8012a0:	08007e40 	call	8007e4 <SendCMD>
  8012a4:	10803fcc 	andi	r2,r2,255
  8012a8:	1000521e 	bne	r2,zero,8013f4 <ffs_DiskIOIoctl+0x380>
  8012ac:	08004240 	call	800424 <ReceiveU8>
  8012b0:	e0bff784 	addi	r2,fp,-34
  8012b4:	1009883a 	mov	r4,r2
  8012b8:	01400404 	movi	r5,16
  8012bc:	08004740 	call	800474 <ReceiveDatablock>
  8012c0:	10004c26 	beq	r2,zero,8013f4 <ffs_DiskIOIoctl+0x380>
  8012c4:	00800c04 	movi	r2,48
  8012c8:	e0bff505 	stb	r2,-44(fp)
  8012cc:	00000406 	br	8012e0 <ffs_DiskIOIoctl+0x26c>
  8012d0:	08004240 	call	800424 <ReceiveU8>
  8012d4:	e0bff503 	ldbu	r2,-44(fp)
  8012d8:	10bfffc4 	addi	r2,r2,-1
  8012dc:	e0bff505 	stb	r2,-44(fp)
  8012e0:	e0bff503 	ldbu	r2,-44(fp)
  8012e4:	103ffa1e 	bne	r2,zero,8012d0 <__alt_data_end+0xff8012d0>
  8012e8:	e0bffa03 	ldbu	r2,-24(fp)
  8012ec:	10803fcc 	andi	r2,r2,255
  8012f0:	1004d13a 	srli	r2,r2,4
  8012f4:	10803fcc 	andi	r2,r2,255
  8012f8:	00c00404 	movi	r3,16
  8012fc:	1886983a 	sll	r3,r3,r2
  801300:	e0bffe17 	ldw	r2,-8(fp)
  801304:	10c00015 	stw	r3,0(r2)
  801308:	e03ff415 	stw	zero,-48(fp)
  80130c:	00007b06 	br	8014fc <ffs_DiskIOIoctl+0x488>
  801310:	01001244 	movi	r4,73
  801314:	000b883a 	mov	r5,zero
  801318:	08007e40 	call	8007e4 <SendCMD>
  80131c:	10803fcc 	andi	r2,r2,255
  801320:	1000341e 	bne	r2,zero,8013f4 <ffs_DiskIOIoctl+0x380>
  801324:	e0bff784 	addi	r2,fp,-34
  801328:	1009883a 	mov	r4,r2
  80132c:	01400404 	movi	r5,16
  801330:	08004740 	call	800474 <ReceiveDatablock>
  801334:	10002f26 	beq	r2,zero,8013f4 <ffs_DiskIOIoctl+0x380>
  801338:	d0a35b03 	ldbu	r2,-29332(gp)
  80133c:	10803fcc 	andi	r2,r2,255
  801340:	1080008c 	andi	r2,r2,2
  801344:	10001526 	beq	r2,zero,80139c <ffs_DiskIOIoctl+0x328>
  801348:	e0bffa03 	ldbu	r2,-24(fp)
  80134c:	10803fcc 	andi	r2,r2,255
  801350:	10800fcc 	andi	r2,r2,63
  801354:	1085883a 	add	r2,r2,r2
  801358:	1007883a 	mov	r3,r2
  80135c:	e0bffa43 	ldbu	r2,-23(fp)
  801360:	10803fcc 	andi	r2,r2,255
  801364:	1004d1fa 	srli	r2,r2,7
  801368:	10803fcc 	andi	r2,r2,255
  80136c:	1885883a 	add	r2,r3,r2
  801370:	10c00044 	addi	r3,r2,1
  801374:	e0bffac3 	ldbu	r2,-21(fp)
  801378:	10803fcc 	andi	r2,r2,255
  80137c:	1004d1ba 	srli	r2,r2,6
  801380:	10803fcc 	andi	r2,r2,255
  801384:	10bfffc4 	addi	r2,r2,-1
  801388:	1884983a 	sll	r2,r3,r2
  80138c:	1007883a 	mov	r3,r2
  801390:	e0bffe17 	ldw	r2,-8(fp)
  801394:	10c00015 	stw	r3,0(r2)
  801398:	00001406 	br	8013ec <ffs_DiskIOIoctl+0x378>
  80139c:	e0bffa03 	ldbu	r2,-24(fp)
  8013a0:	10803fcc 	andi	r2,r2,255
  8013a4:	10801f0c 	andi	r2,r2,124
  8013a8:	1005d0ba 	srai	r2,r2,2
  8013ac:	10bfffcc 	andi	r2,r2,65535
  8013b0:	10c00044 	addi	r3,r2,1
  8013b4:	e0bffa43 	ldbu	r2,-23(fp)
  8013b8:	10803fcc 	andi	r2,r2,255
  8013bc:	108000cc 	andi	r2,r2,3
  8013c0:	100890fa 	slli	r4,r2,3
  8013c4:	e0bffa43 	ldbu	r2,-23(fp)
  8013c8:	10803fcc 	andi	r2,r2,255
  8013cc:	1004d17a 	srli	r2,r2,5
  8013d0:	10803fcc 	andi	r2,r2,255
  8013d4:	2085883a 	add	r2,r4,r2
  8013d8:	10800044 	addi	r2,r2,1
  8013dc:	1885383a 	mul	r2,r3,r2
  8013e0:	1007883a 	mov	r3,r2
  8013e4:	e0bffe17 	ldw	r2,-8(fp)
  8013e8:	10c00015 	stw	r3,0(r2)
  8013ec:	e03ff415 	stw	zero,-48(fp)
  8013f0:	00004206 	br	8014fc <ffs_DiskIOIoctl+0x488>
  8013f4:	00004106 	br	8014fc <ffs_DiskIOIoctl+0x488>
  8013f8:	d0e35b03 	ldbu	r3,-29332(gp)
  8013fc:	e0bff617 	ldw	r2,-40(fp)
  801400:	10c00005 	stb	r3,0(r2)
  801404:	e03ff415 	stw	zero,-48(fp)
  801408:	00003c06 	br	8014fc <ffs_DiskIOIoctl+0x488>
  80140c:	01001244 	movi	r4,73
  801410:	000b883a 	mov	r5,zero
  801414:	08007e40 	call	8007e4 <SendCMD>
  801418:	10803fcc 	andi	r2,r2,255
  80141c:	1000061e 	bne	r2,zero,801438 <ffs_DiskIOIoctl+0x3c4>
  801420:	e13ff617 	ldw	r4,-40(fp)
  801424:	01400404 	movi	r5,16
  801428:	08004740 	call	800474 <ReceiveDatablock>
  80142c:	10000226 	beq	r2,zero,801438 <ffs_DiskIOIoctl+0x3c4>
  801430:	e03ff415 	stw	zero,-48(fp)
  801434:	00003106 	br	8014fc <ffs_DiskIOIoctl+0x488>
  801438:	00003006 	br	8014fc <ffs_DiskIOIoctl+0x488>
  80143c:	01001284 	movi	r4,74
  801440:	000b883a 	mov	r5,zero
  801444:	08007e40 	call	8007e4 <SendCMD>
  801448:	10803fcc 	andi	r2,r2,255
  80144c:	1000061e 	bne	r2,zero,801468 <ffs_DiskIOIoctl+0x3f4>
  801450:	e13ff617 	ldw	r4,-40(fp)
  801454:	01400404 	movi	r5,16
  801458:	08004740 	call	800474 <ReceiveDatablock>
  80145c:	10000226 	beq	r2,zero,801468 <ffs_DiskIOIoctl+0x3f4>
  801460:	e03ff415 	stw	zero,-48(fp)
  801464:	00002506 	br	8014fc <ffs_DiskIOIoctl+0x488>
  801468:	00002406 	br	8014fc <ffs_DiskIOIoctl+0x488>
  80146c:	01001e84 	movi	r4,122
  801470:	000b883a 	mov	r5,zero
  801474:	08007e40 	call	8007e4 <SendCMD>
  801478:	10803fcc 	andi	r2,r2,255
  80147c:	10000f1e 	bne	r2,zero,8014bc <ffs_DiskIOIoctl+0x448>
  801480:	e03ff505 	stb	zero,-44(fp)
  801484:	00000806 	br	8014a8 <ffs_DiskIOIoctl+0x434>
  801488:	e43ff617 	ldw	r16,-40(fp)
  80148c:	80800044 	addi	r2,r16,1
  801490:	e0bff615 	stw	r2,-40(fp)
  801494:	08004240 	call	800424 <ReceiveU8>
  801498:	80800005 	stb	r2,0(r16)
  80149c:	e0bff503 	ldbu	r2,-44(fp)
  8014a0:	10800044 	addi	r2,r2,1
  8014a4:	e0bff505 	stb	r2,-44(fp)
  8014a8:	e0bff503 	ldbu	r2,-44(fp)
  8014ac:	10800130 	cmpltui	r2,r2,4
  8014b0:	103ff51e 	bne	r2,zero,801488 <__alt_data_end+0xff801488>
  8014b4:	e03ff415 	stw	zero,-48(fp)
  8014b8:	00001006 	br	8014fc <ffs_DiskIOIoctl+0x488>
  8014bc:	00000f06 	br	8014fc <ffs_DiskIOIoctl+0x488>
  8014c0:	01003344 	movi	r4,205
  8014c4:	000b883a 	mov	r5,zero
  8014c8:	08007e40 	call	8007e4 <SendCMD>
  8014cc:	10803fcc 	andi	r2,r2,255
  8014d0:	1000071e 	bne	r2,zero,8014f0 <ffs_DiskIOIoctl+0x47c>
  8014d4:	08004240 	call	800424 <ReceiveU8>
  8014d8:	e13ff617 	ldw	r4,-40(fp)
  8014dc:	01401004 	movi	r5,64
  8014e0:	08004740 	call	800474 <ReceiveDatablock>
  8014e4:	10000226 	beq	r2,zero,8014f0 <ffs_DiskIOIoctl+0x47c>
  8014e8:	e03ff415 	stw	zero,-48(fp)
  8014ec:	00000306 	br	8014fc <ffs_DiskIOIoctl+0x488>
  8014f0:	00000206 	br	8014fc <ffs_DiskIOIoctl+0x488>
  8014f4:	00800104 	movi	r2,4
  8014f8:	e0bff415 	stw	r2,-48(fp)
  8014fc:	08007a00 	call	8007a0 <ReleaseBus>
  801500:	e0bff417 	ldw	r2,-48(fp)
  801504:	e6ffff04 	addi	sp,fp,-4
  801508:	dfc00217 	ldw	ra,8(sp)
  80150c:	df000117 	ldw	fp,4(sp)
  801510:	dc000017 	ldw	r16,0(sp)
  801514:	dec00304 	addi	sp,sp,12
  801518:	f800283a 	ret

0080151c <get_fattime>:
  80151c:	defffe04 	addi	sp,sp,-8
  801520:	df000115 	stw	fp,4(sp)
  801524:	df000104 	addi	fp,sp,4
  801528:	008e57f4 	movhi	r2,14687
  80152c:	10a87844 	addi	r2,r2,-24095
  801530:	e0bfff15 	stw	r2,-4(fp)
  801534:	e0bfff17 	ldw	r2,-4(fp)
  801538:	e037883a 	mov	sp,fp
  80153c:	df000017 	ldw	fp,0(sp)
  801540:	dec00104 	addi	sp,sp,4
  801544:	f800283a 	ret

00801548 <mem_cpy>:
  801548:	defffa04 	addi	sp,sp,-24
  80154c:	df000515 	stw	fp,20(sp)
  801550:	df000504 	addi	fp,sp,20
  801554:	e13ffd15 	stw	r4,-12(fp)
  801558:	e17ffe15 	stw	r5,-8(fp)
  80155c:	e1bfff15 	stw	r6,-4(fp)
  801560:	e0bffd17 	ldw	r2,-12(fp)
  801564:	e0bffb15 	stw	r2,-20(fp)
  801568:	e0bffe17 	ldw	r2,-8(fp)
  80156c:	e0bffc15 	stw	r2,-16(fp)
  801570:	00000806 	br	801594 <mem_cpy+0x4c>
  801574:	e0bffb17 	ldw	r2,-20(fp)
  801578:	10c00044 	addi	r3,r2,1
  80157c:	e0fffb15 	stw	r3,-20(fp)
  801580:	e0fffc17 	ldw	r3,-16(fp)
  801584:	19000044 	addi	r4,r3,1
  801588:	e13ffc15 	stw	r4,-16(fp)
  80158c:	18c00003 	ldbu	r3,0(r3)
  801590:	10c00005 	stb	r3,0(r2)
  801594:	e0bfff17 	ldw	r2,-4(fp)
  801598:	10ffffc4 	addi	r3,r2,-1
  80159c:	e0ffff15 	stw	r3,-4(fp)
  8015a0:	103ff41e 	bne	r2,zero,801574 <__alt_data_end+0xff801574>
  8015a4:	e037883a 	mov	sp,fp
  8015a8:	df000017 	ldw	fp,0(sp)
  8015ac:	dec00104 	addi	sp,sp,4
  8015b0:	f800283a 	ret

008015b4 <mem_set>:
  8015b4:	defffb04 	addi	sp,sp,-20
  8015b8:	df000415 	stw	fp,16(sp)
  8015bc:	df000404 	addi	fp,sp,16
  8015c0:	e13ffd15 	stw	r4,-12(fp)
  8015c4:	e17ffe15 	stw	r5,-8(fp)
  8015c8:	e1bfff15 	stw	r6,-4(fp)
  8015cc:	e0bffd17 	ldw	r2,-12(fp)
  8015d0:	e0bffc15 	stw	r2,-16(fp)
  8015d4:	00000506 	br	8015ec <mem_set+0x38>
  8015d8:	e0bffc17 	ldw	r2,-16(fp)
  8015dc:	10c00044 	addi	r3,r2,1
  8015e0:	e0fffc15 	stw	r3,-16(fp)
  8015e4:	e0fffe17 	ldw	r3,-8(fp)
  8015e8:	10c00005 	stb	r3,0(r2)
  8015ec:	e0bfff17 	ldw	r2,-4(fp)
  8015f0:	10ffffc4 	addi	r3,r2,-1
  8015f4:	e0ffff15 	stw	r3,-4(fp)
  8015f8:	103ff71e 	bne	r2,zero,8015d8 <__alt_data_end+0xff8015d8>
  8015fc:	e037883a 	mov	sp,fp
  801600:	df000017 	ldw	fp,0(sp)
  801604:	dec00104 	addi	sp,sp,4
  801608:	f800283a 	ret

0080160c <mem_cmp>:
  80160c:	defff904 	addi	sp,sp,-28
  801610:	df000615 	stw	fp,24(sp)
  801614:	df000604 	addi	fp,sp,24
  801618:	e13ffd15 	stw	r4,-12(fp)
  80161c:	e17ffe15 	stw	r5,-8(fp)
  801620:	e1bfff15 	stw	r6,-4(fp)
  801624:	e0bffd17 	ldw	r2,-12(fp)
  801628:	e0bffa15 	stw	r2,-24(fp)
  80162c:	e0bffe17 	ldw	r2,-8(fp)
  801630:	e0bffb15 	stw	r2,-20(fp)
  801634:	e03ffc15 	stw	zero,-16(fp)
  801638:	0001883a 	nop
  80163c:	e0bfff17 	ldw	r2,-4(fp)
  801640:	10ffffc4 	addi	r3,r2,-1
  801644:	e0ffff15 	stw	r3,-4(fp)
  801648:	10000e26 	beq	r2,zero,801684 <mem_cmp+0x78>
  80164c:	e0bffa17 	ldw	r2,-24(fp)
  801650:	10c00044 	addi	r3,r2,1
  801654:	e0fffa15 	stw	r3,-24(fp)
  801658:	10800003 	ldbu	r2,0(r2)
  80165c:	10c03fcc 	andi	r3,r2,255
  801660:	e0bffb17 	ldw	r2,-20(fp)
  801664:	11000044 	addi	r4,r2,1
  801668:	e13ffb15 	stw	r4,-20(fp)
  80166c:	10800003 	ldbu	r2,0(r2)
  801670:	10803fcc 	andi	r2,r2,255
  801674:	1885c83a 	sub	r2,r3,r2
  801678:	e0bffc15 	stw	r2,-16(fp)
  80167c:	e0bffc17 	ldw	r2,-16(fp)
  801680:	103fee26 	beq	r2,zero,80163c <__alt_data_end+0xff80163c>
  801684:	e0bffc17 	ldw	r2,-16(fp)
  801688:	e037883a 	mov	sp,fp
  80168c:	df000017 	ldw	fp,0(sp)
  801690:	dec00104 	addi	sp,sp,4
  801694:	f800283a 	ret

00801698 <chk_chr>:
  801698:	defffd04 	addi	sp,sp,-12
  80169c:	df000215 	stw	fp,8(sp)
  8016a0:	df000204 	addi	fp,sp,8
  8016a4:	e13ffe15 	stw	r4,-8(fp)
  8016a8:	e17fff15 	stw	r5,-4(fp)
  8016ac:	00000306 	br	8016bc <chk_chr+0x24>
  8016b0:	e0bffe17 	ldw	r2,-8(fp)
  8016b4:	10800044 	addi	r2,r2,1
  8016b8:	e0bffe15 	stw	r2,-8(fp)
  8016bc:	e0bffe17 	ldw	r2,-8(fp)
  8016c0:	10800003 	ldbu	r2,0(r2)
  8016c4:	10803fcc 	andi	r2,r2,255
  8016c8:	1080201c 	xori	r2,r2,128
  8016cc:	10bfe004 	addi	r2,r2,-128
  8016d0:	10000726 	beq	r2,zero,8016f0 <chk_chr+0x58>
  8016d4:	e0bffe17 	ldw	r2,-8(fp)
  8016d8:	10800003 	ldbu	r2,0(r2)
  8016dc:	10c03fcc 	andi	r3,r2,255
  8016e0:	18c0201c 	xori	r3,r3,128
  8016e4:	18ffe004 	addi	r3,r3,-128
  8016e8:	e0bfff17 	ldw	r2,-4(fp)
  8016ec:	18bff01e 	bne	r3,r2,8016b0 <__alt_data_end+0xff8016b0>
  8016f0:	e0bffe17 	ldw	r2,-8(fp)
  8016f4:	10800003 	ldbu	r2,0(r2)
  8016f8:	10803fcc 	andi	r2,r2,255
  8016fc:	1080201c 	xori	r2,r2,128
  801700:	10bfe004 	addi	r2,r2,-128
  801704:	e037883a 	mov	sp,fp
  801708:	df000017 	ldw	fp,0(sp)
  80170c:	dec00104 	addi	sp,sp,4
  801710:	f800283a 	ret

00801714 <move_window>:
  801714:	defffa04 	addi	sp,sp,-24
  801718:	dfc00515 	stw	ra,20(sp)
  80171c:	df000415 	stw	fp,16(sp)
  801720:	df000404 	addi	fp,sp,16
  801724:	e13ffe15 	stw	r4,-8(fp)
  801728:	e17fff15 	stw	r5,-4(fp)
  80172c:	e0bffe17 	ldw	r2,-8(fp)
  801730:	10800b17 	ldw	r2,44(r2)
  801734:	e0bffc15 	stw	r2,-16(fp)
  801738:	e0fffc17 	ldw	r3,-16(fp)
  80173c:	e0bfff17 	ldw	r2,-4(fp)
  801740:	18804526 	beq	r3,r2,801858 <move_window+0x144>
  801744:	e0bffe17 	ldw	r2,-8(fp)
  801748:	10800103 	ldbu	r2,4(r2)
  80174c:	10803fcc 	andi	r2,r2,255
  801750:	10002f26 	beq	r2,zero,801810 <move_window+0xfc>
  801754:	e0bffe17 	ldw	r2,-8(fp)
  801758:	10800043 	ldbu	r2,1(r2)
  80175c:	10c03fcc 	andi	r3,r2,255
  801760:	e0bffe17 	ldw	r2,-8(fp)
  801764:	10800c04 	addi	r2,r2,48
  801768:	1809883a 	mov	r4,r3
  80176c:	100b883a 	mov	r5,r2
  801770:	e1bffc17 	ldw	r6,-16(fp)
  801774:	01c00044 	movi	r7,1
  801778:	0800f080 	call	800f08 <ffs_DiskIOWrite>
  80177c:	10000226 	beq	r2,zero,801788 <move_window+0x74>
  801780:	00800044 	movi	r2,1
  801784:	00003506 	br	80185c <move_window+0x148>
  801788:	e0bffe17 	ldw	r2,-8(fp)
  80178c:	10000105 	stb	zero,4(r2)
  801790:	e0bffe17 	ldw	r2,-8(fp)
  801794:	10c00817 	ldw	r3,32(r2)
  801798:	e0bffe17 	ldw	r2,-8(fp)
  80179c:	10800717 	ldw	r2,28(r2)
  8017a0:	1885883a 	add	r2,r3,r2
  8017a4:	e0fffc17 	ldw	r3,-16(fp)
  8017a8:	1880192e 	bgeu	r3,r2,801810 <move_window+0xfc>
  8017ac:	e0bffe17 	ldw	r2,-8(fp)
  8017b0:	108000c3 	ldbu	r2,3(r2)
  8017b4:	e0bffd05 	stb	r2,-12(fp)
  8017b8:	00001206 	br	801804 <move_window+0xf0>
  8017bc:	e0bffe17 	ldw	r2,-8(fp)
  8017c0:	10800717 	ldw	r2,28(r2)
  8017c4:	e0fffc17 	ldw	r3,-16(fp)
  8017c8:	1885883a 	add	r2,r3,r2
  8017cc:	e0bffc15 	stw	r2,-16(fp)
  8017d0:	e0bffe17 	ldw	r2,-8(fp)
  8017d4:	10800043 	ldbu	r2,1(r2)
  8017d8:	10c03fcc 	andi	r3,r2,255
  8017dc:	e0bffe17 	ldw	r2,-8(fp)
  8017e0:	10800c04 	addi	r2,r2,48
  8017e4:	1809883a 	mov	r4,r3
  8017e8:	100b883a 	mov	r5,r2
  8017ec:	e1bffc17 	ldw	r6,-16(fp)
  8017f0:	01c00044 	movi	r7,1
  8017f4:	0800f080 	call	800f08 <ffs_DiskIOWrite>
  8017f8:	e0bffd03 	ldbu	r2,-12(fp)
  8017fc:	10bfffc4 	addi	r2,r2,-1
  801800:	e0bffd05 	stb	r2,-12(fp)
  801804:	e0bffd03 	ldbu	r2,-12(fp)
  801808:	108000a8 	cmpgeui	r2,r2,2
  80180c:	103feb1e 	bne	r2,zero,8017bc <__alt_data_end+0xff8017bc>
  801810:	e0bfff17 	ldw	r2,-4(fp)
  801814:	10001026 	beq	r2,zero,801858 <move_window+0x144>
  801818:	e0bffe17 	ldw	r2,-8(fp)
  80181c:	10800043 	ldbu	r2,1(r2)
  801820:	10c03fcc 	andi	r3,r2,255
  801824:	e0bffe17 	ldw	r2,-8(fp)
  801828:	10800c04 	addi	r2,r2,48
  80182c:	1809883a 	mov	r4,r3
  801830:	100b883a 	mov	r5,r2
  801834:	e1bfff17 	ldw	r6,-4(fp)
  801838:	01c00044 	movi	r7,1
  80183c:	0800dec0 	call	800dec <ffs_DiskIORead>
  801840:	10000226 	beq	r2,zero,80184c <move_window+0x138>
  801844:	00800044 	movi	r2,1
  801848:	00000406 	br	80185c <move_window+0x148>
  80184c:	e0bffe17 	ldw	r2,-8(fp)
  801850:	e0ffff17 	ldw	r3,-4(fp)
  801854:	10c00b15 	stw	r3,44(r2)
  801858:	0005883a 	mov	r2,zero
  80185c:	e037883a 	mov	sp,fp
  801860:	dfc00117 	ldw	ra,4(sp)
  801864:	df000017 	ldw	fp,0(sp)
  801868:	dec00204 	addi	sp,sp,8
  80186c:	f800283a 	ret

00801870 <sync>:
  801870:	defffc04 	addi	sp,sp,-16
  801874:	dfc00315 	stw	ra,12(sp)
  801878:	df000215 	stw	fp,8(sp)
  80187c:	df000204 	addi	fp,sp,8
  801880:	e13fff15 	stw	r4,-4(fp)
  801884:	e13fff17 	ldw	r4,-4(fp)
  801888:	000b883a 	mov	r5,zero
  80188c:	08017140 	call	801714 <move_window>
  801890:	e0bffe15 	stw	r2,-8(fp)
  801894:	e0bffe17 	ldw	r2,-8(fp)
  801898:	1000761e 	bne	r2,zero,801a74 <sync+0x204>
  80189c:	e0bfff17 	ldw	r2,-4(fp)
  8018a0:	10800003 	ldbu	r2,0(r2)
  8018a4:	10803fcc 	andi	r2,r2,255
  8018a8:	108000d8 	cmpnei	r2,r2,3
  8018ac:	1000671e 	bne	r2,zero,801a4c <sync+0x1dc>
  8018b0:	e0bfff17 	ldw	r2,-4(fp)
  8018b4:	10800143 	ldbu	r2,5(r2)
  8018b8:	10803fcc 	andi	r2,r2,255
  8018bc:	10006326 	beq	r2,zero,801a4c <sync+0x1dc>
  8018c0:	e0bfff17 	ldw	r2,-4(fp)
  8018c4:	10000b15 	stw	zero,44(r2)
  8018c8:	e0bfff17 	ldw	r2,-4(fp)
  8018cc:	10800c04 	addi	r2,r2,48
  8018d0:	1009883a 	mov	r4,r2
  8018d4:	000b883a 	mov	r5,zero
  8018d8:	01808004 	movi	r6,512
  8018dc:	08015b40 	call	8015b4 <mem_set>
  8018e0:	e0bfff17 	ldw	r2,-4(fp)
  8018e4:	00c01544 	movi	r3,85
  8018e8:	10c08b85 	stb	r3,558(r2)
  8018ec:	e0bfff17 	ldw	r2,-4(fp)
  8018f0:	00ffea84 	movi	r3,-86
  8018f4:	10c08bc5 	stb	r3,559(r2)
  8018f8:	e0bfff17 	ldw	r2,-4(fp)
  8018fc:	00c01484 	movi	r3,82
  801900:	10c00c05 	stb	r3,48(r2)
  801904:	e0bfff17 	ldw	r2,-4(fp)
  801908:	00c01484 	movi	r3,82
  80190c:	10c00c45 	stb	r3,49(r2)
  801910:	e0bfff17 	ldw	r2,-4(fp)
  801914:	00c01844 	movi	r3,97
  801918:	10c00c85 	stb	r3,50(r2)
  80191c:	e0bfff17 	ldw	r2,-4(fp)
  801920:	00c01044 	movi	r3,65
  801924:	10c00cc5 	stb	r3,51(r2)
  801928:	e0bfff17 	ldw	r2,-4(fp)
  80192c:	00c01c84 	movi	r3,114
  801930:	10c08505 	stb	r3,532(r2)
  801934:	e0bfff17 	ldw	r2,-4(fp)
  801938:	00c01c84 	movi	r3,114
  80193c:	10c08545 	stb	r3,533(r2)
  801940:	e0bfff17 	ldw	r2,-4(fp)
  801944:	00c01044 	movi	r3,65
  801948:	10c08585 	stb	r3,534(r2)
  80194c:	e0bfff17 	ldw	r2,-4(fp)
  801950:	00c01844 	movi	r3,97
  801954:	10c085c5 	stb	r3,535(r2)
  801958:	e0bfff17 	ldw	r2,-4(fp)
  80195c:	10800417 	ldw	r2,16(r2)
  801960:	1007883a 	mov	r3,r2
  801964:	e0bfff17 	ldw	r2,-4(fp)
  801968:	10c08605 	stb	r3,536(r2)
  80196c:	e0bfff17 	ldw	r2,-4(fp)
  801970:	10800417 	ldw	r2,16(r2)
  801974:	10bfffcc 	andi	r2,r2,65535
  801978:	1004d23a 	srli	r2,r2,8
  80197c:	1007883a 	mov	r3,r2
  801980:	e0bfff17 	ldw	r2,-4(fp)
  801984:	10c08645 	stb	r3,537(r2)
  801988:	e0bfff17 	ldw	r2,-4(fp)
  80198c:	10800417 	ldw	r2,16(r2)
  801990:	1004d43a 	srli	r2,r2,16
  801994:	1007883a 	mov	r3,r2
  801998:	e0bfff17 	ldw	r2,-4(fp)
  80199c:	10c08685 	stb	r3,538(r2)
  8019a0:	e0bfff17 	ldw	r2,-4(fp)
  8019a4:	10800417 	ldw	r2,16(r2)
  8019a8:	1004d63a 	srli	r2,r2,24
  8019ac:	1007883a 	mov	r3,r2
  8019b0:	e0bfff17 	ldw	r2,-4(fp)
  8019b4:	10c086c5 	stb	r3,539(r2)
  8019b8:	e0bfff17 	ldw	r2,-4(fp)
  8019bc:	10800317 	ldw	r2,12(r2)
  8019c0:	1007883a 	mov	r3,r2
  8019c4:	e0bfff17 	ldw	r2,-4(fp)
  8019c8:	10c08705 	stb	r3,540(r2)
  8019cc:	e0bfff17 	ldw	r2,-4(fp)
  8019d0:	10800317 	ldw	r2,12(r2)
  8019d4:	10bfffcc 	andi	r2,r2,65535
  8019d8:	1004d23a 	srli	r2,r2,8
  8019dc:	1007883a 	mov	r3,r2
  8019e0:	e0bfff17 	ldw	r2,-4(fp)
  8019e4:	10c08745 	stb	r3,541(r2)
  8019e8:	e0bfff17 	ldw	r2,-4(fp)
  8019ec:	10800317 	ldw	r2,12(r2)
  8019f0:	1004d43a 	srli	r2,r2,16
  8019f4:	1007883a 	mov	r3,r2
  8019f8:	e0bfff17 	ldw	r2,-4(fp)
  8019fc:	10c08785 	stb	r3,542(r2)
  801a00:	e0bfff17 	ldw	r2,-4(fp)
  801a04:	10800317 	ldw	r2,12(r2)
  801a08:	1004d63a 	srli	r2,r2,24
  801a0c:	1007883a 	mov	r3,r2
  801a10:	e0bfff17 	ldw	r2,-4(fp)
  801a14:	10c087c5 	stb	r3,543(r2)
  801a18:	e0bfff17 	ldw	r2,-4(fp)
  801a1c:	10800043 	ldbu	r2,1(r2)
  801a20:	11003fcc 	andi	r4,r2,255
  801a24:	e0bfff17 	ldw	r2,-4(fp)
  801a28:	10c00c04 	addi	r3,r2,48
  801a2c:	e0bfff17 	ldw	r2,-4(fp)
  801a30:	10800517 	ldw	r2,20(r2)
  801a34:	180b883a 	mov	r5,r3
  801a38:	100d883a 	mov	r6,r2
  801a3c:	01c00044 	movi	r7,1
  801a40:	0800f080 	call	800f08 <ffs_DiskIOWrite>
  801a44:	e0bfff17 	ldw	r2,-4(fp)
  801a48:	10000145 	stb	zero,5(r2)
  801a4c:	e0bfff17 	ldw	r2,-4(fp)
  801a50:	10800043 	ldbu	r2,1(r2)
  801a54:	10803fcc 	andi	r2,r2,255
  801a58:	1009883a 	mov	r4,r2
  801a5c:	000b883a 	mov	r5,zero
  801a60:	000d883a 	mov	r6,zero
  801a64:	08010740 	call	801074 <ffs_DiskIOIoctl>
  801a68:	10000226 	beq	r2,zero,801a74 <sync+0x204>
  801a6c:	00800044 	movi	r2,1
  801a70:	e0bffe15 	stw	r2,-8(fp)
  801a74:	e0bffe17 	ldw	r2,-8(fp)
  801a78:	e037883a 	mov	sp,fp
  801a7c:	dfc00117 	ldw	ra,4(sp)
  801a80:	df000017 	ldw	fp,0(sp)
  801a84:	dec00204 	addi	sp,sp,8
  801a88:	f800283a 	ret

00801a8c <clust2sect>:
  801a8c:	defffd04 	addi	sp,sp,-12
  801a90:	df000215 	stw	fp,8(sp)
  801a94:	df000204 	addi	fp,sp,8
  801a98:	e13ffe15 	stw	r4,-8(fp)
  801a9c:	e17fff15 	stw	r5,-4(fp)
  801aa0:	e0bfff17 	ldw	r2,-4(fp)
  801aa4:	10bfff84 	addi	r2,r2,-2
  801aa8:	e0bfff15 	stw	r2,-4(fp)
  801aac:	e0bffe17 	ldw	r2,-8(fp)
  801ab0:	10800617 	ldw	r2,24(r2)
  801ab4:	10bfff84 	addi	r2,r2,-2
  801ab8:	e0ffff17 	ldw	r3,-4(fp)
  801abc:	18800236 	bltu	r3,r2,801ac8 <clust2sect+0x3c>
  801ac0:	0005883a 	mov	r2,zero
  801ac4:	00000806 	br	801ae8 <clust2sect+0x5c>
  801ac8:	e0bffe17 	ldw	r2,-8(fp)
  801acc:	10800083 	ldbu	r2,2(r2)
  801ad0:	10c03fcc 	andi	r3,r2,255
  801ad4:	e0bfff17 	ldw	r2,-4(fp)
  801ad8:	1887383a 	mul	r3,r3,r2
  801adc:	e0bffe17 	ldw	r2,-8(fp)
  801ae0:	10800a17 	ldw	r2,40(r2)
  801ae4:	1885883a 	add	r2,r3,r2
  801ae8:	e037883a 	mov	sp,fp
  801aec:	df000017 	ldw	fp,0(sp)
  801af0:	dec00104 	addi	sp,sp,4
  801af4:	f800283a 	ret

00801af8 <get_fat>:
  801af8:	defff904 	addi	sp,sp,-28
  801afc:	dfc00615 	stw	ra,24(sp)
  801b00:	df000515 	stw	fp,20(sp)
  801b04:	df000504 	addi	fp,sp,20
  801b08:	e13ffe15 	stw	r4,-8(fp)
  801b0c:	e17fff15 	stw	r5,-4(fp)
  801b10:	e0bfff17 	ldw	r2,-4(fp)
  801b14:	108000b0 	cmpltui	r2,r2,2
  801b18:	1000041e 	bne	r2,zero,801b2c <get_fat+0x34>
  801b1c:	e0bffe17 	ldw	r2,-8(fp)
  801b20:	10800617 	ldw	r2,24(r2)
  801b24:	e0ffff17 	ldw	r3,-4(fp)
  801b28:	18800236 	bltu	r3,r2,801b34 <get_fat+0x3c>
  801b2c:	00800044 	movi	r2,1
  801b30:	00008d06 	br	801d68 <get_fat+0x270>
  801b34:	e0bffe17 	ldw	r2,-8(fp)
  801b38:	10800003 	ldbu	r2,0(r2)
  801b3c:	10803fcc 	andi	r2,r2,255
  801b40:	10c000a0 	cmpeqi	r3,r2,2
  801b44:	18003f1e 	bne	r3,zero,801c44 <get_fat+0x14c>
  801b48:	10c000e0 	cmpeqi	r3,r2,3
  801b4c:	18005a1e 	bne	r3,zero,801cb8 <get_fat+0x1c0>
  801b50:	10800060 	cmpeqi	r2,r2,1
  801b54:	10008326 	beq	r2,zero,801d64 <get_fat+0x26c>
  801b58:	e0bfff17 	ldw	r2,-4(fp)
  801b5c:	e0bffb15 	stw	r2,-20(fp)
  801b60:	e0bffb17 	ldw	r2,-20(fp)
  801b64:	1004d07a 	srli	r2,r2,1
  801b68:	e0fffb17 	ldw	r3,-20(fp)
  801b6c:	1885883a 	add	r2,r3,r2
  801b70:	e0bffb15 	stw	r2,-20(fp)
  801b74:	e0bffe17 	ldw	r2,-8(fp)
  801b78:	10c00817 	ldw	r3,32(r2)
  801b7c:	e0bffb17 	ldw	r2,-20(fp)
  801b80:	1004d27a 	srli	r2,r2,9
  801b84:	1885883a 	add	r2,r3,r2
  801b88:	e13ffe17 	ldw	r4,-8(fp)
  801b8c:	100b883a 	mov	r5,r2
  801b90:	08017140 	call	801714 <move_window>
  801b94:	10000126 	beq	r2,zero,801b9c <get_fat+0xa4>
  801b98:	00007206 	br	801d64 <get_fat+0x26c>
  801b9c:	e0bffb17 	ldw	r2,-20(fp)
  801ba0:	10807fcc 	andi	r2,r2,511
  801ba4:	e0fffe17 	ldw	r3,-8(fp)
  801ba8:	1885883a 	add	r2,r3,r2
  801bac:	10800c04 	addi	r2,r2,48
  801bb0:	10800003 	ldbu	r2,0(r2)
  801bb4:	10803fcc 	andi	r2,r2,255
  801bb8:	e0bffc15 	stw	r2,-16(fp)
  801bbc:	e0bffb17 	ldw	r2,-20(fp)
  801bc0:	10800044 	addi	r2,r2,1
  801bc4:	e0bffb15 	stw	r2,-20(fp)
  801bc8:	e0bffe17 	ldw	r2,-8(fp)
  801bcc:	10c00817 	ldw	r3,32(r2)
  801bd0:	e0bffb17 	ldw	r2,-20(fp)
  801bd4:	1004d27a 	srli	r2,r2,9
  801bd8:	1885883a 	add	r2,r3,r2
  801bdc:	e13ffe17 	ldw	r4,-8(fp)
  801be0:	100b883a 	mov	r5,r2
  801be4:	08017140 	call	801714 <move_window>
  801be8:	10000126 	beq	r2,zero,801bf0 <get_fat+0xf8>
  801bec:	00005d06 	br	801d64 <get_fat+0x26c>
  801bf0:	e0bffb17 	ldw	r2,-20(fp)
  801bf4:	10807fcc 	andi	r2,r2,511
  801bf8:	e0fffe17 	ldw	r3,-8(fp)
  801bfc:	1885883a 	add	r2,r3,r2
  801c00:	10800c04 	addi	r2,r2,48
  801c04:	10800003 	ldbu	r2,0(r2)
  801c08:	10803fcc 	andi	r2,r2,255
  801c0c:	1004923a 	slli	r2,r2,8
  801c10:	1007883a 	mov	r3,r2
  801c14:	e0bffc17 	ldw	r2,-16(fp)
  801c18:	10c4b03a 	or	r2,r2,r3
  801c1c:	e0bffc15 	stw	r2,-16(fp)
  801c20:	e0bfff17 	ldw	r2,-4(fp)
  801c24:	1080004c 	andi	r2,r2,1
  801c28:	10000326 	beq	r2,zero,801c38 <get_fat+0x140>
  801c2c:	e0bffc17 	ldw	r2,-16(fp)
  801c30:	1004d13a 	srli	r2,r2,4
  801c34:	00004c06 	br	801d68 <get_fat+0x270>
  801c38:	e0bffc17 	ldw	r2,-16(fp)
  801c3c:	1083ffcc 	andi	r2,r2,4095
  801c40:	00004906 	br	801d68 <get_fat+0x270>
  801c44:	e0bffe17 	ldw	r2,-8(fp)
  801c48:	10c00817 	ldw	r3,32(r2)
  801c4c:	e0bfff17 	ldw	r2,-4(fp)
  801c50:	1004d23a 	srli	r2,r2,8
  801c54:	1885883a 	add	r2,r3,r2
  801c58:	e13ffe17 	ldw	r4,-8(fp)
  801c5c:	100b883a 	mov	r5,r2
  801c60:	08017140 	call	801714 <move_window>
  801c64:	10000126 	beq	r2,zero,801c6c <get_fat+0x174>
  801c68:	00003e06 	br	801d64 <get_fat+0x26c>
  801c6c:	e0bfff17 	ldw	r2,-4(fp)
  801c70:	1085883a 	add	r2,r2,r2
  801c74:	10807f8c 	andi	r2,r2,510
  801c78:	10800c04 	addi	r2,r2,48
  801c7c:	e0fffe17 	ldw	r3,-8(fp)
  801c80:	1885883a 	add	r2,r3,r2
  801c84:	e0bffd15 	stw	r2,-12(fp)
  801c88:	e0bffd17 	ldw	r2,-12(fp)
  801c8c:	10800044 	addi	r2,r2,1
  801c90:	10800003 	ldbu	r2,0(r2)
  801c94:	10803fcc 	andi	r2,r2,255
  801c98:	1004923a 	slli	r2,r2,8
  801c9c:	1007883a 	mov	r3,r2
  801ca0:	e0bffd17 	ldw	r2,-12(fp)
  801ca4:	10800003 	ldbu	r2,0(r2)
  801ca8:	10803fcc 	andi	r2,r2,255
  801cac:	1884b03a 	or	r2,r3,r2
  801cb0:	10bfffcc 	andi	r2,r2,65535
  801cb4:	00002c06 	br	801d68 <get_fat+0x270>
  801cb8:	e0bffe17 	ldw	r2,-8(fp)
  801cbc:	10c00817 	ldw	r3,32(r2)
  801cc0:	e0bfff17 	ldw	r2,-4(fp)
  801cc4:	1004d1fa 	srli	r2,r2,7
  801cc8:	1885883a 	add	r2,r3,r2
  801ccc:	e13ffe17 	ldw	r4,-8(fp)
  801cd0:	100b883a 	mov	r5,r2
  801cd4:	08017140 	call	801714 <move_window>
  801cd8:	10000126 	beq	r2,zero,801ce0 <get_fat+0x1e8>
  801cdc:	00002106 	br	801d64 <get_fat+0x26c>
  801ce0:	e0bfff17 	ldw	r2,-4(fp)
  801ce4:	1085883a 	add	r2,r2,r2
  801ce8:	1085883a 	add	r2,r2,r2
  801cec:	10807f0c 	andi	r2,r2,508
  801cf0:	10800c04 	addi	r2,r2,48
  801cf4:	e0fffe17 	ldw	r3,-8(fp)
  801cf8:	1885883a 	add	r2,r3,r2
  801cfc:	e0bffd15 	stw	r2,-12(fp)
  801d00:	e0bffd17 	ldw	r2,-12(fp)
  801d04:	108000c4 	addi	r2,r2,3
  801d08:	10800003 	ldbu	r2,0(r2)
  801d0c:	10803fcc 	andi	r2,r2,255
  801d10:	1006963a 	slli	r3,r2,24
  801d14:	e0bffd17 	ldw	r2,-12(fp)
  801d18:	10800084 	addi	r2,r2,2
  801d1c:	10800003 	ldbu	r2,0(r2)
  801d20:	10803fcc 	andi	r2,r2,255
  801d24:	1004943a 	slli	r2,r2,16
  801d28:	1884b03a 	or	r2,r3,r2
  801d2c:	e0fffd17 	ldw	r3,-12(fp)
  801d30:	18c00044 	addi	r3,r3,1
  801d34:	18c00003 	ldbu	r3,0(r3)
  801d38:	18c03fcc 	andi	r3,r3,255
  801d3c:	1806923a 	slli	r3,r3,8
  801d40:	10c6b03a 	or	r3,r2,r3
  801d44:	e0bffd17 	ldw	r2,-12(fp)
  801d48:	10800003 	ldbu	r2,0(r2)
  801d4c:	10803fcc 	andi	r2,r2,255
  801d50:	1886b03a 	or	r3,r3,r2
  801d54:	00840034 	movhi	r2,4096
  801d58:	10bfffc4 	addi	r2,r2,-1
  801d5c:	1884703a 	and	r2,r3,r2
  801d60:	00000106 	br	801d68 <get_fat+0x270>
  801d64:	00bfffc4 	movi	r2,-1
  801d68:	e037883a 	mov	sp,fp
  801d6c:	dfc00117 	ldw	ra,4(sp)
  801d70:	df000017 	ldw	fp,0(sp)
  801d74:	dec00204 	addi	sp,sp,8
  801d78:	f800283a 	ret

00801d7c <put_fat>:
  801d7c:	defff804 	addi	sp,sp,-32
  801d80:	dfc00715 	stw	ra,28(sp)
  801d84:	df000615 	stw	fp,24(sp)
  801d88:	df000604 	addi	fp,sp,24
  801d8c:	e13ffd15 	stw	r4,-12(fp)
  801d90:	e17ffe15 	stw	r5,-8(fp)
  801d94:	e1bfff15 	stw	r6,-4(fp)
  801d98:	e0bffe17 	ldw	r2,-8(fp)
  801d9c:	108000b0 	cmpltui	r2,r2,2
  801da0:	1000041e 	bne	r2,zero,801db4 <put_fat+0x38>
  801da4:	e0bffd17 	ldw	r2,-12(fp)
  801da8:	10800617 	ldw	r2,24(r2)
  801dac:	e0fffe17 	ldw	r3,-8(fp)
  801db0:	18800336 	bltu	r3,r2,801dc0 <put_fat+0x44>
  801db4:	00800084 	movi	r2,2
  801db8:	e0bffa15 	stw	r2,-24(fp)
  801dbc:	0000c506 	br	8020d4 <put_fat+0x358>
  801dc0:	e0bffd17 	ldw	r2,-12(fp)
  801dc4:	10800003 	ldbu	r2,0(r2)
  801dc8:	10803fcc 	andi	r2,r2,255
  801dcc:	10c000a0 	cmpeqi	r3,r2,2
  801dd0:	18005b1e 	bne	r3,zero,801f40 <put_fat+0x1c4>
  801dd4:	10c000e0 	cmpeqi	r3,r2,3
  801dd8:	1800771e 	bne	r3,zero,801fb8 <put_fat+0x23c>
  801ddc:	10800060 	cmpeqi	r2,r2,1
  801de0:	1000b726 	beq	r2,zero,8020c0 <put_fat+0x344>
  801de4:	e0bffe17 	ldw	r2,-8(fp)
  801de8:	e0bffb15 	stw	r2,-20(fp)
  801dec:	e0bffb17 	ldw	r2,-20(fp)
  801df0:	1004d07a 	srli	r2,r2,1
  801df4:	e0fffb17 	ldw	r3,-20(fp)
  801df8:	1885883a 	add	r2,r3,r2
  801dfc:	e0bffb15 	stw	r2,-20(fp)
  801e00:	e0bffd17 	ldw	r2,-12(fp)
  801e04:	10c00817 	ldw	r3,32(r2)
  801e08:	e0bffb17 	ldw	r2,-20(fp)
  801e0c:	1004d27a 	srli	r2,r2,9
  801e10:	1885883a 	add	r2,r3,r2
  801e14:	e13ffd17 	ldw	r4,-12(fp)
  801e18:	100b883a 	mov	r5,r2
  801e1c:	08017140 	call	801714 <move_window>
  801e20:	e0bffa15 	stw	r2,-24(fp)
  801e24:	e0bffa17 	ldw	r2,-24(fp)
  801e28:	10000126 	beq	r2,zero,801e30 <put_fat+0xb4>
  801e2c:	0000a606 	br	8020c8 <put_fat+0x34c>
  801e30:	e0bffb17 	ldw	r2,-20(fp)
  801e34:	10807fcc 	andi	r2,r2,511
  801e38:	10800c04 	addi	r2,r2,48
  801e3c:	e0fffd17 	ldw	r3,-12(fp)
  801e40:	1885883a 	add	r2,r3,r2
  801e44:	e0bffc15 	stw	r2,-16(fp)
  801e48:	e0bffe17 	ldw	r2,-8(fp)
  801e4c:	1080004c 	andi	r2,r2,1
  801e50:	10000a26 	beq	r2,zero,801e7c <put_fat+0x100>
  801e54:	e0bffc17 	ldw	r2,-16(fp)
  801e58:	10800003 	ldbu	r2,0(r2)
  801e5c:	108003cc 	andi	r2,r2,15
  801e60:	1007883a 	mov	r3,r2
  801e64:	e0bfff17 	ldw	r2,-4(fp)
  801e68:	10803fcc 	andi	r2,r2,255
  801e6c:	1004913a 	slli	r2,r2,4
  801e70:	1884b03a 	or	r2,r3,r2
  801e74:	1007883a 	mov	r3,r2
  801e78:	00000206 	br	801e84 <put_fat+0x108>
  801e7c:	e0bfff17 	ldw	r2,-4(fp)
  801e80:	1007883a 	mov	r3,r2
  801e84:	e0bffc17 	ldw	r2,-16(fp)
  801e88:	10c00005 	stb	r3,0(r2)
  801e8c:	e0bffb17 	ldw	r2,-20(fp)
  801e90:	10800044 	addi	r2,r2,1
  801e94:	e0bffb15 	stw	r2,-20(fp)
  801e98:	e0bffd17 	ldw	r2,-12(fp)
  801e9c:	00c00044 	movi	r3,1
  801ea0:	10c00105 	stb	r3,4(r2)
  801ea4:	e0bffd17 	ldw	r2,-12(fp)
  801ea8:	10c00817 	ldw	r3,32(r2)
  801eac:	e0bffb17 	ldw	r2,-20(fp)
  801eb0:	1004d27a 	srli	r2,r2,9
  801eb4:	1885883a 	add	r2,r3,r2
  801eb8:	e13ffd17 	ldw	r4,-12(fp)
  801ebc:	100b883a 	mov	r5,r2
  801ec0:	08017140 	call	801714 <move_window>
  801ec4:	e0bffa15 	stw	r2,-24(fp)
  801ec8:	e0bffa17 	ldw	r2,-24(fp)
  801ecc:	10000126 	beq	r2,zero,801ed4 <put_fat+0x158>
  801ed0:	00007d06 	br	8020c8 <put_fat+0x34c>
  801ed4:	e0bffb17 	ldw	r2,-20(fp)
  801ed8:	10807fcc 	andi	r2,r2,511
  801edc:	10800c04 	addi	r2,r2,48
  801ee0:	e0fffd17 	ldw	r3,-12(fp)
  801ee4:	1885883a 	add	r2,r3,r2
  801ee8:	e0bffc15 	stw	r2,-16(fp)
  801eec:	e0bffe17 	ldw	r2,-8(fp)
  801ef0:	1080004c 	andi	r2,r2,1
  801ef4:	10000426 	beq	r2,zero,801f08 <put_fat+0x18c>
  801ef8:	e0bfff17 	ldw	r2,-4(fp)
  801efc:	1004d13a 	srli	r2,r2,4
  801f00:	1007883a 	mov	r3,r2
  801f04:	00000b06 	br	801f34 <put_fat+0x1b8>
  801f08:	e0bffc17 	ldw	r2,-16(fp)
  801f0c:	10800003 	ldbu	r2,0(r2)
  801f10:	1007883a 	mov	r3,r2
  801f14:	00bffc04 	movi	r2,-16
  801f18:	1884703a 	and	r2,r3,r2
  801f1c:	1007883a 	mov	r3,r2
  801f20:	e0bfff17 	ldw	r2,-4(fp)
  801f24:	1004d23a 	srli	r2,r2,8
  801f28:	108003cc 	andi	r2,r2,15
  801f2c:	1884b03a 	or	r2,r3,r2
  801f30:	1007883a 	mov	r3,r2
  801f34:	e0bffc17 	ldw	r2,-16(fp)
  801f38:	10c00005 	stb	r3,0(r2)
  801f3c:	00006206 	br	8020c8 <put_fat+0x34c>
  801f40:	e0bffd17 	ldw	r2,-12(fp)
  801f44:	10c00817 	ldw	r3,32(r2)
  801f48:	e0bffe17 	ldw	r2,-8(fp)
  801f4c:	1004d23a 	srli	r2,r2,8
  801f50:	1885883a 	add	r2,r3,r2
  801f54:	e13ffd17 	ldw	r4,-12(fp)
  801f58:	100b883a 	mov	r5,r2
  801f5c:	08017140 	call	801714 <move_window>
  801f60:	e0bffa15 	stw	r2,-24(fp)
  801f64:	e0bffa17 	ldw	r2,-24(fp)
  801f68:	10000126 	beq	r2,zero,801f70 <put_fat+0x1f4>
  801f6c:	00005606 	br	8020c8 <put_fat+0x34c>
  801f70:	e0bffe17 	ldw	r2,-8(fp)
  801f74:	1085883a 	add	r2,r2,r2
  801f78:	10807f8c 	andi	r2,r2,510
  801f7c:	10800c04 	addi	r2,r2,48
  801f80:	e0fffd17 	ldw	r3,-12(fp)
  801f84:	1885883a 	add	r2,r3,r2
  801f88:	e0bffc15 	stw	r2,-16(fp)
  801f8c:	e0bfff17 	ldw	r2,-4(fp)
  801f90:	1007883a 	mov	r3,r2
  801f94:	e0bffc17 	ldw	r2,-16(fp)
  801f98:	10c00005 	stb	r3,0(r2)
  801f9c:	e0bffc17 	ldw	r2,-16(fp)
  801fa0:	10800044 	addi	r2,r2,1
  801fa4:	e0ffff17 	ldw	r3,-4(fp)
  801fa8:	18ffffcc 	andi	r3,r3,65535
  801fac:	1806d23a 	srli	r3,r3,8
  801fb0:	10c00005 	stb	r3,0(r2)
  801fb4:	00004406 	br	8020c8 <put_fat+0x34c>
  801fb8:	e0bffd17 	ldw	r2,-12(fp)
  801fbc:	10c00817 	ldw	r3,32(r2)
  801fc0:	e0bffe17 	ldw	r2,-8(fp)
  801fc4:	1004d1fa 	srli	r2,r2,7
  801fc8:	1885883a 	add	r2,r3,r2
  801fcc:	e13ffd17 	ldw	r4,-12(fp)
  801fd0:	100b883a 	mov	r5,r2
  801fd4:	08017140 	call	801714 <move_window>
  801fd8:	e0bffa15 	stw	r2,-24(fp)
  801fdc:	e0bffa17 	ldw	r2,-24(fp)
  801fe0:	10000126 	beq	r2,zero,801fe8 <put_fat+0x26c>
  801fe4:	00003806 	br	8020c8 <put_fat+0x34c>
  801fe8:	e0bffe17 	ldw	r2,-8(fp)
  801fec:	1085883a 	add	r2,r2,r2
  801ff0:	1085883a 	add	r2,r2,r2
  801ff4:	10807f0c 	andi	r2,r2,508
  801ff8:	10800c04 	addi	r2,r2,48
  801ffc:	e0fffd17 	ldw	r3,-12(fp)
  802000:	1885883a 	add	r2,r3,r2
  802004:	e0bffc15 	stw	r2,-16(fp)
  802008:	e0bffc17 	ldw	r2,-16(fp)
  80200c:	108000c4 	addi	r2,r2,3
  802010:	10800003 	ldbu	r2,0(r2)
  802014:	10803fcc 	andi	r2,r2,255
  802018:	1006963a 	slli	r3,r2,24
  80201c:	e0bffc17 	ldw	r2,-16(fp)
  802020:	10800084 	addi	r2,r2,2
  802024:	10800003 	ldbu	r2,0(r2)
  802028:	10803fcc 	andi	r2,r2,255
  80202c:	1004943a 	slli	r2,r2,16
  802030:	1884b03a 	or	r2,r3,r2
  802034:	e0fffc17 	ldw	r3,-16(fp)
  802038:	18c00044 	addi	r3,r3,1
  80203c:	18c00003 	ldbu	r3,0(r3)
  802040:	18c03fcc 	andi	r3,r3,255
  802044:	1806923a 	slli	r3,r3,8
  802048:	10c6b03a 	or	r3,r2,r3
  80204c:	e0bffc17 	ldw	r2,-16(fp)
  802050:	10800003 	ldbu	r2,0(r2)
  802054:	10803fcc 	andi	r2,r2,255
  802058:	1884b03a 	or	r2,r3,r2
  80205c:	10bc002c 	andhi	r2,r2,61440
  802060:	e0ffff17 	ldw	r3,-4(fp)
  802064:	1884b03a 	or	r2,r3,r2
  802068:	e0bfff15 	stw	r2,-4(fp)
  80206c:	e0bfff17 	ldw	r2,-4(fp)
  802070:	1007883a 	mov	r3,r2
  802074:	e0bffc17 	ldw	r2,-16(fp)
  802078:	10c00005 	stb	r3,0(r2)
  80207c:	e0bffc17 	ldw	r2,-16(fp)
  802080:	10800044 	addi	r2,r2,1
  802084:	e0ffff17 	ldw	r3,-4(fp)
  802088:	18ffffcc 	andi	r3,r3,65535
  80208c:	1806d23a 	srli	r3,r3,8
  802090:	10c00005 	stb	r3,0(r2)
  802094:	e0bffc17 	ldw	r2,-16(fp)
  802098:	10800084 	addi	r2,r2,2
  80209c:	e0ffff17 	ldw	r3,-4(fp)
  8020a0:	1806d43a 	srli	r3,r3,16
  8020a4:	10c00005 	stb	r3,0(r2)
  8020a8:	e0bffc17 	ldw	r2,-16(fp)
  8020ac:	108000c4 	addi	r2,r2,3
  8020b0:	e0ffff17 	ldw	r3,-4(fp)
  8020b4:	1806d63a 	srli	r3,r3,24
  8020b8:	10c00005 	stb	r3,0(r2)
  8020bc:	00000206 	br	8020c8 <put_fat+0x34c>
  8020c0:	00800084 	movi	r2,2
  8020c4:	e0bffa15 	stw	r2,-24(fp)
  8020c8:	e0bffd17 	ldw	r2,-12(fp)
  8020cc:	00c00044 	movi	r3,1
  8020d0:	10c00105 	stb	r3,4(r2)
  8020d4:	e0bffa17 	ldw	r2,-24(fp)
  8020d8:	e037883a 	mov	sp,fp
  8020dc:	dfc00117 	ldw	ra,4(sp)
  8020e0:	df000017 	ldw	fp,0(sp)
  8020e4:	dec00204 	addi	sp,sp,8
  8020e8:	f800283a 	ret

008020ec <remove_chain>:
  8020ec:	defffa04 	addi	sp,sp,-24
  8020f0:	dfc00515 	stw	ra,20(sp)
  8020f4:	df000415 	stw	fp,16(sp)
  8020f8:	df000404 	addi	fp,sp,16
  8020fc:	e13ffe15 	stw	r4,-8(fp)
  802100:	e17fff15 	stw	r5,-4(fp)
  802104:	e0bfff17 	ldw	r2,-4(fp)
  802108:	108000b0 	cmpltui	r2,r2,2
  80210c:	1000041e 	bne	r2,zero,802120 <remove_chain+0x34>
  802110:	e0bffe17 	ldw	r2,-8(fp)
  802114:	10800617 	ldw	r2,24(r2)
  802118:	e0ffff17 	ldw	r3,-4(fp)
  80211c:	18800336 	bltu	r3,r2,80212c <remove_chain+0x40>
  802120:	00800084 	movi	r2,2
  802124:	e0bffc15 	stw	r2,-16(fp)
  802128:	00002f06 	br	8021e8 <remove_chain+0xfc>
  80212c:	e03ffc15 	stw	zero,-16(fp)
  802130:	00002906 	br	8021d8 <remove_chain+0xec>
  802134:	e13ffe17 	ldw	r4,-8(fp)
  802138:	e17fff17 	ldw	r5,-4(fp)
  80213c:	0801af80 	call	801af8 <get_fat>
  802140:	e0bffd15 	stw	r2,-12(fp)
  802144:	e0bffd17 	ldw	r2,-12(fp)
  802148:	1000011e 	bne	r2,zero,802150 <remove_chain+0x64>
  80214c:	00002606 	br	8021e8 <remove_chain+0xfc>
  802150:	e0bffd17 	ldw	r2,-12(fp)
  802154:	10800058 	cmpnei	r2,r2,1
  802158:	1000031e 	bne	r2,zero,802168 <remove_chain+0x7c>
  80215c:	00800084 	movi	r2,2
  802160:	e0bffc15 	stw	r2,-16(fp)
  802164:	00002006 	br	8021e8 <remove_chain+0xfc>
  802168:	e0bffd17 	ldw	r2,-12(fp)
  80216c:	10bfffd8 	cmpnei	r2,r2,-1
  802170:	1000031e 	bne	r2,zero,802180 <remove_chain+0x94>
  802174:	00800044 	movi	r2,1
  802178:	e0bffc15 	stw	r2,-16(fp)
  80217c:	00001a06 	br	8021e8 <remove_chain+0xfc>
  802180:	e13ffe17 	ldw	r4,-8(fp)
  802184:	e17fff17 	ldw	r5,-4(fp)
  802188:	000d883a 	mov	r6,zero
  80218c:	0801d7c0 	call	801d7c <put_fat>
  802190:	e0bffc15 	stw	r2,-16(fp)
  802194:	e0bffc17 	ldw	r2,-16(fp)
  802198:	10000126 	beq	r2,zero,8021a0 <remove_chain+0xb4>
  80219c:	00001206 	br	8021e8 <remove_chain+0xfc>
  8021a0:	e0bffe17 	ldw	r2,-8(fp)
  8021a4:	10800417 	ldw	r2,16(r2)
  8021a8:	10bfffe0 	cmpeqi	r2,r2,-1
  8021ac:	1000081e 	bne	r2,zero,8021d0 <remove_chain+0xe4>
  8021b0:	e0bffe17 	ldw	r2,-8(fp)
  8021b4:	10800417 	ldw	r2,16(r2)
  8021b8:	10c00044 	addi	r3,r2,1
  8021bc:	e0bffe17 	ldw	r2,-8(fp)
  8021c0:	10c00415 	stw	r3,16(r2)
  8021c4:	e0bffe17 	ldw	r2,-8(fp)
  8021c8:	00c00044 	movi	r3,1
  8021cc:	10c00145 	stb	r3,5(r2)
  8021d0:	e0bffd17 	ldw	r2,-12(fp)
  8021d4:	e0bfff15 	stw	r2,-4(fp)
  8021d8:	e0bffe17 	ldw	r2,-8(fp)
  8021dc:	10800617 	ldw	r2,24(r2)
  8021e0:	e0ffff17 	ldw	r3,-4(fp)
  8021e4:	18bfd336 	bltu	r3,r2,802134 <__alt_data_end+0xff802134>
  8021e8:	e0bffc17 	ldw	r2,-16(fp)
  8021ec:	e037883a 	mov	sp,fp
  8021f0:	dfc00117 	ldw	ra,4(sp)
  8021f4:	df000017 	ldw	fp,0(sp)
  8021f8:	dec00204 	addi	sp,sp,8
  8021fc:	f800283a 	ret

00802200 <create_chain>:
  802200:	defff804 	addi	sp,sp,-32
  802204:	dfc00715 	stw	ra,28(sp)
  802208:	df000615 	stw	fp,24(sp)
  80220c:	df000604 	addi	fp,sp,24
  802210:	e13ffe15 	stw	r4,-8(fp)
  802214:	e17fff15 	stw	r5,-4(fp)
  802218:	e0bfff17 	ldw	r2,-4(fp)
  80221c:	10000c1e 	bne	r2,zero,802250 <create_chain+0x50>
  802220:	e0bffe17 	ldw	r2,-8(fp)
  802224:	10800317 	ldw	r2,12(r2)
  802228:	e0bffb15 	stw	r2,-20(fp)
  80222c:	e0bffb17 	ldw	r2,-20(fp)
  802230:	10000426 	beq	r2,zero,802244 <create_chain+0x44>
  802234:	e0bffe17 	ldw	r2,-8(fp)
  802238:	10800617 	ldw	r2,24(r2)
  80223c:	e0fffb17 	ldw	r3,-20(fp)
  802240:	18801436 	bltu	r3,r2,802294 <create_chain+0x94>
  802244:	00800044 	movi	r2,1
  802248:	e0bffb15 	stw	r2,-20(fp)
  80224c:	00001106 	br	802294 <create_chain+0x94>
  802250:	e13ffe17 	ldw	r4,-8(fp)
  802254:	e17fff17 	ldw	r5,-4(fp)
  802258:	0801af80 	call	801af8 <get_fat>
  80225c:	e0bffd15 	stw	r2,-12(fp)
  802260:	e0bffd17 	ldw	r2,-12(fp)
  802264:	108000a8 	cmpgeui	r2,r2,2
  802268:	1000021e 	bne	r2,zero,802274 <create_chain+0x74>
  80226c:	00800044 	movi	r2,1
  802270:	00005706 	br	8023d0 <create_chain+0x1d0>
  802274:	e0bffe17 	ldw	r2,-8(fp)
  802278:	10800617 	ldw	r2,24(r2)
  80227c:	e0fffd17 	ldw	r3,-12(fp)
  802280:	1880022e 	bgeu	r3,r2,80228c <create_chain+0x8c>
  802284:	e0bffd17 	ldw	r2,-12(fp)
  802288:	00005106 	br	8023d0 <create_chain+0x1d0>
  80228c:	e0bfff17 	ldw	r2,-4(fp)
  802290:	e0bffb15 	stw	r2,-20(fp)
  802294:	e0bffb17 	ldw	r2,-20(fp)
  802298:	e0bffa15 	stw	r2,-24(fp)
  80229c:	e0bffa17 	ldw	r2,-24(fp)
  8022a0:	10800044 	addi	r2,r2,1
  8022a4:	e0bffa15 	stw	r2,-24(fp)
  8022a8:	e0bffe17 	ldw	r2,-8(fp)
  8022ac:	10800617 	ldw	r2,24(r2)
  8022b0:	e0fffa17 	ldw	r3,-24(fp)
  8022b4:	18800736 	bltu	r3,r2,8022d4 <create_chain+0xd4>
  8022b8:	00800084 	movi	r2,2
  8022bc:	e0bffa15 	stw	r2,-24(fp)
  8022c0:	e0bffa17 	ldw	r2,-24(fp)
  8022c4:	e0fffb17 	ldw	r3,-20(fp)
  8022c8:	1880022e 	bgeu	r3,r2,8022d4 <create_chain+0xd4>
  8022cc:	0005883a 	mov	r2,zero
  8022d0:	00003f06 	br	8023d0 <create_chain+0x1d0>
  8022d4:	e13ffe17 	ldw	r4,-8(fp)
  8022d8:	e17ffa17 	ldw	r5,-24(fp)
  8022dc:	0801af80 	call	801af8 <get_fat>
  8022e0:	e0bffd15 	stw	r2,-12(fp)
  8022e4:	e0bffd17 	ldw	r2,-12(fp)
  8022e8:	10000a1e 	bne	r2,zero,802314 <create_chain+0x114>
  8022ec:	0001883a 	nop
  8022f0:	e13ffe17 	ldw	r4,-8(fp)
  8022f4:	e17ffa17 	ldw	r5,-24(fp)
  8022f8:	01840034 	movhi	r6,4096
  8022fc:	31bfffc4 	addi	r6,r6,-1
  802300:	0801d7c0 	call	801d7c <put_fat>
  802304:	e0bffc15 	stw	r2,-16(fp)
  802308:	e0bffc17 	ldw	r2,-16(fp)
  80230c:	1000161e 	bne	r2,zero,802368 <create_chain+0x168>
  802310:	00000e06 	br	80234c <create_chain+0x14c>
  802314:	e0bffd17 	ldw	r2,-12(fp)
  802318:	10bfffe0 	cmpeqi	r2,r2,-1
  80231c:	1000031e 	bne	r2,zero,80232c <create_chain+0x12c>
  802320:	e0bffd17 	ldw	r2,-12(fp)
  802324:	10800058 	cmpnei	r2,r2,1
  802328:	1000021e 	bne	r2,zero,802334 <create_chain+0x134>
  80232c:	e0bffd17 	ldw	r2,-12(fp)
  802330:	00002706 	br	8023d0 <create_chain+0x1d0>
  802334:	e0fffa17 	ldw	r3,-24(fp)
  802338:	e0bffb17 	ldw	r2,-20(fp)
  80233c:	1880021e 	bne	r3,r2,802348 <create_chain+0x148>
  802340:	0005883a 	mov	r2,zero
  802344:	00002206 	br	8023d0 <create_chain+0x1d0>
  802348:	003fd406 	br	80229c <__alt_data_end+0xff80229c>
  80234c:	e0bfff17 	ldw	r2,-4(fp)
  802350:	10000526 	beq	r2,zero,802368 <create_chain+0x168>
  802354:	e13ffe17 	ldw	r4,-8(fp)
  802358:	e17fff17 	ldw	r5,-4(fp)
  80235c:	e1bffa17 	ldw	r6,-24(fp)
  802360:	0801d7c0 	call	801d7c <put_fat>
  802364:	e0bffc15 	stw	r2,-16(fp)
  802368:	e0bffc17 	ldw	r2,-16(fp)
  80236c:	1000101e 	bne	r2,zero,8023b0 <create_chain+0x1b0>
  802370:	e0bffe17 	ldw	r2,-8(fp)
  802374:	e0fffa17 	ldw	r3,-24(fp)
  802378:	10c00315 	stw	r3,12(r2)
  80237c:	e0bffe17 	ldw	r2,-8(fp)
  802380:	10800417 	ldw	r2,16(r2)
  802384:	10bfffe0 	cmpeqi	r2,r2,-1
  802388:	1000101e 	bne	r2,zero,8023cc <create_chain+0x1cc>
  80238c:	e0bffe17 	ldw	r2,-8(fp)
  802390:	10800417 	ldw	r2,16(r2)
  802394:	10ffffc4 	addi	r3,r2,-1
  802398:	e0bffe17 	ldw	r2,-8(fp)
  80239c:	10c00415 	stw	r3,16(r2)
  8023a0:	e0bffe17 	ldw	r2,-8(fp)
  8023a4:	00c00044 	movi	r3,1
  8023a8:	10c00145 	stb	r3,5(r2)
  8023ac:	00000706 	br	8023cc <create_chain+0x1cc>
  8023b0:	e0bffc17 	ldw	r2,-16(fp)
  8023b4:	10800058 	cmpnei	r2,r2,1
  8023b8:	1000021e 	bne	r2,zero,8023c4 <create_chain+0x1c4>
  8023bc:	00bfffc4 	movi	r2,-1
  8023c0:	00000106 	br	8023c8 <create_chain+0x1c8>
  8023c4:	00800044 	movi	r2,1
  8023c8:	e0bffa15 	stw	r2,-24(fp)
  8023cc:	e0bffa17 	ldw	r2,-24(fp)
  8023d0:	e037883a 	mov	sp,fp
  8023d4:	dfc00117 	ldw	ra,4(sp)
  8023d8:	df000017 	ldw	fp,0(sp)
  8023dc:	dec00204 	addi	sp,sp,8
  8023e0:	f800283a 	ret

008023e4 <dir_sdi>:
  8023e4:	defffa04 	addi	sp,sp,-24
  8023e8:	dfc00515 	stw	ra,20(sp)
  8023ec:	df000415 	stw	fp,16(sp)
  8023f0:	df000404 	addi	fp,sp,16
  8023f4:	e13ffe15 	stw	r4,-8(fp)
  8023f8:	2805883a 	mov	r2,r5
  8023fc:	e0bfff0d 	sth	r2,-4(fp)
  802400:	e0bffe17 	ldw	r2,-8(fp)
  802404:	e0ffff0b 	ldhu	r3,-4(fp)
  802408:	10c0018d 	sth	r3,6(r2)
  80240c:	e0bffe17 	ldw	r2,-8(fp)
  802410:	10800217 	ldw	r2,8(r2)
  802414:	e0bffc15 	stw	r2,-16(fp)
  802418:	e0bffc17 	ldw	r2,-16(fp)
  80241c:	10800060 	cmpeqi	r2,r2,1
  802420:	1000051e 	bne	r2,zero,802438 <dir_sdi+0x54>
  802424:	e0bffe17 	ldw	r2,-8(fp)
  802428:	10800017 	ldw	r2,0(r2)
  80242c:	10800617 	ldw	r2,24(r2)
  802430:	e0fffc17 	ldw	r3,-16(fp)
  802434:	18800236 	bltu	r3,r2,802440 <dir_sdi+0x5c>
  802438:	00800084 	movi	r2,2
  80243c:	00005f06 	br	8025bc <dir_sdi+0x1d8>
  802440:	e0bffc17 	ldw	r2,-16(fp)
  802444:	10000a1e 	bne	r2,zero,802470 <dir_sdi+0x8c>
  802448:	e0bffe17 	ldw	r2,-8(fp)
  80244c:	10800017 	ldw	r2,0(r2)
  802450:	10800003 	ldbu	r2,0(r2)
  802454:	10803fcc 	andi	r2,r2,255
  802458:	108000d8 	cmpnei	r2,r2,3
  80245c:	1000041e 	bne	r2,zero,802470 <dir_sdi+0x8c>
  802460:	e0bffe17 	ldw	r2,-8(fp)
  802464:	10800017 	ldw	r2,0(r2)
  802468:	10800917 	ldw	r2,36(r2)
  80246c:	e0bffc15 	stw	r2,-16(fp)
  802470:	e0bffc17 	ldw	r2,-16(fp)
  802474:	1000151e 	bne	r2,zero,8024cc <dir_sdi+0xe8>
  802478:	e0bffe17 	ldw	r2,-8(fp)
  80247c:	e0fffc17 	ldw	r3,-16(fp)
  802480:	10c00315 	stw	r3,12(r2)
  802484:	e0bffe17 	ldw	r2,-8(fp)
  802488:	10800017 	ldw	r2,0(r2)
  80248c:	1080020b 	ldhu	r2,8(r2)
  802490:	10bfffcc 	andi	r2,r2,65535
  802494:	e0ffff0b 	ldhu	r3,-4(fp)
  802498:	18800236 	bltu	r3,r2,8024a4 <dir_sdi+0xc0>
  80249c:	00800084 	movi	r2,2
  8024a0:	00004606 	br	8025bc <dir_sdi+0x1d8>
  8024a4:	e0bffe17 	ldw	r2,-8(fp)
  8024a8:	10800017 	ldw	r2,0(r2)
  8024ac:	10c00917 	ldw	r3,36(r2)
  8024b0:	e0bfff0b 	ldhu	r2,-4(fp)
  8024b4:	1004d13a 	srli	r2,r2,4
  8024b8:	10bfffcc 	andi	r2,r2,65535
  8024bc:	1887883a 	add	r3,r3,r2
  8024c0:	e0bffe17 	ldw	r2,-8(fp)
  8024c4:	10c00415 	stw	r3,16(r2)
  8024c8:	00003206 	br	802594 <dir_sdi+0x1b0>
  8024cc:	e0bffe17 	ldw	r2,-8(fp)
  8024d0:	10800017 	ldw	r2,0(r2)
  8024d4:	10800083 	ldbu	r2,2(r2)
  8024d8:	10803fcc 	andi	r2,r2,255
  8024dc:	1004913a 	slli	r2,r2,4
  8024e0:	e0bffd0d 	sth	r2,-12(fp)
  8024e4:	00001906 	br	80254c <dir_sdi+0x168>
  8024e8:	e0bffe17 	ldw	r2,-8(fp)
  8024ec:	10800017 	ldw	r2,0(r2)
  8024f0:	1009883a 	mov	r4,r2
  8024f4:	e17ffc17 	ldw	r5,-16(fp)
  8024f8:	0801af80 	call	801af8 <get_fat>
  8024fc:	e0bffc15 	stw	r2,-16(fp)
  802500:	e0bffc17 	ldw	r2,-16(fp)
  802504:	10bfffd8 	cmpnei	r2,r2,-1
  802508:	1000021e 	bne	r2,zero,802514 <dir_sdi+0x130>
  80250c:	00800044 	movi	r2,1
  802510:	00002a06 	br	8025bc <dir_sdi+0x1d8>
  802514:	e0bffc17 	ldw	r2,-16(fp)
  802518:	108000b0 	cmpltui	r2,r2,2
  80251c:	1000051e 	bne	r2,zero,802534 <dir_sdi+0x150>
  802520:	e0bffe17 	ldw	r2,-8(fp)
  802524:	10800017 	ldw	r2,0(r2)
  802528:	10800617 	ldw	r2,24(r2)
  80252c:	e0fffc17 	ldw	r3,-16(fp)
  802530:	18800236 	bltu	r3,r2,80253c <dir_sdi+0x158>
  802534:	00800084 	movi	r2,2
  802538:	00002006 	br	8025bc <dir_sdi+0x1d8>
  80253c:	e0ffff0b 	ldhu	r3,-4(fp)
  802540:	e0bffd0b 	ldhu	r2,-12(fp)
  802544:	1885c83a 	sub	r2,r3,r2
  802548:	e0bfff0d 	sth	r2,-4(fp)
  80254c:	e0ffff0b 	ldhu	r3,-4(fp)
  802550:	e0bffd0b 	ldhu	r2,-12(fp)
  802554:	18bfe42e 	bgeu	r3,r2,8024e8 <__alt_data_end+0xff8024e8>
  802558:	e0bffe17 	ldw	r2,-8(fp)
  80255c:	e0fffc17 	ldw	r3,-16(fp)
  802560:	10c00315 	stw	r3,12(r2)
  802564:	e0bffe17 	ldw	r2,-8(fp)
  802568:	10800017 	ldw	r2,0(r2)
  80256c:	1009883a 	mov	r4,r2
  802570:	e17ffc17 	ldw	r5,-16(fp)
  802574:	0801a8c0 	call	801a8c <clust2sect>
  802578:	1007883a 	mov	r3,r2
  80257c:	e0bfff0b 	ldhu	r2,-4(fp)
  802580:	1004d13a 	srli	r2,r2,4
  802584:	10bfffcc 	andi	r2,r2,65535
  802588:	1887883a 	add	r3,r3,r2
  80258c:	e0bffe17 	ldw	r2,-8(fp)
  802590:	10c00415 	stw	r3,16(r2)
  802594:	e0bffe17 	ldw	r2,-8(fp)
  802598:	10c00017 	ldw	r3,0(r2)
  80259c:	e0bfff0b 	ldhu	r2,-4(fp)
  8025a0:	108003cc 	andi	r2,r2,15
  8025a4:	1004917a 	slli	r2,r2,5
  8025a8:	10800c04 	addi	r2,r2,48
  8025ac:	1887883a 	add	r3,r3,r2
  8025b0:	e0bffe17 	ldw	r2,-8(fp)
  8025b4:	10c00515 	stw	r3,20(r2)
  8025b8:	0005883a 	mov	r2,zero
  8025bc:	e037883a 	mov	sp,fp
  8025c0:	dfc00117 	ldw	ra,4(sp)
  8025c4:	df000017 	ldw	fp,0(sp)
  8025c8:	dec00204 	addi	sp,sp,8
  8025cc:	f800283a 	ret

008025d0 <dir_next>:
  8025d0:	defff904 	addi	sp,sp,-28
  8025d4:	dfc00615 	stw	ra,24(sp)
  8025d8:	df000515 	stw	fp,20(sp)
  8025dc:	dc000415 	stw	r16,16(sp)
  8025e0:	df000504 	addi	fp,sp,20
  8025e4:	e13ffd15 	stw	r4,-12(fp)
  8025e8:	e17ffe15 	stw	r5,-8(fp)
  8025ec:	e0bffd17 	ldw	r2,-12(fp)
  8025f0:	1080018b 	ldhu	r2,6(r2)
  8025f4:	10800044 	addi	r2,r2,1
  8025f8:	e0bffc8d 	sth	r2,-14(fp)
  8025fc:	e0bffc8b 	ldhu	r2,-14(fp)
  802600:	10000326 	beq	r2,zero,802610 <dir_next+0x40>
  802604:	e0bffd17 	ldw	r2,-12(fp)
  802608:	10800417 	ldw	r2,16(r2)
  80260c:	1000021e 	bne	r2,zero,802618 <dir_next+0x48>
  802610:	00800104 	movi	r2,4
  802614:	0000a206 	br	8028a0 <dir_next+0x2d0>
  802618:	e0bffc8b 	ldhu	r2,-14(fp)
  80261c:	108003cc 	andi	r2,r2,15
  802620:	10bfffcc 	andi	r2,r2,65535
  802624:	1000911e 	bne	r2,zero,80286c <dir_next+0x29c>
  802628:	e0bffd17 	ldw	r2,-12(fp)
  80262c:	10800417 	ldw	r2,16(r2)
  802630:	10c00044 	addi	r3,r2,1
  802634:	e0bffd17 	ldw	r2,-12(fp)
  802638:	10c00415 	stw	r3,16(r2)
  80263c:	e0bffd17 	ldw	r2,-12(fp)
  802640:	10800317 	ldw	r2,12(r2)
  802644:	1000081e 	bne	r2,zero,802668 <dir_next+0x98>
  802648:	e0bffd17 	ldw	r2,-12(fp)
  80264c:	10800017 	ldw	r2,0(r2)
  802650:	1080020b 	ldhu	r2,8(r2)
  802654:	10bfffcc 	andi	r2,r2,65535
  802658:	e0fffc8b 	ldhu	r3,-14(fp)
  80265c:	18808336 	bltu	r3,r2,80286c <dir_next+0x29c>
  802660:	00800104 	movi	r2,4
  802664:	00008e06 	br	8028a0 <dir_next+0x2d0>
  802668:	e0bffc8b 	ldhu	r2,-14(fp)
  80266c:	1004d13a 	srli	r2,r2,4
  802670:	10bfffcc 	andi	r2,r2,65535
  802674:	e0fffd17 	ldw	r3,-12(fp)
  802678:	18c00017 	ldw	r3,0(r3)
  80267c:	18c00083 	ldbu	r3,2(r3)
  802680:	18c03fcc 	andi	r3,r3,255
  802684:	18ffffc4 	addi	r3,r3,-1
  802688:	10c4703a 	and	r2,r2,r3
  80268c:	1000771e 	bne	r2,zero,80286c <dir_next+0x29c>
  802690:	e0bffd17 	ldw	r2,-12(fp)
  802694:	10c00017 	ldw	r3,0(r2)
  802698:	e0bffd17 	ldw	r2,-12(fp)
  80269c:	10800317 	ldw	r2,12(r2)
  8026a0:	1809883a 	mov	r4,r3
  8026a4:	100b883a 	mov	r5,r2
  8026a8:	0801af80 	call	801af8 <get_fat>
  8026ac:	e0bffb15 	stw	r2,-20(fp)
  8026b0:	e0bffb17 	ldw	r2,-20(fp)
  8026b4:	108000a8 	cmpgeui	r2,r2,2
  8026b8:	1000021e 	bne	r2,zero,8026c4 <dir_next+0xf4>
  8026bc:	00800084 	movi	r2,2
  8026c0:	00007706 	br	8028a0 <dir_next+0x2d0>
  8026c4:	e0bffb17 	ldw	r2,-20(fp)
  8026c8:	10bfffd8 	cmpnei	r2,r2,-1
  8026cc:	1000021e 	bne	r2,zero,8026d8 <dir_next+0x108>
  8026d0:	00800044 	movi	r2,1
  8026d4:	00007206 	br	8028a0 <dir_next+0x2d0>
  8026d8:	e0bffd17 	ldw	r2,-12(fp)
  8026dc:	10800017 	ldw	r2,0(r2)
  8026e0:	10800617 	ldw	r2,24(r2)
  8026e4:	e0fffb17 	ldw	r3,-20(fp)
  8026e8:	18805536 	bltu	r3,r2,802840 <dir_next+0x270>
  8026ec:	e0bffe17 	ldw	r2,-8(fp)
  8026f0:	1000021e 	bne	r2,zero,8026fc <dir_next+0x12c>
  8026f4:	00800104 	movi	r2,4
  8026f8:	00006906 	br	8028a0 <dir_next+0x2d0>
  8026fc:	e0bffd17 	ldw	r2,-12(fp)
  802700:	10c00017 	ldw	r3,0(r2)
  802704:	e0bffd17 	ldw	r2,-12(fp)
  802708:	10800317 	ldw	r2,12(r2)
  80270c:	1809883a 	mov	r4,r3
  802710:	100b883a 	mov	r5,r2
  802714:	08022000 	call	802200 <create_chain>
  802718:	e0bffb15 	stw	r2,-20(fp)
  80271c:	e0bffb17 	ldw	r2,-20(fp)
  802720:	1000021e 	bne	r2,zero,80272c <dir_next+0x15c>
  802724:	008001c4 	movi	r2,7
  802728:	00005d06 	br	8028a0 <dir_next+0x2d0>
  80272c:	e0bffb17 	ldw	r2,-20(fp)
  802730:	10800058 	cmpnei	r2,r2,1
  802734:	1000021e 	bne	r2,zero,802740 <dir_next+0x170>
  802738:	00800084 	movi	r2,2
  80273c:	00005806 	br	8028a0 <dir_next+0x2d0>
  802740:	e0bffb17 	ldw	r2,-20(fp)
  802744:	10bfffd8 	cmpnei	r2,r2,-1
  802748:	1000021e 	bne	r2,zero,802754 <dir_next+0x184>
  80274c:	00800044 	movi	r2,1
  802750:	00005306 	br	8028a0 <dir_next+0x2d0>
  802754:	e0bffd17 	ldw	r2,-12(fp)
  802758:	10800017 	ldw	r2,0(r2)
  80275c:	1009883a 	mov	r4,r2
  802760:	000b883a 	mov	r5,zero
  802764:	08017140 	call	801714 <move_window>
  802768:	10000226 	beq	r2,zero,802774 <dir_next+0x1a4>
  80276c:	00800044 	movi	r2,1
  802770:	00004b06 	br	8028a0 <dir_next+0x2d0>
  802774:	e0bffd17 	ldw	r2,-12(fp)
  802778:	10800017 	ldw	r2,0(r2)
  80277c:	10800c04 	addi	r2,r2,48
  802780:	1009883a 	mov	r4,r2
  802784:	000b883a 	mov	r5,zero
  802788:	01808004 	movi	r6,512
  80278c:	08015b40 	call	8015b4 <mem_set>
  802790:	e0bffd17 	ldw	r2,-12(fp)
  802794:	14000017 	ldw	r16,0(r2)
  802798:	e0bffd17 	ldw	r2,-12(fp)
  80279c:	10800017 	ldw	r2,0(r2)
  8027a0:	1009883a 	mov	r4,r2
  8027a4:	e17ffb17 	ldw	r5,-20(fp)
  8027a8:	0801a8c0 	call	801a8c <clust2sect>
  8027ac:	80800b15 	stw	r2,44(r16)
  8027b0:	e03ffc05 	stb	zero,-16(fp)
  8027b4:	00001406 	br	802808 <dir_next+0x238>
  8027b8:	e0bffd17 	ldw	r2,-12(fp)
  8027bc:	10800017 	ldw	r2,0(r2)
  8027c0:	00c00044 	movi	r3,1
  8027c4:	10c00105 	stb	r3,4(r2)
  8027c8:	e0bffd17 	ldw	r2,-12(fp)
  8027cc:	10800017 	ldw	r2,0(r2)
  8027d0:	1009883a 	mov	r4,r2
  8027d4:	000b883a 	mov	r5,zero
  8027d8:	08017140 	call	801714 <move_window>
  8027dc:	10000226 	beq	r2,zero,8027e8 <dir_next+0x218>
  8027e0:	00800044 	movi	r2,1
  8027e4:	00002e06 	br	8028a0 <dir_next+0x2d0>
  8027e8:	e0bffd17 	ldw	r2,-12(fp)
  8027ec:	10800017 	ldw	r2,0(r2)
  8027f0:	10c00b17 	ldw	r3,44(r2)
  8027f4:	18c00044 	addi	r3,r3,1
  8027f8:	10c00b15 	stw	r3,44(r2)
  8027fc:	e0bffc03 	ldbu	r2,-16(fp)
  802800:	10800044 	addi	r2,r2,1
  802804:	e0bffc05 	stb	r2,-16(fp)
  802808:	e0bffd17 	ldw	r2,-12(fp)
  80280c:	10800017 	ldw	r2,0(r2)
  802810:	10800083 	ldbu	r2,2(r2)
  802814:	10803fcc 	andi	r2,r2,255
  802818:	e0fffc03 	ldbu	r3,-16(fp)
  80281c:	18bfe636 	bltu	r3,r2,8027b8 <__alt_data_end+0xff8027b8>
  802820:	e0bffd17 	ldw	r2,-12(fp)
  802824:	10800017 	ldw	r2,0(r2)
  802828:	e0fffd17 	ldw	r3,-12(fp)
  80282c:	18c00017 	ldw	r3,0(r3)
  802830:	19000b17 	ldw	r4,44(r3)
  802834:	e0fffc03 	ldbu	r3,-16(fp)
  802838:	20c7c83a 	sub	r3,r4,r3
  80283c:	10c00b15 	stw	r3,44(r2)
  802840:	e0bffd17 	ldw	r2,-12(fp)
  802844:	e0fffb17 	ldw	r3,-20(fp)
  802848:	10c00315 	stw	r3,12(r2)
  80284c:	e0bffd17 	ldw	r2,-12(fp)
  802850:	10800017 	ldw	r2,0(r2)
  802854:	1009883a 	mov	r4,r2
  802858:	e17ffb17 	ldw	r5,-20(fp)
  80285c:	0801a8c0 	call	801a8c <clust2sect>
  802860:	1007883a 	mov	r3,r2
  802864:	e0bffd17 	ldw	r2,-12(fp)
  802868:	10c00415 	stw	r3,16(r2)
  80286c:	e0bffd17 	ldw	r2,-12(fp)
  802870:	e0fffc8b 	ldhu	r3,-14(fp)
  802874:	10c0018d 	sth	r3,6(r2)
  802878:	e0bffd17 	ldw	r2,-12(fp)
  80287c:	10c00017 	ldw	r3,0(r2)
  802880:	e0bffc8b 	ldhu	r2,-14(fp)
  802884:	108003cc 	andi	r2,r2,15
  802888:	1004917a 	slli	r2,r2,5
  80288c:	10800c04 	addi	r2,r2,48
  802890:	1887883a 	add	r3,r3,r2
  802894:	e0bffd17 	ldw	r2,-12(fp)
  802898:	10c00515 	stw	r3,20(r2)
  80289c:	0005883a 	mov	r2,zero
  8028a0:	e6ffff04 	addi	sp,fp,-4
  8028a4:	dfc00217 	ldw	ra,8(sp)
  8028a8:	df000117 	ldw	fp,4(sp)
  8028ac:	dc000017 	ldw	r16,0(sp)
  8028b0:	dec00304 	addi	sp,sp,12
  8028b4:	f800283a 	ret

008028b8 <dir_find>:
  8028b8:	defffa04 	addi	sp,sp,-24
  8028bc:	dfc00515 	stw	ra,20(sp)
  8028c0:	df000415 	stw	fp,16(sp)
  8028c4:	df000404 	addi	fp,sp,16
  8028c8:	e13fff15 	stw	r4,-4(fp)
  8028cc:	e13fff17 	ldw	r4,-4(fp)
  8028d0:	000b883a 	mov	r5,zero
  8028d4:	08023e40 	call	8023e4 <dir_sdi>
  8028d8:	e0bffc15 	stw	r2,-16(fp)
  8028dc:	e0bffc17 	ldw	r2,-16(fp)
  8028e0:	10000226 	beq	r2,zero,8028ec <dir_find+0x34>
  8028e4:	e0bffc17 	ldw	r2,-16(fp)
  8028e8:	00002b06 	br	802998 <dir_find+0xe0>
  8028ec:	e0bfff17 	ldw	r2,-4(fp)
  8028f0:	10c00017 	ldw	r3,0(r2)
  8028f4:	e0bfff17 	ldw	r2,-4(fp)
  8028f8:	10800417 	ldw	r2,16(r2)
  8028fc:	1809883a 	mov	r4,r3
  802900:	100b883a 	mov	r5,r2
  802904:	08017140 	call	801714 <move_window>
  802908:	e0bffc15 	stw	r2,-16(fp)
  80290c:	e0bffc17 	ldw	r2,-16(fp)
  802910:	10000126 	beq	r2,zero,802918 <dir_find+0x60>
  802914:	00001f06 	br	802994 <dir_find+0xdc>
  802918:	e0bfff17 	ldw	r2,-4(fp)
  80291c:	10800517 	ldw	r2,20(r2)
  802920:	e0bffd15 	stw	r2,-12(fp)
  802924:	e0bffd17 	ldw	r2,-12(fp)
  802928:	10800003 	ldbu	r2,0(r2)
  80292c:	e0bffe05 	stb	r2,-8(fp)
  802930:	e0bffe03 	ldbu	r2,-8(fp)
  802934:	1000031e 	bne	r2,zero,802944 <dir_find+0x8c>
  802938:	00800104 	movi	r2,4
  80293c:	e0bffc15 	stw	r2,-16(fp)
  802940:	00001406 	br	802994 <dir_find+0xdc>
  802944:	e0bffd17 	ldw	r2,-12(fp)
  802948:	108002c4 	addi	r2,r2,11
  80294c:	10800003 	ldbu	r2,0(r2)
  802950:	10803fcc 	andi	r2,r2,255
  802954:	1080020c 	andi	r2,r2,8
  802958:	1000081e 	bne	r2,zero,80297c <dir_find+0xc4>
  80295c:	e0bfff17 	ldw	r2,-4(fp)
  802960:	10800617 	ldw	r2,24(r2)
  802964:	e13ffd17 	ldw	r4,-12(fp)
  802968:	100b883a 	mov	r5,r2
  80296c:	018002c4 	movi	r6,11
  802970:	080160c0 	call	80160c <mem_cmp>
  802974:	1000011e 	bne	r2,zero,80297c <dir_find+0xc4>
  802978:	00000606 	br	802994 <dir_find+0xdc>
  80297c:	e13fff17 	ldw	r4,-4(fp)
  802980:	000b883a 	mov	r5,zero
  802984:	08025d00 	call	8025d0 <dir_next>
  802988:	e0bffc15 	stw	r2,-16(fp)
  80298c:	e0bffc17 	ldw	r2,-16(fp)
  802990:	103fd626 	beq	r2,zero,8028ec <__alt_data_end+0xff8028ec>
  802994:	e0bffc17 	ldw	r2,-16(fp)
  802998:	e037883a 	mov	sp,fp
  80299c:	dfc00117 	ldw	ra,4(sp)
  8029a0:	df000017 	ldw	fp,0(sp)
  8029a4:	dec00204 	addi	sp,sp,8
  8029a8:	f800283a 	ret

008029ac <dir_read>:
  8029ac:	defffa04 	addi	sp,sp,-24
  8029b0:	dfc00515 	stw	ra,20(sp)
  8029b4:	df000415 	stw	fp,16(sp)
  8029b8:	df000404 	addi	fp,sp,16
  8029bc:	e13fff15 	stw	r4,-4(fp)
  8029c0:	00800104 	movi	r2,4
  8029c4:	e0bffc15 	stw	r2,-16(fp)
  8029c8:	00002a06 	br	802a74 <dir_read+0xc8>
  8029cc:	e0bfff17 	ldw	r2,-4(fp)
  8029d0:	10c00017 	ldw	r3,0(r2)
  8029d4:	e0bfff17 	ldw	r2,-4(fp)
  8029d8:	10800417 	ldw	r2,16(r2)
  8029dc:	1809883a 	mov	r4,r3
  8029e0:	100b883a 	mov	r5,r2
  8029e4:	08017140 	call	801714 <move_window>
  8029e8:	e0bffc15 	stw	r2,-16(fp)
  8029ec:	e0bffc17 	ldw	r2,-16(fp)
  8029f0:	10000126 	beq	r2,zero,8029f8 <dir_read+0x4c>
  8029f4:	00002206 	br	802a80 <dir_read+0xd4>
  8029f8:	e0bfff17 	ldw	r2,-4(fp)
  8029fc:	10800517 	ldw	r2,20(r2)
  802a00:	e0bffd15 	stw	r2,-12(fp)
  802a04:	e0bffd17 	ldw	r2,-12(fp)
  802a08:	10800003 	ldbu	r2,0(r2)
  802a0c:	e0bffe05 	stb	r2,-8(fp)
  802a10:	e0bffe03 	ldbu	r2,-8(fp)
  802a14:	1000031e 	bne	r2,zero,802a24 <dir_read+0x78>
  802a18:	00800104 	movi	r2,4
  802a1c:	e0bffc15 	stw	r2,-16(fp)
  802a20:	00001706 	br	802a80 <dir_read+0xd4>
  802a24:	e0bffe03 	ldbu	r2,-8(fp)
  802a28:	10803960 	cmpeqi	r2,r2,229
  802a2c:	10000a1e 	bne	r2,zero,802a58 <dir_read+0xac>
  802a30:	e0bffe03 	ldbu	r2,-8(fp)
  802a34:	10800ba0 	cmpeqi	r2,r2,46
  802a38:	1000071e 	bne	r2,zero,802a58 <dir_read+0xac>
  802a3c:	e0bffd17 	ldw	r2,-12(fp)
  802a40:	108002c4 	addi	r2,r2,11
  802a44:	10800003 	ldbu	r2,0(r2)
  802a48:	10803fcc 	andi	r2,r2,255
  802a4c:	1080020c 	andi	r2,r2,8
  802a50:	1000011e 	bne	r2,zero,802a58 <dir_read+0xac>
  802a54:	00000a06 	br	802a80 <dir_read+0xd4>
  802a58:	e13fff17 	ldw	r4,-4(fp)
  802a5c:	000b883a 	mov	r5,zero
  802a60:	08025d00 	call	8025d0 <dir_next>
  802a64:	e0bffc15 	stw	r2,-16(fp)
  802a68:	e0bffc17 	ldw	r2,-16(fp)
  802a6c:	10000126 	beq	r2,zero,802a74 <dir_read+0xc8>
  802a70:	00000306 	br	802a80 <dir_read+0xd4>
  802a74:	e0bfff17 	ldw	r2,-4(fp)
  802a78:	10800417 	ldw	r2,16(r2)
  802a7c:	103fd31e 	bne	r2,zero,8029cc <__alt_data_end+0xff8029cc>
  802a80:	e0bffc17 	ldw	r2,-16(fp)
  802a84:	10000226 	beq	r2,zero,802a90 <dir_read+0xe4>
  802a88:	e0bfff17 	ldw	r2,-4(fp)
  802a8c:	10000415 	stw	zero,16(r2)
  802a90:	e0bffc17 	ldw	r2,-16(fp)
  802a94:	e037883a 	mov	sp,fp
  802a98:	dfc00117 	ldw	ra,4(sp)
  802a9c:	df000017 	ldw	fp,0(sp)
  802aa0:	dec00204 	addi	sp,sp,8
  802aa4:	f800283a 	ret

00802aa8 <dir_register>:
  802aa8:	defffa04 	addi	sp,sp,-24
  802aac:	dfc00515 	stw	ra,20(sp)
  802ab0:	df000415 	stw	fp,16(sp)
  802ab4:	df000404 	addi	fp,sp,16
  802ab8:	e13fff15 	stw	r4,-4(fp)
  802abc:	e13fff17 	ldw	r4,-4(fp)
  802ac0:	000b883a 	mov	r5,zero
  802ac4:	08023e40 	call	8023e4 <dir_sdi>
  802ac8:	e0bffc15 	stw	r2,-16(fp)
  802acc:	e0bffc17 	ldw	r2,-16(fp)
  802ad0:	10001a1e 	bne	r2,zero,802b3c <dir_register+0x94>
  802ad4:	e0bfff17 	ldw	r2,-4(fp)
  802ad8:	10c00017 	ldw	r3,0(r2)
  802adc:	e0bfff17 	ldw	r2,-4(fp)
  802ae0:	10800417 	ldw	r2,16(r2)
  802ae4:	1809883a 	mov	r4,r3
  802ae8:	100b883a 	mov	r5,r2
  802aec:	08017140 	call	801714 <move_window>
  802af0:	e0bffc15 	stw	r2,-16(fp)
  802af4:	e0bffc17 	ldw	r2,-16(fp)
  802af8:	10000126 	beq	r2,zero,802b00 <dir_register+0x58>
  802afc:	00000f06 	br	802b3c <dir_register+0x94>
  802b00:	e0bfff17 	ldw	r2,-4(fp)
  802b04:	10800517 	ldw	r2,20(r2)
  802b08:	10800003 	ldbu	r2,0(r2)
  802b0c:	e0bffd05 	stb	r2,-12(fp)
  802b10:	e0bffd03 	ldbu	r2,-12(fp)
  802b14:	10803960 	cmpeqi	r2,r2,229
  802b18:	1000081e 	bne	r2,zero,802b3c <dir_register+0x94>
  802b1c:	e0bffd03 	ldbu	r2,-12(fp)
  802b20:	10000626 	beq	r2,zero,802b3c <dir_register+0x94>
  802b24:	e13fff17 	ldw	r4,-4(fp)
  802b28:	01400044 	movi	r5,1
  802b2c:	08025d00 	call	8025d0 <dir_next>
  802b30:	e0bffc15 	stw	r2,-16(fp)
  802b34:	e0bffc17 	ldw	r2,-16(fp)
  802b38:	103fe626 	beq	r2,zero,802ad4 <__alt_data_end+0xff802ad4>
  802b3c:	e0bffc17 	ldw	r2,-16(fp)
  802b40:	10001b1e 	bne	r2,zero,802bb0 <dir_register+0x108>
  802b44:	e0bfff17 	ldw	r2,-4(fp)
  802b48:	10c00017 	ldw	r3,0(r2)
  802b4c:	e0bfff17 	ldw	r2,-4(fp)
  802b50:	10800417 	ldw	r2,16(r2)
  802b54:	1809883a 	mov	r4,r3
  802b58:	100b883a 	mov	r5,r2
  802b5c:	08017140 	call	801714 <move_window>
  802b60:	e0bffc15 	stw	r2,-16(fp)
  802b64:	e0bffc17 	ldw	r2,-16(fp)
  802b68:	1000111e 	bne	r2,zero,802bb0 <dir_register+0x108>
  802b6c:	e0bfff17 	ldw	r2,-4(fp)
  802b70:	10800517 	ldw	r2,20(r2)
  802b74:	e0bffe15 	stw	r2,-8(fp)
  802b78:	e13ffe17 	ldw	r4,-8(fp)
  802b7c:	000b883a 	mov	r5,zero
  802b80:	01800804 	movi	r6,32
  802b84:	08015b40 	call	8015b4 <mem_set>
  802b88:	e0bfff17 	ldw	r2,-4(fp)
  802b8c:	10800617 	ldw	r2,24(r2)
  802b90:	e13ffe17 	ldw	r4,-8(fp)
  802b94:	100b883a 	mov	r5,r2
  802b98:	018002c4 	movi	r6,11
  802b9c:	08015480 	call	801548 <mem_cpy>
  802ba0:	e0bfff17 	ldw	r2,-4(fp)
  802ba4:	10800017 	ldw	r2,0(r2)
  802ba8:	00c00044 	movi	r3,1
  802bac:	10c00105 	stb	r3,4(r2)
  802bb0:	e0bffc17 	ldw	r2,-16(fp)
  802bb4:	e037883a 	mov	sp,fp
  802bb8:	dfc00117 	ldw	ra,4(sp)
  802bbc:	df000017 	ldw	fp,0(sp)
  802bc0:	dec00204 	addi	sp,sp,8
  802bc4:	f800283a 	ret

00802bc8 <dir_remove>:
  802bc8:	defffc04 	addi	sp,sp,-16
  802bcc:	dfc00315 	stw	ra,12(sp)
  802bd0:	df000215 	stw	fp,8(sp)
  802bd4:	df000204 	addi	fp,sp,8
  802bd8:	e13fff15 	stw	r4,-4(fp)
  802bdc:	e0bfff17 	ldw	r2,-4(fp)
  802be0:	1080018b 	ldhu	r2,6(r2)
  802be4:	10bfffcc 	andi	r2,r2,65535
  802be8:	e13fff17 	ldw	r4,-4(fp)
  802bec:	100b883a 	mov	r5,r2
  802bf0:	08023e40 	call	8023e4 <dir_sdi>
  802bf4:	e0bffe15 	stw	r2,-8(fp)
  802bf8:	e0bffe17 	ldw	r2,-8(fp)
  802bfc:	1000121e 	bne	r2,zero,802c48 <dir_remove+0x80>
  802c00:	e0bfff17 	ldw	r2,-4(fp)
  802c04:	10c00017 	ldw	r3,0(r2)
  802c08:	e0bfff17 	ldw	r2,-4(fp)
  802c0c:	10800417 	ldw	r2,16(r2)
  802c10:	1809883a 	mov	r4,r3
  802c14:	100b883a 	mov	r5,r2
  802c18:	08017140 	call	801714 <move_window>
  802c1c:	e0bffe15 	stw	r2,-8(fp)
  802c20:	e0bffe17 	ldw	r2,-8(fp)
  802c24:	1000081e 	bne	r2,zero,802c48 <dir_remove+0x80>
  802c28:	e0bfff17 	ldw	r2,-4(fp)
  802c2c:	10800517 	ldw	r2,20(r2)
  802c30:	00fff944 	movi	r3,-27
  802c34:	10c00005 	stb	r3,0(r2)
  802c38:	e0bfff17 	ldw	r2,-4(fp)
  802c3c:	10800017 	ldw	r2,0(r2)
  802c40:	00c00044 	movi	r3,1
  802c44:	10c00105 	stb	r3,4(r2)
  802c48:	e0bffe17 	ldw	r2,-8(fp)
  802c4c:	e037883a 	mov	sp,fp
  802c50:	dfc00117 	ldw	ra,4(sp)
  802c54:	df000017 	ldw	fp,0(sp)
  802c58:	dec00204 	addi	sp,sp,8
  802c5c:	f800283a 	ret

00802c60 <create_name>:
  802c60:	defff604 	addi	sp,sp,-40
  802c64:	dfc00915 	stw	ra,36(sp)
  802c68:	df000815 	stw	fp,32(sp)
  802c6c:	df000804 	addi	fp,sp,32
  802c70:	e13ffe15 	stw	r4,-8(fp)
  802c74:	e17fff15 	stw	r5,-4(fp)
  802c78:	e0bfff17 	ldw	r2,-4(fp)
  802c7c:	10800017 	ldw	r2,0(r2)
  802c80:	e0bffc15 	stw	r2,-16(fp)
  802c84:	00000306 	br	802c94 <create_name+0x34>
  802c88:	e0bffc17 	ldw	r2,-16(fp)
  802c8c:	10800044 	addi	r2,r2,1
  802c90:	e0bffc15 	stw	r2,-16(fp)
  802c94:	e0bffc17 	ldw	r2,-16(fp)
  802c98:	10800003 	ldbu	r2,0(r2)
  802c9c:	10803fcc 	andi	r2,r2,255
  802ca0:	1080201c 	xori	r2,r2,128
  802ca4:	10bfe004 	addi	r2,r2,-128
  802ca8:	10800be0 	cmpeqi	r2,r2,47
  802cac:	103ff61e 	bne	r2,zero,802c88 <__alt_data_end+0xff802c88>
  802cb0:	e0bffc17 	ldw	r2,-16(fp)
  802cb4:	10800003 	ldbu	r2,0(r2)
  802cb8:	10803fcc 	andi	r2,r2,255
  802cbc:	1080201c 	xori	r2,r2,128
  802cc0:	10bfe004 	addi	r2,r2,-128
  802cc4:	10801720 	cmpeqi	r2,r2,92
  802cc8:	103fef1e 	bne	r2,zero,802c88 <__alt_data_end+0xff802c88>
  802ccc:	e0bffe17 	ldw	r2,-8(fp)
  802cd0:	10800617 	ldw	r2,24(r2)
  802cd4:	e0bffd15 	stw	r2,-12(fp)
  802cd8:	e13ffd17 	ldw	r4,-12(fp)
  802cdc:	01400804 	movi	r5,32
  802ce0:	018002c4 	movi	r6,11
  802ce4:	08015b40 	call	8015b4 <mem_set>
  802ce8:	e03ff805 	stb	zero,-32(fp)
  802cec:	e03ffb15 	stw	zero,-20(fp)
  802cf0:	e0bffb17 	ldw	r2,-20(fp)
  802cf4:	e0bffa15 	stw	r2,-24(fp)
  802cf8:	00800204 	movi	r2,8
  802cfc:	e0bff915 	stw	r2,-28(fp)
  802d00:	e0bffa17 	ldw	r2,-24(fp)
  802d04:	10c00044 	addi	r3,r2,1
  802d08:	e0fffa15 	stw	r3,-24(fp)
  802d0c:	e0fffc17 	ldw	r3,-16(fp)
  802d10:	1885883a 	add	r2,r3,r2
  802d14:	10800003 	ldbu	r2,0(r2)
  802d18:	e0bff845 	stb	r2,-31(fp)
  802d1c:	e0bff843 	ldbu	r2,-31(fp)
  802d20:	10800870 	cmpltui	r2,r2,33
  802d24:	1000521e 	bne	r2,zero,802e70 <create_name+0x210>
  802d28:	e0bff843 	ldbu	r2,-31(fp)
  802d2c:	10800be0 	cmpeqi	r2,r2,47
  802d30:	10004f1e 	bne	r2,zero,802e70 <create_name+0x210>
  802d34:	e0bff843 	ldbu	r2,-31(fp)
  802d38:	10801720 	cmpeqi	r2,r2,92
  802d3c:	10004c1e 	bne	r2,zero,802e70 <create_name+0x210>
  802d40:	e0bff843 	ldbu	r2,-31(fp)
  802d44:	10800ba0 	cmpeqi	r2,r2,46
  802d48:	1000031e 	bne	r2,zero,802d58 <create_name+0xf8>
  802d4c:	e0fffb17 	ldw	r3,-20(fp)
  802d50:	e0bff917 	ldw	r2,-28(fp)
  802d54:	18801136 	bltu	r3,r2,802d9c <create_name+0x13c>
  802d58:	e0bff917 	ldw	r2,-28(fp)
  802d5c:	10800218 	cmpnei	r2,r2,8
  802d60:	1000031e 	bne	r2,zero,802d70 <create_name+0x110>
  802d64:	e0bff843 	ldbu	r2,-31(fp)
  802d68:	10800ba0 	cmpeqi	r2,r2,46
  802d6c:	1000021e 	bne	r2,zero,802d78 <create_name+0x118>
  802d70:	00800184 	movi	r2,6
  802d74:	00007006 	br	802f38 <create_name+0x2d8>
  802d78:	00800204 	movi	r2,8
  802d7c:	e0bffb15 	stw	r2,-20(fp)
  802d80:	008002c4 	movi	r2,11
  802d84:	e0bff915 	stw	r2,-28(fp)
  802d88:	e0bff803 	ldbu	r2,-32(fp)
  802d8c:	1085883a 	add	r2,r2,r2
  802d90:	1085883a 	add	r2,r2,r2
  802d94:	e0bff805 	stb	r2,-32(fp)
  802d98:	00003406 	br	802e6c <create_name+0x20c>
  802d9c:	e0bff843 	ldbu	r2,-31(fp)
  802da0:	10803fcc 	andi	r2,r2,255
  802da4:	1080201c 	xori	r2,r2,128
  802da8:	10bfe004 	addi	r2,r2,-128
  802dac:	10000a0e 	bge	r2,zero,802dd8 <create_name+0x178>
  802db0:	e0bff803 	ldbu	r2,-32(fp)
  802db4:	108000d4 	ori	r2,r2,3
  802db8:	e0bff805 	stb	r2,-32(fp)
  802dbc:	e0bff843 	ldbu	r2,-31(fp)
  802dc0:	10ffe004 	addi	r3,r2,-128
  802dc4:	008020b4 	movhi	r2,130
  802dc8:	10ac5804 	addi	r2,r2,-20128
  802dcc:	10c5883a 	add	r2,r2,r3
  802dd0:	10800003 	ldbu	r2,0(r2)
  802dd4:	e0bff845 	stb	r2,-31(fp)
  802dd8:	e0bff843 	ldbu	r2,-31(fp)
  802ddc:	010020b4 	movhi	r4,130
  802de0:	212c4704 	addi	r4,r4,-20196
  802de4:	100b883a 	mov	r5,r2
  802de8:	08016980 	call	801698 <chk_chr>
  802dec:	10000226 	beq	r2,zero,802df8 <create_name+0x198>
  802df0:	00800184 	movi	r2,6
  802df4:	00005006 	br	802f38 <create_name+0x2d8>
  802df8:	e0bff843 	ldbu	r2,-31(fp)
  802dfc:	10801070 	cmpltui	r2,r2,65
  802e00:	1000071e 	bne	r2,zero,802e20 <create_name+0x1c0>
  802e04:	e0bff843 	ldbu	r2,-31(fp)
  802e08:	108016e8 	cmpgeui	r2,r2,91
  802e0c:	1000041e 	bne	r2,zero,802e20 <create_name+0x1c0>
  802e10:	e0bff803 	ldbu	r2,-32(fp)
  802e14:	10800094 	ori	r2,r2,2
  802e18:	e0bff805 	stb	r2,-32(fp)
  802e1c:	00000c06 	br	802e50 <create_name+0x1f0>
  802e20:	e0bff843 	ldbu	r2,-31(fp)
  802e24:	10801870 	cmpltui	r2,r2,97
  802e28:	1000091e 	bne	r2,zero,802e50 <create_name+0x1f0>
  802e2c:	e0bff843 	ldbu	r2,-31(fp)
  802e30:	10801ee8 	cmpgeui	r2,r2,123
  802e34:	1000061e 	bne	r2,zero,802e50 <create_name+0x1f0>
  802e38:	e0bff803 	ldbu	r2,-32(fp)
  802e3c:	10800054 	ori	r2,r2,1
  802e40:	e0bff805 	stb	r2,-32(fp)
  802e44:	e0bff843 	ldbu	r2,-31(fp)
  802e48:	10bff804 	addi	r2,r2,-32
  802e4c:	e0bff845 	stb	r2,-31(fp)
  802e50:	e0bffb17 	ldw	r2,-20(fp)
  802e54:	10c00044 	addi	r3,r2,1
  802e58:	e0fffb15 	stw	r3,-20(fp)
  802e5c:	e0fffd17 	ldw	r3,-12(fp)
  802e60:	1885883a 	add	r2,r3,r2
  802e64:	e0fff843 	ldbu	r3,-31(fp)
  802e68:	10c00005 	stb	r3,0(r2)
  802e6c:	003fa406 	br	802d00 <__alt_data_end+0xff802d00>
  802e70:	e0fffc17 	ldw	r3,-16(fp)
  802e74:	e0bffa17 	ldw	r2,-24(fp)
  802e78:	1887883a 	add	r3,r3,r2
  802e7c:	e0bfff17 	ldw	r2,-4(fp)
  802e80:	10c00015 	stw	r3,0(r2)
  802e84:	e0bff843 	ldbu	r2,-31(fp)
  802e88:	10800868 	cmpgeui	r2,r2,33
  802e8c:	1000021e 	bne	r2,zero,802e98 <create_name+0x238>
  802e90:	00800104 	movi	r2,4
  802e94:	00000106 	br	802e9c <create_name+0x23c>
  802e98:	0005883a 	mov	r2,zero
  802e9c:	e0bff845 	stb	r2,-31(fp)
  802ea0:	e0bffb17 	ldw	r2,-20(fp)
  802ea4:	1000021e 	bne	r2,zero,802eb0 <create_name+0x250>
  802ea8:	00800184 	movi	r2,6
  802eac:	00002206 	br	802f38 <create_name+0x2d8>
  802eb0:	e0bffd17 	ldw	r2,-12(fp)
  802eb4:	10800003 	ldbu	r2,0(r2)
  802eb8:	10803fcc 	andi	r2,r2,255
  802ebc:	10803958 	cmpnei	r2,r2,229
  802ec0:	1000031e 	bne	r2,zero,802ed0 <create_name+0x270>
  802ec4:	e0bffd17 	ldw	r2,-12(fp)
  802ec8:	00c00144 	movi	r3,5
  802ecc:	10c00005 	stb	r3,0(r2)
  802ed0:	e0bff917 	ldw	r2,-28(fp)
  802ed4:	10800218 	cmpnei	r2,r2,8
  802ed8:	1000041e 	bne	r2,zero,802eec <create_name+0x28c>
  802edc:	e0bff803 	ldbu	r2,-32(fp)
  802ee0:	1085883a 	add	r2,r2,r2
  802ee4:	1085883a 	add	r2,r2,r2
  802ee8:	e0bff805 	stb	r2,-32(fp)
  802eec:	e0bff803 	ldbu	r2,-32(fp)
  802ef0:	108000cc 	andi	r2,r2,3
  802ef4:	10800058 	cmpnei	r2,r2,1
  802ef8:	1000031e 	bne	r2,zero,802f08 <create_name+0x2a8>
  802efc:	e0bff843 	ldbu	r2,-31(fp)
  802f00:	10800414 	ori	r2,r2,16
  802f04:	e0bff845 	stb	r2,-31(fp)
  802f08:	e0bff803 	ldbu	r2,-32(fp)
  802f0c:	1080030c 	andi	r2,r2,12
  802f10:	10800118 	cmpnei	r2,r2,4
  802f14:	1000031e 	bne	r2,zero,802f24 <create_name+0x2c4>
  802f18:	e0bff843 	ldbu	r2,-31(fp)
  802f1c:	10800214 	ori	r2,r2,8
  802f20:	e0bff845 	stb	r2,-31(fp)
  802f24:	e0bffd17 	ldw	r2,-12(fp)
  802f28:	108002c4 	addi	r2,r2,11
  802f2c:	e0fff843 	ldbu	r3,-31(fp)
  802f30:	10c00005 	stb	r3,0(r2)
  802f34:	0005883a 	mov	r2,zero
  802f38:	e037883a 	mov	sp,fp
  802f3c:	dfc00117 	ldw	ra,4(sp)
  802f40:	df000017 	ldw	fp,0(sp)
  802f44:	dec00204 	addi	sp,sp,8
  802f48:	f800283a 	ret

00802f4c <get_fileinfo>:
  802f4c:	defff804 	addi	sp,sp,-32
  802f50:	df000715 	stw	fp,28(sp)
  802f54:	df000704 	addi	fp,sp,28
  802f58:	e13ffe15 	stw	r4,-8(fp)
  802f5c:	e17fff15 	stw	r5,-4(fp)
  802f60:	e0bfff17 	ldw	r2,-4(fp)
  802f64:	10800244 	addi	r2,r2,9
  802f68:	e0bffa15 	stw	r2,-24(fp)
  802f6c:	e0bffe17 	ldw	r2,-8(fp)
  802f70:	10800417 	ldw	r2,16(r2)
  802f74:	10007b26 	beq	r2,zero,803164 <get_fileinfo+0x218>
  802f78:	e0bffe17 	ldw	r2,-8(fp)
  802f7c:	10800517 	ldw	r2,20(r2)
  802f80:	e0bffc15 	stw	r2,-16(fp)
  802f84:	e0bffc17 	ldw	r2,-16(fp)
  802f88:	10800303 	ldbu	r2,12(r2)
  802f8c:	e0bffd05 	stb	r2,-12(fp)
  802f90:	e03ff915 	stw	zero,-28(fp)
  802f94:	00001606 	br	802ff0 <get_fileinfo+0xa4>
  802f98:	e0fffc17 	ldw	r3,-16(fp)
  802f9c:	e0bff917 	ldw	r2,-28(fp)
  802fa0:	1885883a 	add	r2,r3,r2
  802fa4:	10800003 	ldbu	r2,0(r2)
  802fa8:	e0bffb05 	stb	r2,-20(fp)
  802fac:	e0bffb07 	ldb	r2,-20(fp)
  802fb0:	10800818 	cmpnei	r2,r2,32
  802fb4:	1000011e 	bne	r2,zero,802fbc <get_fileinfo+0x70>
  802fb8:	00001006 	br	802ffc <get_fileinfo+0xb0>
  802fbc:	e0bffb07 	ldb	r2,-20(fp)
  802fc0:	10800158 	cmpnei	r2,r2,5
  802fc4:	1000021e 	bne	r2,zero,802fd0 <get_fileinfo+0x84>
  802fc8:	00bff944 	movi	r2,-27
  802fcc:	e0bffb05 	stb	r2,-20(fp)
  802fd0:	e0bffa17 	ldw	r2,-24(fp)
  802fd4:	10c00044 	addi	r3,r2,1
  802fd8:	e0fffa15 	stw	r3,-24(fp)
  802fdc:	e0fffb03 	ldbu	r3,-20(fp)
  802fe0:	10c00005 	stb	r3,0(r2)
  802fe4:	e0bff917 	ldw	r2,-28(fp)
  802fe8:	10800044 	addi	r2,r2,1
  802fec:	e0bff915 	stw	r2,-28(fp)
  802ff0:	e0bff917 	ldw	r2,-28(fp)
  802ff4:	10800230 	cmpltui	r2,r2,8
  802ff8:	103fe71e 	bne	r2,zero,802f98 <__alt_data_end+0xff802f98>
  802ffc:	e0bffc17 	ldw	r2,-16(fp)
  803000:	10800204 	addi	r2,r2,8
  803004:	10800003 	ldbu	r2,0(r2)
  803008:	10803fcc 	andi	r2,r2,255
  80300c:	10800820 	cmpeqi	r2,r2,32
  803010:	10001c1e 	bne	r2,zero,803084 <get_fileinfo+0x138>
  803014:	e0bffa17 	ldw	r2,-24(fp)
  803018:	10c00044 	addi	r3,r2,1
  80301c:	e0fffa15 	stw	r3,-24(fp)
  803020:	00c00b84 	movi	r3,46
  803024:	10c00005 	stb	r3,0(r2)
  803028:	00800204 	movi	r2,8
  80302c:	e0bff915 	stw	r2,-28(fp)
  803030:	00001106 	br	803078 <get_fileinfo+0x12c>
  803034:	e0fffc17 	ldw	r3,-16(fp)
  803038:	e0bff917 	ldw	r2,-28(fp)
  80303c:	1885883a 	add	r2,r3,r2
  803040:	10800003 	ldbu	r2,0(r2)
  803044:	e0bffb05 	stb	r2,-20(fp)
  803048:	e0bffb07 	ldb	r2,-20(fp)
  80304c:	10800818 	cmpnei	r2,r2,32
  803050:	1000011e 	bne	r2,zero,803058 <get_fileinfo+0x10c>
  803054:	00000b06 	br	803084 <get_fileinfo+0x138>
  803058:	e0bffa17 	ldw	r2,-24(fp)
  80305c:	10c00044 	addi	r3,r2,1
  803060:	e0fffa15 	stw	r3,-24(fp)
  803064:	e0fffb03 	ldbu	r3,-20(fp)
  803068:	10c00005 	stb	r3,0(r2)
  80306c:	e0bff917 	ldw	r2,-28(fp)
  803070:	10800044 	addi	r2,r2,1
  803074:	e0bff915 	stw	r2,-28(fp)
  803078:	e0bff917 	ldw	r2,-28(fp)
  80307c:	108002f0 	cmpltui	r2,r2,11
  803080:	103fec1e 	bne	r2,zero,803034 <__alt_data_end+0xff803034>
  803084:	e0bffc17 	ldw	r2,-16(fp)
  803088:	10c002c3 	ldbu	r3,11(r2)
  80308c:	e0bfff17 	ldw	r2,-4(fp)
  803090:	10c00205 	stb	r3,8(r2)
  803094:	e0bffc17 	ldw	r2,-16(fp)
  803098:	108007c4 	addi	r2,r2,31
  80309c:	10800003 	ldbu	r2,0(r2)
  8030a0:	10803fcc 	andi	r2,r2,255
  8030a4:	1006963a 	slli	r3,r2,24
  8030a8:	e0bffc17 	ldw	r2,-16(fp)
  8030ac:	10800784 	addi	r2,r2,30
  8030b0:	10800003 	ldbu	r2,0(r2)
  8030b4:	10803fcc 	andi	r2,r2,255
  8030b8:	1004943a 	slli	r2,r2,16
  8030bc:	1884b03a 	or	r2,r3,r2
  8030c0:	e0fffc17 	ldw	r3,-16(fp)
  8030c4:	18c00744 	addi	r3,r3,29
  8030c8:	18c00003 	ldbu	r3,0(r3)
  8030cc:	18c03fcc 	andi	r3,r3,255
  8030d0:	1806923a 	slli	r3,r3,8
  8030d4:	10c6b03a 	or	r3,r2,r3
  8030d8:	e0bffc17 	ldw	r2,-16(fp)
  8030dc:	10800704 	addi	r2,r2,28
  8030e0:	10800003 	ldbu	r2,0(r2)
  8030e4:	10803fcc 	andi	r2,r2,255
  8030e8:	1886b03a 	or	r3,r3,r2
  8030ec:	e0bfff17 	ldw	r2,-4(fp)
  8030f0:	10c00015 	stw	r3,0(r2)
  8030f4:	e0bffc17 	ldw	r2,-16(fp)
  8030f8:	10800644 	addi	r2,r2,25
  8030fc:	10800003 	ldbu	r2,0(r2)
  803100:	10803fcc 	andi	r2,r2,255
  803104:	1004923a 	slli	r2,r2,8
  803108:	1007883a 	mov	r3,r2
  80310c:	e0bffc17 	ldw	r2,-16(fp)
  803110:	10800604 	addi	r2,r2,24
  803114:	10800003 	ldbu	r2,0(r2)
  803118:	10803fcc 	andi	r2,r2,255
  80311c:	1884b03a 	or	r2,r3,r2
  803120:	1007883a 	mov	r3,r2
  803124:	e0bfff17 	ldw	r2,-4(fp)
  803128:	10c0010d 	sth	r3,4(r2)
  80312c:	e0bffc17 	ldw	r2,-16(fp)
  803130:	108005c4 	addi	r2,r2,23
  803134:	10800003 	ldbu	r2,0(r2)
  803138:	10803fcc 	andi	r2,r2,255
  80313c:	1004923a 	slli	r2,r2,8
  803140:	1007883a 	mov	r3,r2
  803144:	e0bffc17 	ldw	r2,-16(fp)
  803148:	10800584 	addi	r2,r2,22
  80314c:	10800003 	ldbu	r2,0(r2)
  803150:	10803fcc 	andi	r2,r2,255
  803154:	1884b03a 	or	r2,r3,r2
  803158:	1007883a 	mov	r3,r2
  80315c:	e0bfff17 	ldw	r2,-4(fp)
  803160:	10c0018d 	sth	r3,6(r2)
  803164:	e0bffa17 	ldw	r2,-24(fp)
  803168:	10000005 	stb	zero,0(r2)
  80316c:	e037883a 	mov	sp,fp
  803170:	df000017 	ldw	fp,0(sp)
  803174:	dec00104 	addi	sp,sp,4
  803178:	f800283a 	ret

0080317c <follow_path>:
  80317c:	defff904 	addi	sp,sp,-28
  803180:	dfc00615 	stw	ra,24(sp)
  803184:	df000515 	stw	fp,20(sp)
  803188:	df000504 	addi	fp,sp,20
  80318c:	e13ffe15 	stw	r4,-8(fp)
  803190:	e17fff15 	stw	r5,-4(fp)
  803194:	e0bfff17 	ldw	r2,-4(fp)
  803198:	10800003 	ldbu	r2,0(r2)
  80319c:	10803fcc 	andi	r2,r2,255
  8031a0:	1080201c 	xori	r2,r2,128
  8031a4:	10bfe004 	addi	r2,r2,-128
  8031a8:	10800be0 	cmpeqi	r2,r2,47
  8031ac:	1000071e 	bne	r2,zero,8031cc <follow_path+0x50>
  8031b0:	e0bfff17 	ldw	r2,-4(fp)
  8031b4:	10800003 	ldbu	r2,0(r2)
  8031b8:	10803fcc 	andi	r2,r2,255
  8031bc:	1080201c 	xori	r2,r2,128
  8031c0:	10bfe004 	addi	r2,r2,-128
  8031c4:	10801718 	cmpnei	r2,r2,92
  8031c8:	1000031e 	bne	r2,zero,8031d8 <follow_path+0x5c>
  8031cc:	e0bfff17 	ldw	r2,-4(fp)
  8031d0:	10800044 	addi	r2,r2,1
  8031d4:	e0bfff15 	stw	r2,-4(fp)
  8031d8:	e0bffe17 	ldw	r2,-8(fp)
  8031dc:	10000215 	stw	zero,8(r2)
  8031e0:	e0bfff17 	ldw	r2,-4(fp)
  8031e4:	10800003 	ldbu	r2,0(r2)
  8031e8:	10803fcc 	andi	r2,r2,255
  8031ec:	10800828 	cmpgeui	r2,r2,32
  8031f0:	1000071e 	bne	r2,zero,803210 <follow_path+0x94>
  8031f4:	e13ffe17 	ldw	r4,-8(fp)
  8031f8:	000b883a 	mov	r5,zero
  8031fc:	08023e40 	call	8023e4 <dir_sdi>
  803200:	e0bffb15 	stw	r2,-20(fp)
  803204:	e0bffe17 	ldw	r2,-8(fp)
  803208:	10000515 	stw	zero,20(r2)
  80320c:	00004906 	br	803334 <follow_path+0x1b8>
  803210:	e0bfff04 	addi	r2,fp,-4
  803214:	e13ffe17 	ldw	r4,-8(fp)
  803218:	100b883a 	mov	r5,r2
  80321c:	0802c600 	call	802c60 <create_name>
  803220:	e0bffb15 	stw	r2,-20(fp)
  803224:	e0bffb17 	ldw	r2,-20(fp)
  803228:	10000126 	beq	r2,zero,803230 <follow_path+0xb4>
  80322c:	00004106 	br	803334 <follow_path+0x1b8>
  803230:	e13ffe17 	ldw	r4,-8(fp)
  803234:	08028b80 	call	8028b8 <dir_find>
  803238:	e0bffb15 	stw	r2,-20(fp)
  80323c:	e0bffe17 	ldw	r2,-8(fp)
  803240:	10800617 	ldw	r2,24(r2)
  803244:	108002c3 	ldbu	r2,11(r2)
  803248:	e0bffc05 	stb	r2,-16(fp)
  80324c:	e0bffb17 	ldw	r2,-20(fp)
  803250:	10000b26 	beq	r2,zero,803280 <follow_path+0x104>
  803254:	e0bffb17 	ldw	r2,-20(fp)
  803258:	10800120 	cmpeqi	r2,r2,4
  80325c:	1000011e 	bne	r2,zero,803264 <follow_path+0xe8>
  803260:	00003406 	br	803334 <follow_path+0x1b8>
  803264:	e0bffc03 	ldbu	r2,-16(fp)
  803268:	1080010c 	andi	r2,r2,4
  80326c:	1000031e 	bne	r2,zero,80327c <follow_path+0x100>
  803270:	00800144 	movi	r2,5
  803274:	e0bffb15 	stw	r2,-20(fp)
  803278:	00002e06 	br	803334 <follow_path+0x1b8>
  80327c:	00002d06 	br	803334 <follow_path+0x1b8>
  803280:	e0bffc03 	ldbu	r2,-16(fp)
  803284:	1080010c 	andi	r2,r2,4
  803288:	10000126 	beq	r2,zero,803290 <follow_path+0x114>
  80328c:	00002906 	br	803334 <follow_path+0x1b8>
  803290:	e0bffe17 	ldw	r2,-8(fp)
  803294:	10800517 	ldw	r2,20(r2)
  803298:	e0bffd15 	stw	r2,-12(fp)
  80329c:	e0bffd17 	ldw	r2,-12(fp)
  8032a0:	108002c4 	addi	r2,r2,11
  8032a4:	10800003 	ldbu	r2,0(r2)
  8032a8:	10803fcc 	andi	r2,r2,255
  8032ac:	1080040c 	andi	r2,r2,16
  8032b0:	1000031e 	bne	r2,zero,8032c0 <follow_path+0x144>
  8032b4:	00800144 	movi	r2,5
  8032b8:	e0bffb15 	stw	r2,-20(fp)
  8032bc:	00001d06 	br	803334 <follow_path+0x1b8>
  8032c0:	e0bffd17 	ldw	r2,-12(fp)
  8032c4:	10800544 	addi	r2,r2,21
  8032c8:	10800003 	ldbu	r2,0(r2)
  8032cc:	10803fcc 	andi	r2,r2,255
  8032d0:	1004923a 	slli	r2,r2,8
  8032d4:	1007883a 	mov	r3,r2
  8032d8:	e0bffd17 	ldw	r2,-12(fp)
  8032dc:	10800504 	addi	r2,r2,20
  8032e0:	10800003 	ldbu	r2,0(r2)
  8032e4:	10803fcc 	andi	r2,r2,255
  8032e8:	1884b03a 	or	r2,r3,r2
  8032ec:	10bfffcc 	andi	r2,r2,65535
  8032f0:	1006943a 	slli	r3,r2,16
  8032f4:	e0bffd17 	ldw	r2,-12(fp)
  8032f8:	108006c4 	addi	r2,r2,27
  8032fc:	10800003 	ldbu	r2,0(r2)
  803300:	10803fcc 	andi	r2,r2,255
  803304:	1004923a 	slli	r2,r2,8
  803308:	1009883a 	mov	r4,r2
  80330c:	e0bffd17 	ldw	r2,-12(fp)
  803310:	10800684 	addi	r2,r2,26
  803314:	10800003 	ldbu	r2,0(r2)
  803318:	10803fcc 	andi	r2,r2,255
  80331c:	2084b03a 	or	r2,r4,r2
  803320:	10bfffcc 	andi	r2,r2,65535
  803324:	1886b03a 	or	r3,r3,r2
  803328:	e0bffe17 	ldw	r2,-8(fp)
  80332c:	10c00215 	stw	r3,8(r2)
  803330:	003fb706 	br	803210 <__alt_data_end+0xff803210>
  803334:	e0bffb17 	ldw	r2,-20(fp)
  803338:	e037883a 	mov	sp,fp
  80333c:	dfc00117 	ldw	ra,4(sp)
  803340:	df000017 	ldw	fp,0(sp)
  803344:	dec00204 	addi	sp,sp,8
  803348:	f800283a 	ret

0080334c <check_fs>:
  80334c:	defffc04 	addi	sp,sp,-16
  803350:	dfc00315 	stw	ra,12(sp)
  803354:	df000215 	stw	fp,8(sp)
  803358:	df000204 	addi	fp,sp,8
  80335c:	e13ffe15 	stw	r4,-8(fp)
  803360:	e17fff15 	stw	r5,-4(fp)
  803364:	e0bffe17 	ldw	r2,-8(fp)
  803368:	10800043 	ldbu	r2,1(r2)
  80336c:	10c03fcc 	andi	r3,r2,255
  803370:	e0bffe17 	ldw	r2,-8(fp)
  803374:	10800c04 	addi	r2,r2,48
  803378:	1809883a 	mov	r4,r3
  80337c:	100b883a 	mov	r5,r2
  803380:	e1bfff17 	ldw	r6,-4(fp)
  803384:	01c00044 	movi	r7,1
  803388:	0800dec0 	call	800dec <ffs_DiskIORead>
  80338c:	10000226 	beq	r2,zero,803398 <check_fs+0x4c>
  803390:	008000c4 	movi	r2,3
  803394:	00004506 	br	8034ac <check_fs+0x160>
  803398:	e0bffe17 	ldw	r2,-8(fp)
  80339c:	10808bc3 	ldbu	r2,559(r2)
  8033a0:	10803fcc 	andi	r2,r2,255
  8033a4:	1004923a 	slli	r2,r2,8
  8033a8:	1007883a 	mov	r3,r2
  8033ac:	e0bffe17 	ldw	r2,-8(fp)
  8033b0:	10808b83 	ldbu	r2,558(r2)
  8033b4:	10803fcc 	andi	r2,r2,255
  8033b8:	1884b03a 	or	r2,r3,r2
  8033bc:	10bfffcc 	andi	r2,r2,65535
  8033c0:	10a0001c 	xori	r2,r2,32768
  8033c4:	10a00004 	addi	r2,r2,-32768
  8033c8:	10aa9560 	cmpeqi	r2,r2,-21931
  8033cc:	1000021e 	bne	r2,zero,8033d8 <check_fs+0x8c>
  8033d0:	00800084 	movi	r2,2
  8033d4:	00003506 	br	8034ac <check_fs+0x160>
  8033d8:	e0bffe17 	ldw	r2,-8(fp)
  8033dc:	10801a43 	ldbu	r2,105(r2)
  8033e0:	10803fcc 	andi	r2,r2,255
  8033e4:	1006963a 	slli	r3,r2,24
  8033e8:	e0bffe17 	ldw	r2,-8(fp)
  8033ec:	10801a03 	ldbu	r2,104(r2)
  8033f0:	10803fcc 	andi	r2,r2,255
  8033f4:	1004943a 	slli	r2,r2,16
  8033f8:	1884b03a 	or	r2,r3,r2
  8033fc:	e0fffe17 	ldw	r3,-8(fp)
  803400:	18c019c3 	ldbu	r3,103(r3)
  803404:	18c03fcc 	andi	r3,r3,255
  803408:	1806923a 	slli	r3,r3,8
  80340c:	10c6b03a 	or	r3,r2,r3
  803410:	e0bffe17 	ldw	r2,-8(fp)
  803414:	10801983 	ldbu	r2,102(r2)
  803418:	10803fcc 	andi	r2,r2,255
  80341c:	1886b03a 	or	r3,r3,r2
  803420:	00804034 	movhi	r2,256
  803424:	10bfffc4 	addi	r2,r2,-1
  803428:	1886703a 	and	r3,r3,r2
  80342c:	00801534 	movhi	r2,84
  803430:	10905184 	addi	r2,r2,16710
  803434:	1880021e 	bne	r3,r2,803440 <check_fs+0xf4>
  803438:	0005883a 	mov	r2,zero
  80343c:	00001b06 	br	8034ac <check_fs+0x160>
  803440:	e0bffe17 	ldw	r2,-8(fp)
  803444:	10802143 	ldbu	r2,133(r2)
  803448:	10803fcc 	andi	r2,r2,255
  80344c:	1006963a 	slli	r3,r2,24
  803450:	e0bffe17 	ldw	r2,-8(fp)
  803454:	10802103 	ldbu	r2,132(r2)
  803458:	10803fcc 	andi	r2,r2,255
  80345c:	1004943a 	slli	r2,r2,16
  803460:	1884b03a 	or	r2,r3,r2
  803464:	e0fffe17 	ldw	r3,-8(fp)
  803468:	18c020c3 	ldbu	r3,131(r3)
  80346c:	18c03fcc 	andi	r3,r3,255
  803470:	1806923a 	slli	r3,r3,8
  803474:	10c6b03a 	or	r3,r2,r3
  803478:	e0bffe17 	ldw	r2,-8(fp)
  80347c:	10802083 	ldbu	r2,130(r2)
  803480:	10803fcc 	andi	r2,r2,255
  803484:	1886b03a 	or	r3,r3,r2
  803488:	00804034 	movhi	r2,256
  80348c:	10bfffc4 	addi	r2,r2,-1
  803490:	1886703a 	and	r3,r3,r2
  803494:	00801534 	movhi	r2,84
  803498:	10905184 	addi	r2,r2,16710
  80349c:	1880021e 	bne	r3,r2,8034a8 <check_fs+0x15c>
  8034a0:	0005883a 	mov	r2,zero
  8034a4:	00000106 	br	8034ac <check_fs+0x160>
  8034a8:	00800044 	movi	r2,1
  8034ac:	e037883a 	mov	sp,fp
  8034b0:	dfc00117 	ldw	ra,4(sp)
  8034b4:	df000017 	ldw	fp,0(sp)
  8034b8:	dec00204 	addi	sp,sp,8
  8034bc:	f800283a 	ret

008034c0 <chk_mounted>:
  8034c0:	deffee04 	addi	sp,sp,-72
  8034c4:	dfc01115 	stw	ra,68(sp)
  8034c8:	df001015 	stw	fp,64(sp)
  8034cc:	df001004 	addi	fp,sp,64
  8034d0:	e13ffd15 	stw	r4,-12(fp)
  8034d4:	e17ffe15 	stw	r5,-8(fp)
  8034d8:	3005883a 	mov	r2,r6
  8034dc:	e0bfff05 	stb	r2,-4(fp)
  8034e0:	e0bffd17 	ldw	r2,-12(fp)
  8034e4:	10800017 	ldw	r2,0(r2)
  8034e8:	e0bff615 	stw	r2,-40(fp)
  8034ec:	e0bff617 	ldw	r2,-40(fp)
  8034f0:	10800003 	ldbu	r2,0(r2)
  8034f4:	10803fcc 	andi	r2,r2,255
  8034f8:	1080201c 	xori	r2,r2,128
  8034fc:	10bfe004 	addi	r2,r2,-128
  803500:	10bff404 	addi	r2,r2,-48
  803504:	e0bff115 	stw	r2,-60(fp)
  803508:	e0bff117 	ldw	r2,-60(fp)
  80350c:	108002a8 	cmpgeui	r2,r2,10
  803510:	10000f1e 	bne	r2,zero,803550 <chk_mounted+0x90>
  803514:	e0bff617 	ldw	r2,-40(fp)
  803518:	10800044 	addi	r2,r2,1
  80351c:	10800003 	ldbu	r2,0(r2)
  803520:	10803fcc 	andi	r2,r2,255
  803524:	1080201c 	xori	r2,r2,128
  803528:	10bfe004 	addi	r2,r2,-128
  80352c:	10800e98 	cmpnei	r2,r2,58
  803530:	1000071e 	bne	r2,zero,803550 <chk_mounted+0x90>
  803534:	e0bff617 	ldw	r2,-40(fp)
  803538:	10800084 	addi	r2,r2,2
  80353c:	e0bff615 	stw	r2,-40(fp)
  803540:	e0bffd17 	ldw	r2,-12(fp)
  803544:	e0fff617 	ldw	r3,-40(fp)
  803548:	10c00015 	stw	r3,0(r2)
  80354c:	00000106 	br	803554 <chk_mounted+0x94>
  803550:	e03ff115 	stw	zero,-60(fp)
  803554:	e0bff117 	ldw	r2,-60(fp)
  803558:	10000226 	beq	r2,zero,803564 <chk_mounted+0xa4>
  80355c:	008002c4 	movi	r2,11
  803560:	00022106 	br	803de8 <chk_mounted+0x928>
  803564:	e0bff117 	ldw	r2,-60(fp)
  803568:	1085883a 	add	r2,r2,r2
  80356c:	1087883a 	add	r3,r2,r2
  803570:	d0a35f04 	addi	r2,gp,-29316
  803574:	1885883a 	add	r2,r3,r2
  803578:	10800017 	ldw	r2,0(r2)
  80357c:	e0bff715 	stw	r2,-36(fp)
  803580:	e0bffe17 	ldw	r2,-8(fp)
  803584:	e0fff717 	ldw	r3,-36(fp)
  803588:	10c00015 	stw	r3,0(r2)
  80358c:	e0bff717 	ldw	r2,-36(fp)
  803590:	1000021e 	bne	r2,zero,80359c <chk_mounted+0xdc>
  803594:	00800304 	movi	r2,12
  803598:	00021306 	br	803de8 <chk_mounted+0x928>
  80359c:	e0bff717 	ldw	r2,-36(fp)
  8035a0:	10800003 	ldbu	r2,0(r2)
  8035a4:	10803fcc 	andi	r2,r2,255
  8035a8:	10001226 	beq	r2,zero,8035f4 <chk_mounted+0x134>
  8035ac:	e0bff717 	ldw	r2,-36(fp)
  8035b0:	10800043 	ldbu	r2,1(r2)
  8035b4:	10803fcc 	andi	r2,r2,255
  8035b8:	1009883a 	mov	r4,r2
  8035bc:	0800dc40 	call	800dc4 <ffs_DiskIOStatus>
  8035c0:	e0bff805 	stb	r2,-32(fp)
  8035c4:	e0bff803 	ldbu	r2,-32(fp)
  8035c8:	1080004c 	andi	r2,r2,1
  8035cc:	1000091e 	bne	r2,zero,8035f4 <chk_mounted+0x134>
  8035d0:	e0bfff03 	ldbu	r2,-4(fp)
  8035d4:	10000526 	beq	r2,zero,8035ec <chk_mounted+0x12c>
  8035d8:	e0bff803 	ldbu	r2,-32(fp)
  8035dc:	1080010c 	andi	r2,r2,4
  8035e0:	10000226 	beq	r2,zero,8035ec <chk_mounted+0x12c>
  8035e4:	00800284 	movi	r2,10
  8035e8:	0001ff06 	br	803de8 <chk_mounted+0x928>
  8035ec:	0005883a 	mov	r2,zero
  8035f0:	0001fd06 	br	803de8 <chk_mounted+0x928>
  8035f4:	e0bff717 	ldw	r2,-36(fp)
  8035f8:	10000005 	stb	zero,0(r2)
  8035fc:	e0bff117 	ldw	r2,-60(fp)
  803600:	1007883a 	mov	r3,r2
  803604:	e0bff717 	ldw	r2,-36(fp)
  803608:	10c00045 	stb	r3,1(r2)
  80360c:	e0bff717 	ldw	r2,-36(fp)
  803610:	10800043 	ldbu	r2,1(r2)
  803614:	10803fcc 	andi	r2,r2,255
  803618:	1009883a 	mov	r4,r2
  80361c:	0800b680 	call	800b68 <ffs_DiskIOInitialize>
  803620:	e0bff805 	stb	r2,-32(fp)
  803624:	e0bff803 	ldbu	r2,-32(fp)
  803628:	1080004c 	andi	r2,r2,1
  80362c:	10000226 	beq	r2,zero,803638 <chk_mounted+0x178>
  803630:	008000c4 	movi	r2,3
  803634:	0001ec06 	br	803de8 <chk_mounted+0x928>
  803638:	e0bfff03 	ldbu	r2,-4(fp)
  80363c:	10000526 	beq	r2,zero,803654 <chk_mounted+0x194>
  803640:	e0bff803 	ldbu	r2,-32(fp)
  803644:	1080010c 	andi	r2,r2,4
  803648:	10000226 	beq	r2,zero,803654 <chk_mounted+0x194>
  80364c:	00800284 	movi	r2,10
  803650:	0001e506 	br	803de8 <chk_mounted+0x928>
  803654:	e03ff215 	stw	zero,-56(fp)
  803658:	e13ff717 	ldw	r4,-36(fp)
  80365c:	e17ff217 	ldw	r5,-56(fp)
  803660:	080334c0 	call	80334c <check_fs>
  803664:	e0bff005 	stb	r2,-64(fp)
  803668:	e0bff003 	ldbu	r2,-64(fp)
  80366c:	10800058 	cmpnei	r2,r2,1
  803670:	10002d1e 	bne	r2,zero,803728 <chk_mounted+0x268>
  803674:	e03ff045 	stb	zero,-63(fp)
  803678:	e0bff043 	ldbu	r2,-63(fp)
  80367c:	10000326 	beq	r2,zero,80368c <chk_mounted+0x1cc>
  803680:	e0bff043 	ldbu	r2,-63(fp)
  803684:	10bfffc4 	addi	r2,r2,-1
  803688:	e0bff045 	stb	r2,-63(fp)
  80368c:	e0bff043 	ldbu	r2,-63(fp)
  803690:	1004913a 	slli	r2,r2,4
  803694:	10806f84 	addi	r2,r2,446
  803698:	10800c04 	addi	r2,r2,48
  80369c:	e0fff717 	ldw	r3,-36(fp)
  8036a0:	1885883a 	add	r2,r3,r2
  8036a4:	e0bff915 	stw	r2,-28(fp)
  8036a8:	e0bff917 	ldw	r2,-28(fp)
  8036ac:	10800104 	addi	r2,r2,4
  8036b0:	10800003 	ldbu	r2,0(r2)
  8036b4:	10803fcc 	andi	r2,r2,255
  8036b8:	10001b26 	beq	r2,zero,803728 <chk_mounted+0x268>
  8036bc:	e0bff917 	ldw	r2,-28(fp)
  8036c0:	108002c4 	addi	r2,r2,11
  8036c4:	10800003 	ldbu	r2,0(r2)
  8036c8:	10803fcc 	andi	r2,r2,255
  8036cc:	1006963a 	slli	r3,r2,24
  8036d0:	e0bff917 	ldw	r2,-28(fp)
  8036d4:	10800284 	addi	r2,r2,10
  8036d8:	10800003 	ldbu	r2,0(r2)
  8036dc:	10803fcc 	andi	r2,r2,255
  8036e0:	1004943a 	slli	r2,r2,16
  8036e4:	1884b03a 	or	r2,r3,r2
  8036e8:	e0fff917 	ldw	r3,-28(fp)
  8036ec:	18c00244 	addi	r3,r3,9
  8036f0:	18c00003 	ldbu	r3,0(r3)
  8036f4:	18c03fcc 	andi	r3,r3,255
  8036f8:	1806923a 	slli	r3,r3,8
  8036fc:	10c6b03a 	or	r3,r2,r3
  803700:	e0bff917 	ldw	r2,-28(fp)
  803704:	10800204 	addi	r2,r2,8
  803708:	10800003 	ldbu	r2,0(r2)
  80370c:	10803fcc 	andi	r2,r2,255
  803710:	1884b03a 	or	r2,r3,r2
  803714:	e0bff215 	stw	r2,-56(fp)
  803718:	e13ff717 	ldw	r4,-36(fp)
  80371c:	e17ff217 	ldw	r5,-56(fp)
  803720:	080334c0 	call	80334c <check_fs>
  803724:	e0bff005 	stb	r2,-64(fp)
  803728:	e0bff003 	ldbu	r2,-64(fp)
  80372c:	108000d8 	cmpnei	r2,r2,3
  803730:	1000021e 	bne	r2,zero,80373c <chk_mounted+0x27c>
  803734:	00800044 	movi	r2,1
  803738:	0001ab06 	br	803de8 <chk_mounted+0x928>
  80373c:	e0bff003 	ldbu	r2,-64(fp)
  803740:	10000226 	beq	r2,zero,80374c <chk_mounted+0x28c>
  803744:	00800344 	movi	r2,13
  803748:	0001a706 	br	803de8 <chk_mounted+0x928>
  80374c:	e0bff717 	ldw	r2,-36(fp)
  803750:	10800f03 	ldbu	r2,60(r2)
  803754:	10803fcc 	andi	r2,r2,255
  803758:	1004923a 	slli	r2,r2,8
  80375c:	1007883a 	mov	r3,r2
  803760:	e0bff717 	ldw	r2,-36(fp)
  803764:	10800ec3 	ldbu	r2,59(r2)
  803768:	10803fcc 	andi	r2,r2,255
  80376c:	1884b03a 	or	r2,r3,r2
  803770:	10bfffcc 	andi	r2,r2,65535
  803774:	10a0001c 	xori	r2,r2,32768
  803778:	10a00004 	addi	r2,r2,-32768
  80377c:	10808020 	cmpeqi	r2,r2,512
  803780:	1000021e 	bne	r2,zero,80378c <chk_mounted+0x2cc>
  803784:	00800344 	movi	r2,13
  803788:	00019706 	br	803de8 <chk_mounted+0x928>
  80378c:	e0bff717 	ldw	r2,-36(fp)
  803790:	108011c3 	ldbu	r2,71(r2)
  803794:	10803fcc 	andi	r2,r2,255
  803798:	1004923a 	slli	r2,r2,8
  80379c:	1007883a 	mov	r3,r2
  8037a0:	e0bff717 	ldw	r2,-36(fp)
  8037a4:	10801183 	ldbu	r2,70(r2)
  8037a8:	10803fcc 	andi	r2,r2,255
  8037ac:	1884b03a 	or	r2,r3,r2
  8037b0:	10bfffcc 	andi	r2,r2,65535
  8037b4:	e0bff315 	stw	r2,-52(fp)
  8037b8:	e0bff317 	ldw	r2,-52(fp)
  8037bc:	1000131e 	bne	r2,zero,80380c <chk_mounted+0x34c>
  8037c0:	e0bff717 	ldw	r2,-36(fp)
  8037c4:	108015c3 	ldbu	r2,87(r2)
  8037c8:	10803fcc 	andi	r2,r2,255
  8037cc:	1006963a 	slli	r3,r2,24
  8037d0:	e0bff717 	ldw	r2,-36(fp)
  8037d4:	10801583 	ldbu	r2,86(r2)
  8037d8:	10803fcc 	andi	r2,r2,255
  8037dc:	1004943a 	slli	r2,r2,16
  8037e0:	1884b03a 	or	r2,r3,r2
  8037e4:	e0fff717 	ldw	r3,-36(fp)
  8037e8:	18c01543 	ldbu	r3,85(r3)
  8037ec:	18c03fcc 	andi	r3,r3,255
  8037f0:	1806923a 	slli	r3,r3,8
  8037f4:	10c6b03a 	or	r3,r2,r3
  8037f8:	e0bff717 	ldw	r2,-36(fp)
  8037fc:	10801503 	ldbu	r2,84(r2)
  803800:	10803fcc 	andi	r2,r2,255
  803804:	1884b03a 	or	r2,r3,r2
  803808:	e0bff315 	stw	r2,-52(fp)
  80380c:	e0bff717 	ldw	r2,-36(fp)
  803810:	e0fff317 	ldw	r3,-52(fp)
  803814:	10c00715 	stw	r3,28(r2)
  803818:	e0bff717 	ldw	r2,-36(fp)
  80381c:	10801003 	ldbu	r2,64(r2)
  803820:	e0bffa05 	stb	r2,-24(fp)
  803824:	e0bff717 	ldw	r2,-36(fp)
  803828:	e0fffa03 	ldbu	r3,-24(fp)
  80382c:	10c000c5 	stb	r3,3(r2)
  803830:	e0bffa03 	ldbu	r2,-24(fp)
  803834:	10800060 	cmpeqi	r2,r2,1
  803838:	1000051e 	bne	r2,zero,803850 <chk_mounted+0x390>
  80383c:	e0bffa03 	ldbu	r2,-24(fp)
  803840:	108000a0 	cmpeqi	r2,r2,2
  803844:	1000021e 	bne	r2,zero,803850 <chk_mounted+0x390>
  803848:	00800344 	movi	r2,13
  80384c:	00016606 	br	803de8 <chk_mounted+0x928>
  803850:	e0bffa03 	ldbu	r2,-24(fp)
  803854:	e0fff317 	ldw	r3,-52(fp)
  803858:	1885383a 	mul	r2,r3,r2
  80385c:	e0bff315 	stw	r2,-52(fp)
  803860:	e0bff717 	ldw	r2,-36(fp)
  803864:	10800f43 	ldbu	r2,61(r2)
  803868:	e0bffa05 	stb	r2,-24(fp)
  80386c:	e0bff717 	ldw	r2,-36(fp)
  803870:	e0fffa03 	ldbu	r3,-24(fp)
  803874:	10c00085 	stb	r3,2(r2)
  803878:	e0bffa03 	ldbu	r2,-24(fp)
  80387c:	10000526 	beq	r2,zero,803894 <chk_mounted+0x3d4>
  803880:	e0fffa03 	ldbu	r3,-24(fp)
  803884:	e0bffa03 	ldbu	r2,-24(fp)
  803888:	10bfffc4 	addi	r2,r2,-1
  80388c:	1884703a 	and	r2,r3,r2
  803890:	10000226 	beq	r2,zero,80389c <chk_mounted+0x3dc>
  803894:	00800344 	movi	r2,13
  803898:	00015306 	br	803de8 <chk_mounted+0x928>
  80389c:	e0bff717 	ldw	r2,-36(fp)
  8038a0:	10801083 	ldbu	r2,66(r2)
  8038a4:	10803fcc 	andi	r2,r2,255
  8038a8:	1004923a 	slli	r2,r2,8
  8038ac:	1007883a 	mov	r3,r2
  8038b0:	e0bff717 	ldw	r2,-36(fp)
  8038b4:	10801043 	ldbu	r2,65(r2)
  8038b8:	10803fcc 	andi	r2,r2,255
  8038bc:	1884b03a 	or	r2,r3,r2
  8038c0:	1007883a 	mov	r3,r2
  8038c4:	e0bff717 	ldw	r2,-36(fp)
  8038c8:	10c0020d 	sth	r3,8(r2)
  8038cc:	e0bff717 	ldw	r2,-36(fp)
  8038d0:	1080020b 	ldhu	r2,8(r2)
  8038d4:	108003cc 	andi	r2,r2,15
  8038d8:	10bfffcc 	andi	r2,r2,65535
  8038dc:	10000226 	beq	r2,zero,8038e8 <chk_mounted+0x428>
  8038e0:	00800344 	movi	r2,13
  8038e4:	00014006 	br	803de8 <chk_mounted+0x928>
  8038e8:	e0bff717 	ldw	r2,-36(fp)
  8038ec:	10801103 	ldbu	r2,68(r2)
  8038f0:	10803fcc 	andi	r2,r2,255
  8038f4:	1004923a 	slli	r2,r2,8
  8038f8:	1007883a 	mov	r3,r2
  8038fc:	e0bff717 	ldw	r2,-36(fp)
  803900:	108010c3 	ldbu	r2,67(r2)
  803904:	10803fcc 	andi	r2,r2,255
  803908:	1884b03a 	or	r2,r3,r2
  80390c:	10bfffcc 	andi	r2,r2,65535
  803910:	e0bff415 	stw	r2,-48(fp)
  803914:	e0bff417 	ldw	r2,-48(fp)
  803918:	1000131e 	bne	r2,zero,803968 <chk_mounted+0x4a8>
  80391c:	e0bff717 	ldw	r2,-36(fp)
  803920:	108014c3 	ldbu	r2,83(r2)
  803924:	10803fcc 	andi	r2,r2,255
  803928:	1006963a 	slli	r3,r2,24
  80392c:	e0bff717 	ldw	r2,-36(fp)
  803930:	10801483 	ldbu	r2,82(r2)
  803934:	10803fcc 	andi	r2,r2,255
  803938:	1004943a 	slli	r2,r2,16
  80393c:	1884b03a 	or	r2,r3,r2
  803940:	e0fff717 	ldw	r3,-36(fp)
  803944:	18c01443 	ldbu	r3,81(r3)
  803948:	18c03fcc 	andi	r3,r3,255
  80394c:	1806923a 	slli	r3,r3,8
  803950:	10c6b03a 	or	r3,r2,r3
  803954:	e0bff717 	ldw	r2,-36(fp)
  803958:	10801403 	ldbu	r2,80(r2)
  80395c:	10803fcc 	andi	r2,r2,255
  803960:	1884b03a 	or	r2,r3,r2
  803964:	e0bff415 	stw	r2,-48(fp)
  803968:	e0bff717 	ldw	r2,-36(fp)
  80396c:	10800fc3 	ldbu	r2,63(r2)
  803970:	10803fcc 	andi	r2,r2,255
  803974:	1004923a 	slli	r2,r2,8
  803978:	1007883a 	mov	r3,r2
  80397c:	e0bff717 	ldw	r2,-36(fp)
  803980:	10800f83 	ldbu	r2,62(r2)
  803984:	10803fcc 	andi	r2,r2,255
  803988:	1884b03a 	or	r2,r3,r2
  80398c:	e0bffa8d 	sth	r2,-22(fp)
  803990:	e0bffa8b 	ldhu	r2,-22(fp)
  803994:	1000021e 	bne	r2,zero,8039a0 <chk_mounted+0x4e0>
  803998:	00800344 	movi	r2,13
  80399c:	00011206 	br	803de8 <chk_mounted+0x928>
  8039a0:	e0fffa8b 	ldhu	r3,-22(fp)
  8039a4:	e0bff317 	ldw	r2,-52(fp)
  8039a8:	1887883a 	add	r3,r3,r2
  8039ac:	e0bff717 	ldw	r2,-36(fp)
  8039b0:	1080020b 	ldhu	r2,8(r2)
  8039b4:	10bfffcc 	andi	r2,r2,65535
  8039b8:	1004d13a 	srli	r2,r2,4
  8039bc:	10bfffcc 	andi	r2,r2,65535
  8039c0:	1885883a 	add	r2,r3,r2
  8039c4:	e0bffb15 	stw	r2,-20(fp)
  8039c8:	e0fff417 	ldw	r3,-48(fp)
  8039cc:	e0bffb17 	ldw	r2,-20(fp)
  8039d0:	1880022e 	bgeu	r3,r2,8039dc <chk_mounted+0x51c>
  8039d4:	00800344 	movi	r2,13
  8039d8:	00010306 	br	803de8 <chk_mounted+0x928>
  8039dc:	e0fff417 	ldw	r3,-48(fp)
  8039e0:	e0bffb17 	ldw	r2,-20(fp)
  8039e4:	1887c83a 	sub	r3,r3,r2
  8039e8:	e0bff717 	ldw	r2,-36(fp)
  8039ec:	10800083 	ldbu	r2,2(r2)
  8039f0:	10803fcc 	andi	r2,r2,255
  8039f4:	1809883a 	mov	r4,r3
  8039f8:	100b883a 	mov	r5,r2
  8039fc:	08097940 	call	809794 <__udivsi3>
  803a00:	e0bffc15 	stw	r2,-16(fp)
  803a04:	e0bffc17 	ldw	r2,-16(fp)
  803a08:	1000021e 	bne	r2,zero,803a14 <chk_mounted+0x554>
  803a0c:	00800344 	movi	r2,13
  803a10:	0000f506 	br	803de8 <chk_mounted+0x928>
  803a14:	00800044 	movi	r2,1
  803a18:	e0bff005 	stb	r2,-64(fp)
  803a1c:	e0bffc17 	ldw	r2,-16(fp)
  803a20:	1083fdb0 	cmpltui	r2,r2,4086
  803a24:	1000021e 	bne	r2,zero,803a30 <chk_mounted+0x570>
  803a28:	00800084 	movi	r2,2
  803a2c:	e0bff005 	stb	r2,-64(fp)
  803a30:	e0bffc17 	ldw	r2,-16(fp)
  803a34:	10bffdb0 	cmpltui	r2,r2,65526
  803a38:	1000021e 	bne	r2,zero,803a44 <chk_mounted+0x584>
  803a3c:	008000c4 	movi	r2,3
  803a40:	e0bff005 	stb	r2,-64(fp)
  803a44:	e0bffc17 	ldw	r2,-16(fp)
  803a48:	10c00084 	addi	r3,r2,2
  803a4c:	e0bff717 	ldw	r2,-36(fp)
  803a50:	10c00615 	stw	r3,24(r2)
  803a54:	e0fff217 	ldw	r3,-56(fp)
  803a58:	e0bffb17 	ldw	r2,-20(fp)
  803a5c:	1887883a 	add	r3,r3,r2
  803a60:	e0bff717 	ldw	r2,-36(fp)
  803a64:	10c00a15 	stw	r3,40(r2)
  803a68:	e0fffa8b 	ldhu	r3,-22(fp)
  803a6c:	e0bff217 	ldw	r2,-56(fp)
  803a70:	1887883a 	add	r3,r3,r2
  803a74:	e0bff717 	ldw	r2,-36(fp)
  803a78:	10c00815 	stw	r3,32(r2)
  803a7c:	e0bff003 	ldbu	r2,-64(fp)
  803a80:	108000d8 	cmpnei	r2,r2,3
  803a84:	1000201e 	bne	r2,zero,803b08 <chk_mounted+0x648>
  803a88:	e0bff717 	ldw	r2,-36(fp)
  803a8c:	1080020b 	ldhu	r2,8(r2)
  803a90:	10bfffcc 	andi	r2,r2,65535
  803a94:	10000226 	beq	r2,zero,803aa0 <chk_mounted+0x5e0>
  803a98:	00800344 	movi	r2,13
  803a9c:	0000d206 	br	803de8 <chk_mounted+0x928>
  803aa0:	e0bff717 	ldw	r2,-36(fp)
  803aa4:	108017c3 	ldbu	r2,95(r2)
  803aa8:	10803fcc 	andi	r2,r2,255
  803aac:	1006963a 	slli	r3,r2,24
  803ab0:	e0bff717 	ldw	r2,-36(fp)
  803ab4:	10801783 	ldbu	r2,94(r2)
  803ab8:	10803fcc 	andi	r2,r2,255
  803abc:	1004943a 	slli	r2,r2,16
  803ac0:	1884b03a 	or	r2,r3,r2
  803ac4:	e0fff717 	ldw	r3,-36(fp)
  803ac8:	18c01743 	ldbu	r3,93(r3)
  803acc:	18c03fcc 	andi	r3,r3,255
  803ad0:	1806923a 	slli	r3,r3,8
  803ad4:	10c6b03a 	or	r3,r2,r3
  803ad8:	e0bff717 	ldw	r2,-36(fp)
  803adc:	10801703 	ldbu	r2,92(r2)
  803ae0:	10803fcc 	andi	r2,r2,255
  803ae4:	1886b03a 	or	r3,r3,r2
  803ae8:	e0bff717 	ldw	r2,-36(fp)
  803aec:	10c00915 	stw	r3,36(r2)
  803af0:	e0bff717 	ldw	r2,-36(fp)
  803af4:	10800617 	ldw	r2,24(r2)
  803af8:	1085883a 	add	r2,r2,r2
  803afc:	1085883a 	add	r2,r2,r2
  803b00:	e0bff515 	stw	r2,-44(fp)
  803b04:	00001e06 	br	803b80 <chk_mounted+0x6c0>
  803b08:	e0bff717 	ldw	r2,-36(fp)
  803b0c:	1080020b 	ldhu	r2,8(r2)
  803b10:	10bfffcc 	andi	r2,r2,65535
  803b14:	1000021e 	bne	r2,zero,803b20 <chk_mounted+0x660>
  803b18:	00800344 	movi	r2,13
  803b1c:	0000b206 	br	803de8 <chk_mounted+0x928>
  803b20:	e0bff717 	ldw	r2,-36(fp)
  803b24:	10c00817 	ldw	r3,32(r2)
  803b28:	e0bff317 	ldw	r2,-52(fp)
  803b2c:	1887883a 	add	r3,r3,r2
  803b30:	e0bff717 	ldw	r2,-36(fp)
  803b34:	10c00915 	stw	r3,36(r2)
  803b38:	e0bff003 	ldbu	r2,-64(fp)
  803b3c:	10800098 	cmpnei	r2,r2,2
  803b40:	1000041e 	bne	r2,zero,803b54 <chk_mounted+0x694>
  803b44:	e0bff717 	ldw	r2,-36(fp)
  803b48:	10800617 	ldw	r2,24(r2)
  803b4c:	1085883a 	add	r2,r2,r2
  803b50:	00000a06 	br	803b7c <chk_mounted+0x6bc>
  803b54:	e0bff717 	ldw	r2,-36(fp)
  803b58:	10c00617 	ldw	r3,24(r2)
  803b5c:	1805883a 	mov	r2,r3
  803b60:	1085883a 	add	r2,r2,r2
  803b64:	10c5883a 	add	r2,r2,r3
  803b68:	1006d07a 	srli	r3,r2,1
  803b6c:	e0bff717 	ldw	r2,-36(fp)
  803b70:	10800617 	ldw	r2,24(r2)
  803b74:	1080004c 	andi	r2,r2,1
  803b78:	1885883a 	add	r2,r3,r2
  803b7c:	e0bff515 	stw	r2,-44(fp)
  803b80:	e0bff717 	ldw	r2,-36(fp)
  803b84:	10c00717 	ldw	r3,28(r2)
  803b88:	e0bff517 	ldw	r2,-44(fp)
  803b8c:	10807fc4 	addi	r2,r2,511
  803b90:	1004d27a 	srli	r2,r2,9
  803b94:	1880022e 	bgeu	r3,r2,803ba0 <chk_mounted+0x6e0>
  803b98:	00800344 	movi	r2,13
  803b9c:	00009206 	br	803de8 <chk_mounted+0x928>
  803ba0:	e0bff717 	ldw	r2,-36(fp)
  803ba4:	00ffffc4 	movi	r3,-1
  803ba8:	10c00415 	stw	r3,16(r2)
  803bac:	e0bff717 	ldw	r2,-36(fp)
  803bb0:	10000315 	stw	zero,12(r2)
  803bb4:	e0bff003 	ldbu	r2,-64(fp)
  803bb8:	108000d8 	cmpnei	r2,r2,3
  803bbc:	10007c1e 	bne	r2,zero,803db0 <chk_mounted+0x8f0>
  803bc0:	e0bff717 	ldw	r2,-36(fp)
  803bc4:	10000145 	stb	zero,5(r2)
  803bc8:	e0bff717 	ldw	r2,-36(fp)
  803bcc:	10801843 	ldbu	r2,97(r2)
  803bd0:	10803fcc 	andi	r2,r2,255
  803bd4:	1004923a 	slli	r2,r2,8
  803bd8:	1007883a 	mov	r3,r2
  803bdc:	e0bff717 	ldw	r2,-36(fp)
  803be0:	10801803 	ldbu	r2,96(r2)
  803be4:	10803fcc 	andi	r2,r2,255
  803be8:	1884b03a 	or	r2,r3,r2
  803bec:	10ffffcc 	andi	r3,r2,65535
  803bf0:	e0bff217 	ldw	r2,-56(fp)
  803bf4:	1887883a 	add	r3,r3,r2
  803bf8:	e0bff717 	ldw	r2,-36(fp)
  803bfc:	10c00515 	stw	r3,20(r2)
  803c00:	e0bff717 	ldw	r2,-36(fp)
  803c04:	10800043 	ldbu	r2,1(r2)
  803c08:	11003fcc 	andi	r4,r2,255
  803c0c:	e0bff717 	ldw	r2,-36(fp)
  803c10:	10c00c04 	addi	r3,r2,48
  803c14:	e0bff717 	ldw	r2,-36(fp)
  803c18:	10800517 	ldw	r2,20(r2)
  803c1c:	180b883a 	mov	r5,r3
  803c20:	100d883a 	mov	r6,r2
  803c24:	01c00044 	movi	r7,1
  803c28:	0800dec0 	call	800dec <ffs_DiskIORead>
  803c2c:	1000601e 	bne	r2,zero,803db0 <chk_mounted+0x8f0>
  803c30:	e0bff717 	ldw	r2,-36(fp)
  803c34:	10808bc3 	ldbu	r2,559(r2)
  803c38:	10803fcc 	andi	r2,r2,255
  803c3c:	1004923a 	slli	r2,r2,8
  803c40:	1007883a 	mov	r3,r2
  803c44:	e0bff717 	ldw	r2,-36(fp)
  803c48:	10808b83 	ldbu	r2,558(r2)
  803c4c:	10803fcc 	andi	r2,r2,255
  803c50:	1884b03a 	or	r2,r3,r2
  803c54:	10bfffcc 	andi	r2,r2,65535
  803c58:	10a0001c 	xori	r2,r2,32768
  803c5c:	10a00004 	addi	r2,r2,-32768
  803c60:	10aa9558 	cmpnei	r2,r2,-21931
  803c64:	1000521e 	bne	r2,zero,803db0 <chk_mounted+0x8f0>
  803c68:	e0bff717 	ldw	r2,-36(fp)
  803c6c:	10800cc3 	ldbu	r2,51(r2)
  803c70:	10803fcc 	andi	r2,r2,255
  803c74:	1006963a 	slli	r3,r2,24
  803c78:	e0bff717 	ldw	r2,-36(fp)
  803c7c:	10800c83 	ldbu	r2,50(r2)
  803c80:	10803fcc 	andi	r2,r2,255
  803c84:	1004943a 	slli	r2,r2,16
  803c88:	1884b03a 	or	r2,r3,r2
  803c8c:	e0fff717 	ldw	r3,-36(fp)
  803c90:	18c00c43 	ldbu	r3,49(r3)
  803c94:	18c03fcc 	andi	r3,r3,255
  803c98:	1806923a 	slli	r3,r3,8
  803c9c:	10c6b03a 	or	r3,r2,r3
  803ca0:	e0bff717 	ldw	r2,-36(fp)
  803ca4:	10800c03 	ldbu	r2,48(r2)
  803ca8:	10803fcc 	andi	r2,r2,255
  803cac:	1886b03a 	or	r3,r3,r2
  803cb0:	00905874 	movhi	r2,16737
  803cb4:	10949484 	addi	r2,r2,21074
  803cb8:	18803d1e 	bne	r3,r2,803db0 <chk_mounted+0x8f0>
  803cbc:	e0bff717 	ldw	r2,-36(fp)
  803cc0:	108085c3 	ldbu	r2,535(r2)
  803cc4:	10803fcc 	andi	r2,r2,255
  803cc8:	1006963a 	slli	r3,r2,24
  803ccc:	e0bff717 	ldw	r2,-36(fp)
  803cd0:	10808583 	ldbu	r2,534(r2)
  803cd4:	10803fcc 	andi	r2,r2,255
  803cd8:	1004943a 	slli	r2,r2,16
  803cdc:	1884b03a 	or	r2,r3,r2
  803ce0:	e0fff717 	ldw	r3,-36(fp)
  803ce4:	18c08543 	ldbu	r3,533(r3)
  803ce8:	18c03fcc 	andi	r3,r3,255
  803cec:	1806923a 	slli	r3,r3,8
  803cf0:	10c6b03a 	or	r3,r2,r3
  803cf4:	e0bff717 	ldw	r2,-36(fp)
  803cf8:	10808503 	ldbu	r2,532(r2)
  803cfc:	10803fcc 	andi	r2,r2,255
  803d00:	1886b03a 	or	r3,r3,r2
  803d04:	00985074 	movhi	r2,24897
  803d08:	109c9c84 	addi	r2,r2,29298
  803d0c:	1880281e 	bne	r3,r2,803db0 <chk_mounted+0x8f0>
  803d10:	e0bff717 	ldw	r2,-36(fp)
  803d14:	108087c3 	ldbu	r2,543(r2)
  803d18:	10803fcc 	andi	r2,r2,255
  803d1c:	1006963a 	slli	r3,r2,24
  803d20:	e0bff717 	ldw	r2,-36(fp)
  803d24:	10808783 	ldbu	r2,542(r2)
  803d28:	10803fcc 	andi	r2,r2,255
  803d2c:	1004943a 	slli	r2,r2,16
  803d30:	1884b03a 	or	r2,r3,r2
  803d34:	e0fff717 	ldw	r3,-36(fp)
  803d38:	18c08743 	ldbu	r3,541(r3)
  803d3c:	18c03fcc 	andi	r3,r3,255
  803d40:	1806923a 	slli	r3,r3,8
  803d44:	10c6b03a 	or	r3,r2,r3
  803d48:	e0bff717 	ldw	r2,-36(fp)
  803d4c:	10808703 	ldbu	r2,540(r2)
  803d50:	10803fcc 	andi	r2,r2,255
  803d54:	1886b03a 	or	r3,r3,r2
  803d58:	e0bff717 	ldw	r2,-36(fp)
  803d5c:	10c00315 	stw	r3,12(r2)
  803d60:	e0bff717 	ldw	r2,-36(fp)
  803d64:	108086c3 	ldbu	r2,539(r2)
  803d68:	10803fcc 	andi	r2,r2,255
  803d6c:	1006963a 	slli	r3,r2,24
  803d70:	e0bff717 	ldw	r2,-36(fp)
  803d74:	10808683 	ldbu	r2,538(r2)
  803d78:	10803fcc 	andi	r2,r2,255
  803d7c:	1004943a 	slli	r2,r2,16
  803d80:	1884b03a 	or	r2,r3,r2
  803d84:	e0fff717 	ldw	r3,-36(fp)
  803d88:	18c08643 	ldbu	r3,537(r3)
  803d8c:	18c03fcc 	andi	r3,r3,255
  803d90:	1806923a 	slli	r3,r3,8
  803d94:	10c6b03a 	or	r3,r2,r3
  803d98:	e0bff717 	ldw	r2,-36(fp)
  803d9c:	10808603 	ldbu	r2,536(r2)
  803da0:	10803fcc 	andi	r2,r2,255
  803da4:	1886b03a 	or	r3,r3,r2
  803da8:	e0bff717 	ldw	r2,-36(fp)
  803dac:	10c00415 	stw	r3,16(r2)
  803db0:	e0bff717 	ldw	r2,-36(fp)
  803db4:	e0fff003 	ldbu	r3,-64(fp)
  803db8:	10c00005 	stb	r3,0(r2)
  803dbc:	d0a3600b 	ldhu	r2,-29312(gp)
  803dc0:	10800044 	addi	r2,r2,1
  803dc4:	d0a3600d 	sth	r2,-29312(gp)
  803dc8:	d0e3600b 	ldhu	r3,-29312(gp)
  803dcc:	e0bff717 	ldw	r2,-36(fp)
  803dd0:	10c0018d 	sth	r3,6(r2)
  803dd4:	e0bff717 	ldw	r2,-36(fp)
  803dd8:	10000b15 	stw	zero,44(r2)
  803ddc:	e0bff717 	ldw	r2,-36(fp)
  803de0:	10000105 	stb	zero,4(r2)
  803de4:	0005883a 	mov	r2,zero
  803de8:	e037883a 	mov	sp,fp
  803dec:	dfc00117 	ldw	ra,4(sp)
  803df0:	df000017 	ldw	fp,0(sp)
  803df4:	dec00204 	addi	sp,sp,8
  803df8:	f800283a 	ret

00803dfc <validate>:
  803dfc:	defffc04 	addi	sp,sp,-16
  803e00:	dfc00315 	stw	ra,12(sp)
  803e04:	df000215 	stw	fp,8(sp)
  803e08:	df000204 	addi	fp,sp,8
  803e0c:	e13ffe15 	stw	r4,-8(fp)
  803e10:	2805883a 	mov	r2,r5
  803e14:	e0bfff0d 	sth	r2,-4(fp)
  803e18:	e0bffe17 	ldw	r2,-8(fp)
  803e1c:	10000926 	beq	r2,zero,803e44 <validate+0x48>
  803e20:	e0bffe17 	ldw	r2,-8(fp)
  803e24:	10800003 	ldbu	r2,0(r2)
  803e28:	10803fcc 	andi	r2,r2,255
  803e2c:	10000526 	beq	r2,zero,803e44 <validate+0x48>
  803e30:	e0bffe17 	ldw	r2,-8(fp)
  803e34:	1080018b 	ldhu	r2,6(r2)
  803e38:	10ffffcc 	andi	r3,r2,65535
  803e3c:	e0bfff0b 	ldhu	r2,-4(fp)
  803e40:	18800226 	beq	r3,r2,803e4c <validate+0x50>
  803e44:	00800244 	movi	r2,9
  803e48:	00000b06 	br	803e78 <validate+0x7c>
  803e4c:	e0bffe17 	ldw	r2,-8(fp)
  803e50:	10800043 	ldbu	r2,1(r2)
  803e54:	10803fcc 	andi	r2,r2,255
  803e58:	1009883a 	mov	r4,r2
  803e5c:	0800dc40 	call	800dc4 <ffs_DiskIOStatus>
  803e60:	10803fcc 	andi	r2,r2,255
  803e64:	1080004c 	andi	r2,r2,1
  803e68:	10000226 	beq	r2,zero,803e74 <validate+0x78>
  803e6c:	008000c4 	movi	r2,3
  803e70:	00000106 	br	803e78 <validate+0x7c>
  803e74:	0005883a 	mov	r2,zero
  803e78:	e037883a 	mov	sp,fp
  803e7c:	dfc00117 	ldw	ra,4(sp)
  803e80:	df000017 	ldw	fp,0(sp)
  803e84:	dec00204 	addi	sp,sp,8
  803e88:	f800283a 	ret

00803e8c <f_mount>:
  803e8c:	defffc04 	addi	sp,sp,-16
  803e90:	df000315 	stw	fp,12(sp)
  803e94:	df000304 	addi	fp,sp,12
  803e98:	2005883a 	mov	r2,r4
  803e9c:	e17fff15 	stw	r5,-4(fp)
  803ea0:	e0bffe05 	stb	r2,-8(fp)
  803ea4:	e0bffe03 	ldbu	r2,-8(fp)
  803ea8:	10000226 	beq	r2,zero,803eb4 <f_mount+0x28>
  803eac:	008002c4 	movi	r2,11
  803eb0:	00001706 	br	803f10 <f_mount+0x84>
  803eb4:	e0bffe03 	ldbu	r2,-8(fp)
  803eb8:	1085883a 	add	r2,r2,r2
  803ebc:	1087883a 	add	r3,r2,r2
  803ec0:	d0a35f04 	addi	r2,gp,-29316
  803ec4:	1885883a 	add	r2,r3,r2
  803ec8:	10800017 	ldw	r2,0(r2)
  803ecc:	e0bffd15 	stw	r2,-12(fp)
  803ed0:	e0bffd17 	ldw	r2,-12(fp)
  803ed4:	10000226 	beq	r2,zero,803ee0 <f_mount+0x54>
  803ed8:	e0bffd17 	ldw	r2,-12(fp)
  803edc:	10000005 	stb	zero,0(r2)
  803ee0:	e0bfff17 	ldw	r2,-4(fp)
  803ee4:	10000226 	beq	r2,zero,803ef0 <f_mount+0x64>
  803ee8:	e0bfff17 	ldw	r2,-4(fp)
  803eec:	10000005 	stb	zero,0(r2)
  803ef0:	e0bffe03 	ldbu	r2,-8(fp)
  803ef4:	1085883a 	add	r2,r2,r2
  803ef8:	1087883a 	add	r3,r2,r2
  803efc:	d0a35f04 	addi	r2,gp,-29316
  803f00:	1885883a 	add	r2,r3,r2
  803f04:	e0ffff17 	ldw	r3,-4(fp)
  803f08:	10c00015 	stw	r3,0(r2)
  803f0c:	0005883a 	mov	r2,zero
  803f10:	e037883a 	mov	sp,fp
  803f14:	df000017 	ldw	fp,0(sp)
  803f18:	dec00104 	addi	sp,sp,4
  803f1c:	f800283a 	ret

00803f20 <f_open>:
  803f20:	deffed04 	addi	sp,sp,-76
  803f24:	dfc01215 	stw	ra,72(sp)
  803f28:	df001115 	stw	fp,68(sp)
  803f2c:	df001104 	addi	fp,sp,68
  803f30:	e13ffd15 	stw	r4,-12(fp)
  803f34:	e17ffe15 	stw	r5,-8(fp)
  803f38:	3005883a 	mov	r2,r6
  803f3c:	e0bfff05 	stb	r2,-4(fp)
  803f40:	e0bffd17 	ldw	r2,-12(fp)
  803f44:	10000015 	stw	zero,0(r2)
  803f48:	e0bfff03 	ldbu	r2,-4(fp)
  803f4c:	108007cc 	andi	r2,r2,31
  803f50:	e0bfff05 	stb	r2,-4(fp)
  803f54:	e0bfff03 	ldbu	r2,-4(fp)
  803f58:	10803f8c 	andi	r2,r2,254
  803f5c:	e13ffe04 	addi	r4,fp,-8
  803f60:	e0fff304 	addi	r3,fp,-52
  803f64:	180b883a 	mov	r5,r3
  803f68:	100d883a 	mov	r6,r2
  803f6c:	08034c00 	call	8034c0 <chk_mounted>
  803f70:	e0bfef15 	stw	r2,-68(fp)
  803f74:	e0bffa04 	addi	r2,fp,-24
  803f78:	e0bff915 	stw	r2,-28(fp)
  803f7c:	e0bfef17 	ldw	r2,-68(fp)
  803f80:	1000061e 	bne	r2,zero,803f9c <f_open+0x7c>
  803f84:	e0bffe17 	ldw	r2,-8(fp)
  803f88:	e0fff304 	addi	r3,fp,-52
  803f8c:	1809883a 	mov	r4,r3
  803f90:	100b883a 	mov	r5,r2
  803f94:	080317c0 	call	80317c <follow_path>
  803f98:	e0bfef15 	stw	r2,-68(fp)
  803f9c:	e0bff817 	ldw	r2,-32(fp)
  803fa0:	e0bff015 	stw	r2,-64(fp)
  803fa4:	e0bfef17 	ldw	r2,-68(fp)
  803fa8:	1000041e 	bne	r2,zero,803fbc <f_open+0x9c>
  803fac:	e0bff017 	ldw	r2,-64(fp)
  803fb0:	1000021e 	bne	r2,zero,803fbc <f_open+0x9c>
  803fb4:	00800184 	movi	r2,6
  803fb8:	e0bfef15 	stw	r2,-68(fp)
  803fbc:	e0bfff03 	ldbu	r2,-4(fp)
  803fc0:	1080070c 	andi	r2,r2,28
  803fc4:	10008826 	beq	r2,zero,8041e8 <f_open+0x2c8>
  803fc8:	e0bfef17 	ldw	r2,-68(fp)
  803fcc:	10000d26 	beq	r2,zero,804004 <f_open+0xe4>
  803fd0:	e0bfef17 	ldw	r2,-68(fp)
  803fd4:	10800118 	cmpnei	r2,r2,4
  803fd8:	1000041e 	bne	r2,zero,803fec <f_open+0xcc>
  803fdc:	e0bff304 	addi	r2,fp,-52
  803fe0:	1009883a 	mov	r4,r2
  803fe4:	0802aa80 	call	802aa8 <dir_register>
  803fe8:	e0bfef15 	stw	r2,-68(fp)
  803fec:	e0bfff03 	ldbu	r2,-4(fp)
  803ff0:	10800214 	ori	r2,r2,8
  803ff4:	e0bfff05 	stb	r2,-4(fp)
  803ff8:	e0bff817 	ldw	r2,-32(fp)
  803ffc:	e0bff015 	stw	r2,-64(fp)
  804000:	00000e06 	br	80403c <f_open+0x11c>
  804004:	e0bff017 	ldw	r2,-64(fp)
  804008:	108002c4 	addi	r2,r2,11
  80400c:	10800003 	ldbu	r2,0(r2)
  804010:	10803fcc 	andi	r2,r2,255
  804014:	1080044c 	andi	r2,r2,17
  804018:	10000326 	beq	r2,zero,804028 <f_open+0x108>
  80401c:	008001c4 	movi	r2,7
  804020:	e0bfef15 	stw	r2,-68(fp)
  804024:	00000506 	br	80403c <f_open+0x11c>
  804028:	e0bfff03 	ldbu	r2,-4(fp)
  80402c:	1080010c 	andi	r2,r2,4
  804030:	10000226 	beq	r2,zero,80403c <f_open+0x11c>
  804034:	00800204 	movi	r2,8
  804038:	e0bfef15 	stw	r2,-68(fp)
  80403c:	e0bfef17 	ldw	r2,-68(fp)
  804040:	1000681e 	bne	r2,zero,8041e4 <f_open+0x2c4>
  804044:	e0bfff03 	ldbu	r2,-4(fp)
  804048:	1080020c 	andi	r2,r2,8
  80404c:	10006526 	beq	r2,zero,8041e4 <f_open+0x2c4>
  804050:	080151c0 	call	80151c <get_fattime>
  804054:	e0bff115 	stw	r2,-60(fp)
  804058:	e0bff017 	ldw	r2,-64(fp)
  80405c:	10800384 	addi	r2,r2,14
  804060:	e0fff117 	ldw	r3,-60(fp)
  804064:	10c00005 	stb	r3,0(r2)
  804068:	e0bff017 	ldw	r2,-64(fp)
  80406c:	108003c4 	addi	r2,r2,15
  804070:	e0fff117 	ldw	r3,-60(fp)
  804074:	18ffffcc 	andi	r3,r3,65535
  804078:	1806d23a 	srli	r3,r3,8
  80407c:	10c00005 	stb	r3,0(r2)
  804080:	e0bff017 	ldw	r2,-64(fp)
  804084:	10800404 	addi	r2,r2,16
  804088:	e0fff117 	ldw	r3,-60(fp)
  80408c:	1806d43a 	srli	r3,r3,16
  804090:	10c00005 	stb	r3,0(r2)
  804094:	e0bff017 	ldw	r2,-64(fp)
  804098:	10800444 	addi	r2,r2,17
  80409c:	e0fff117 	ldw	r3,-60(fp)
  8040a0:	1806d63a 	srli	r3,r3,24
  8040a4:	10c00005 	stb	r3,0(r2)
  8040a8:	e0bff017 	ldw	r2,-64(fp)
  8040ac:	108002c4 	addi	r2,r2,11
  8040b0:	10000005 	stb	zero,0(r2)
  8040b4:	e0bff017 	ldw	r2,-64(fp)
  8040b8:	10800704 	addi	r2,r2,28
  8040bc:	10000005 	stb	zero,0(r2)
  8040c0:	e0bff017 	ldw	r2,-64(fp)
  8040c4:	10800744 	addi	r2,r2,29
  8040c8:	10000005 	stb	zero,0(r2)
  8040cc:	e0bff017 	ldw	r2,-64(fp)
  8040d0:	10800784 	addi	r2,r2,30
  8040d4:	10000005 	stb	zero,0(r2)
  8040d8:	e0bff017 	ldw	r2,-64(fp)
  8040dc:	108007c4 	addi	r2,r2,31
  8040e0:	10000005 	stb	zero,0(r2)
  8040e4:	e0bff017 	ldw	r2,-64(fp)
  8040e8:	10800544 	addi	r2,r2,21
  8040ec:	10800003 	ldbu	r2,0(r2)
  8040f0:	10803fcc 	andi	r2,r2,255
  8040f4:	1004923a 	slli	r2,r2,8
  8040f8:	1007883a 	mov	r3,r2
  8040fc:	e0bff017 	ldw	r2,-64(fp)
  804100:	10800504 	addi	r2,r2,20
  804104:	10800003 	ldbu	r2,0(r2)
  804108:	10803fcc 	andi	r2,r2,255
  80410c:	1884b03a 	or	r2,r3,r2
  804110:	10bfffcc 	andi	r2,r2,65535
  804114:	1006943a 	slli	r3,r2,16
  804118:	e0bff017 	ldw	r2,-64(fp)
  80411c:	108006c4 	addi	r2,r2,27
  804120:	10800003 	ldbu	r2,0(r2)
  804124:	10803fcc 	andi	r2,r2,255
  804128:	1004923a 	slli	r2,r2,8
  80412c:	1009883a 	mov	r4,r2
  804130:	e0bff017 	ldw	r2,-64(fp)
  804134:	10800684 	addi	r2,r2,26
  804138:	10800003 	ldbu	r2,0(r2)
  80413c:	10803fcc 	andi	r2,r2,255
  804140:	2084b03a 	or	r2,r4,r2
  804144:	10bfffcc 	andi	r2,r2,65535
  804148:	1884b03a 	or	r2,r3,r2
  80414c:	e0bff215 	stw	r2,-56(fp)
  804150:	e0bff017 	ldw	r2,-64(fp)
  804154:	10800684 	addi	r2,r2,26
  804158:	10000005 	stb	zero,0(r2)
  80415c:	e0bff017 	ldw	r2,-64(fp)
  804160:	108006c4 	addi	r2,r2,27
  804164:	10000005 	stb	zero,0(r2)
  804168:	e0bff017 	ldw	r2,-64(fp)
  80416c:	10800504 	addi	r2,r2,20
  804170:	10000005 	stb	zero,0(r2)
  804174:	e0bff017 	ldw	r2,-64(fp)
  804178:	10800544 	addi	r2,r2,21
  80417c:	10000005 	stb	zero,0(r2)
  804180:	e0bff317 	ldw	r2,-52(fp)
  804184:	00c00044 	movi	r3,1
  804188:	10c00105 	stb	r3,4(r2)
  80418c:	e0bff217 	ldw	r2,-56(fp)
  804190:	10001426 	beq	r2,zero,8041e4 <f_open+0x2c4>
  804194:	e0bff317 	ldw	r2,-52(fp)
  804198:	10800b17 	ldw	r2,44(r2)
  80419c:	e0bff115 	stw	r2,-60(fp)
  8041a0:	e0bff317 	ldw	r2,-52(fp)
  8041a4:	1009883a 	mov	r4,r2
  8041a8:	e17ff217 	ldw	r5,-56(fp)
  8041ac:	08020ec0 	call	8020ec <remove_chain>
  8041b0:	e0bfef15 	stw	r2,-68(fp)
  8041b4:	e0bfef17 	ldw	r2,-68(fp)
  8041b8:	10000a1e 	bne	r2,zero,8041e4 <f_open+0x2c4>
  8041bc:	e0bff317 	ldw	r2,-52(fp)
  8041c0:	e0fff217 	ldw	r3,-56(fp)
  8041c4:	18ffffc4 	addi	r3,r3,-1
  8041c8:	10c00315 	stw	r3,12(r2)
  8041cc:	e0bff317 	ldw	r2,-52(fp)
  8041d0:	1009883a 	mov	r4,r2
  8041d4:	e17ff117 	ldw	r5,-60(fp)
  8041d8:	08017140 	call	801714 <move_window>
  8041dc:	e0bfef15 	stw	r2,-68(fp)
  8041e0:	00001706 	br	804240 <f_open+0x320>
  8041e4:	00001606 	br	804240 <f_open+0x320>
  8041e8:	e0bfef17 	ldw	r2,-68(fp)
  8041ec:	1000141e 	bne	r2,zero,804240 <f_open+0x320>
  8041f0:	e0bff017 	ldw	r2,-64(fp)
  8041f4:	108002c4 	addi	r2,r2,11
  8041f8:	10800003 	ldbu	r2,0(r2)
  8041fc:	10803fcc 	andi	r2,r2,255
  804200:	1080040c 	andi	r2,r2,16
  804204:	10000326 	beq	r2,zero,804214 <f_open+0x2f4>
  804208:	00800104 	movi	r2,4
  80420c:	e0bfef15 	stw	r2,-68(fp)
  804210:	00000b06 	br	804240 <f_open+0x320>
  804214:	e0bfff03 	ldbu	r2,-4(fp)
  804218:	1080008c 	andi	r2,r2,2
  80421c:	10000826 	beq	r2,zero,804240 <f_open+0x320>
  804220:	e0bff017 	ldw	r2,-64(fp)
  804224:	108002c4 	addi	r2,r2,11
  804228:	10800003 	ldbu	r2,0(r2)
  80422c:	10803fcc 	andi	r2,r2,255
  804230:	1080004c 	andi	r2,r2,1
  804234:	10000226 	beq	r2,zero,804240 <f_open+0x320>
  804238:	008001c4 	movi	r2,7
  80423c:	e0bfef15 	stw	r2,-68(fp)
  804240:	e0bfef17 	ldw	r2,-68(fp)
  804244:	10000d1e 	bne	r2,zero,80427c <f_open+0x35c>
  804248:	e0bfff03 	ldbu	r2,-4(fp)
  80424c:	1080020c 	andi	r2,r2,8
  804250:	10000326 	beq	r2,zero,804260 <f_open+0x340>
  804254:	e0bfff03 	ldbu	r2,-4(fp)
  804258:	10800814 	ori	r2,r2,32
  80425c:	e0bfff05 	stb	r2,-4(fp)
  804260:	e0bff317 	ldw	r2,-52(fp)
  804264:	10c00b17 	ldw	r3,44(r2)
  804268:	e0bffd17 	ldw	r2,-12(fp)
  80426c:	10c00715 	stw	r3,28(r2)
  804270:	e0bffd17 	ldw	r2,-12(fp)
  804274:	e0fff017 	ldw	r3,-64(fp)
  804278:	10c00815 	stw	r3,32(r2)
  80427c:	e0bfef17 	ldw	r2,-68(fp)
  804280:	1000421e 	bne	r2,zero,80438c <f_open+0x46c>
  804284:	e0bffd17 	ldw	r2,-12(fp)
  804288:	e0ffff03 	ldbu	r3,-4(fp)
  80428c:	10c00185 	stb	r3,6(r2)
  804290:	e0bff017 	ldw	r2,-64(fp)
  804294:	10800544 	addi	r2,r2,21
  804298:	10800003 	ldbu	r2,0(r2)
  80429c:	10803fcc 	andi	r2,r2,255
  8042a0:	1004923a 	slli	r2,r2,8
  8042a4:	1007883a 	mov	r3,r2
  8042a8:	e0bff017 	ldw	r2,-64(fp)
  8042ac:	10800504 	addi	r2,r2,20
  8042b0:	10800003 	ldbu	r2,0(r2)
  8042b4:	10803fcc 	andi	r2,r2,255
  8042b8:	1884b03a 	or	r2,r3,r2
  8042bc:	10bfffcc 	andi	r2,r2,65535
  8042c0:	1006943a 	slli	r3,r2,16
  8042c4:	e0bff017 	ldw	r2,-64(fp)
  8042c8:	108006c4 	addi	r2,r2,27
  8042cc:	10800003 	ldbu	r2,0(r2)
  8042d0:	10803fcc 	andi	r2,r2,255
  8042d4:	1004923a 	slli	r2,r2,8
  8042d8:	1009883a 	mov	r4,r2
  8042dc:	e0bff017 	ldw	r2,-64(fp)
  8042e0:	10800684 	addi	r2,r2,26
  8042e4:	10800003 	ldbu	r2,0(r2)
  8042e8:	10803fcc 	andi	r2,r2,255
  8042ec:	2084b03a 	or	r2,r4,r2
  8042f0:	10bfffcc 	andi	r2,r2,65535
  8042f4:	1886b03a 	or	r3,r3,r2
  8042f8:	e0bffd17 	ldw	r2,-12(fp)
  8042fc:	10c00415 	stw	r3,16(r2)
  804300:	e0bff017 	ldw	r2,-64(fp)
  804304:	108007c4 	addi	r2,r2,31
  804308:	10800003 	ldbu	r2,0(r2)
  80430c:	10803fcc 	andi	r2,r2,255
  804310:	1006963a 	slli	r3,r2,24
  804314:	e0bff017 	ldw	r2,-64(fp)
  804318:	10800784 	addi	r2,r2,30
  80431c:	10800003 	ldbu	r2,0(r2)
  804320:	10803fcc 	andi	r2,r2,255
  804324:	1004943a 	slli	r2,r2,16
  804328:	1884b03a 	or	r2,r3,r2
  80432c:	e0fff017 	ldw	r3,-64(fp)
  804330:	18c00744 	addi	r3,r3,29
  804334:	18c00003 	ldbu	r3,0(r3)
  804338:	18c03fcc 	andi	r3,r3,255
  80433c:	1806923a 	slli	r3,r3,8
  804340:	10c6b03a 	or	r3,r2,r3
  804344:	e0bff017 	ldw	r2,-64(fp)
  804348:	10800704 	addi	r2,r2,28
  80434c:	10800003 	ldbu	r2,0(r2)
  804350:	10803fcc 	andi	r2,r2,255
  804354:	1886b03a 	or	r3,r3,r2
  804358:	e0bffd17 	ldw	r2,-12(fp)
  80435c:	10c00315 	stw	r3,12(r2)
  804360:	e0bffd17 	ldw	r2,-12(fp)
  804364:	10000215 	stw	zero,8(r2)
  804368:	e0bffd17 	ldw	r2,-12(fp)
  80436c:	10000615 	stw	zero,24(r2)
  804370:	e0fff317 	ldw	r3,-52(fp)
  804374:	e0bffd17 	ldw	r2,-12(fp)
  804378:	10c00015 	stw	r3,0(r2)
  80437c:	e0bff317 	ldw	r2,-52(fp)
  804380:	10c0018b 	ldhu	r3,6(r2)
  804384:	e0bffd17 	ldw	r2,-12(fp)
  804388:	10c0010d 	sth	r3,4(r2)
  80438c:	e0bfef17 	ldw	r2,-68(fp)
  804390:	e037883a 	mov	sp,fp
  804394:	dfc00117 	ldw	ra,4(sp)
  804398:	df000017 	ldw	fp,0(sp)
  80439c:	dec00204 	addi	sp,sp,8
  8043a0:	f800283a 	ret

008043a4 <f_read>:
  8043a4:	defff204 	addi	sp,sp,-56
  8043a8:	dfc00d15 	stw	ra,52(sp)
  8043ac:	df000c15 	stw	fp,48(sp)
  8043b0:	df000c04 	addi	fp,sp,48
  8043b4:	e13ffc15 	stw	r4,-16(fp)
  8043b8:	e17ffd15 	stw	r5,-12(fp)
  8043bc:	e1bffe15 	stw	r6,-8(fp)
  8043c0:	e1ffff15 	stw	r7,-4(fp)
  8043c4:	e0bffd17 	ldw	r2,-12(fp)
  8043c8:	e0bff715 	stw	r2,-36(fp)
  8043cc:	e0bfff17 	ldw	r2,-4(fp)
  8043d0:	10000015 	stw	zero,0(r2)
  8043d4:	e0bffc17 	ldw	r2,-16(fp)
  8043d8:	10c00017 	ldw	r3,0(r2)
  8043dc:	e0bffc17 	ldw	r2,-16(fp)
  8043e0:	1080010b 	ldhu	r2,4(r2)
  8043e4:	10bfffcc 	andi	r2,r2,65535
  8043e8:	1809883a 	mov	r4,r3
  8043ec:	100b883a 	mov	r5,r2
  8043f0:	0803dfc0 	call	803dfc <validate>
  8043f4:	e0bff815 	stw	r2,-32(fp)
  8043f8:	e0bff817 	ldw	r2,-32(fp)
  8043fc:	10000226 	beq	r2,zero,804408 <f_read+0x64>
  804400:	e0bff817 	ldw	r2,-32(fp)
  804404:	00011b06 	br	804874 <f_read+0x4d0>
  804408:	e0bffc17 	ldw	r2,-16(fp)
  80440c:	10800183 	ldbu	r2,6(r2)
  804410:	10803fcc 	andi	r2,r2,255
  804414:	1080201c 	xori	r2,r2,128
  804418:	10bfe004 	addi	r2,r2,-128
  80441c:	1000020e 	bge	r2,zero,804428 <f_read+0x84>
  804420:	00800084 	movi	r2,2
  804424:	00011306 	br	804874 <f_read+0x4d0>
  804428:	e0bffc17 	ldw	r2,-16(fp)
  80442c:	10800183 	ldbu	r2,6(r2)
  804430:	10803fcc 	andi	r2,r2,255
  804434:	1080004c 	andi	r2,r2,1
  804438:	1000021e 	bne	r2,zero,804444 <f_read+0xa0>
  80443c:	008001c4 	movi	r2,7
  804440:	00010c06 	br	804874 <f_read+0x4d0>
  804444:	e0bffc17 	ldw	r2,-16(fp)
  804448:	10c00317 	ldw	r3,12(r2)
  80444c:	e0bffc17 	ldw	r2,-16(fp)
  804450:	10800217 	ldw	r2,8(r2)
  804454:	1885c83a 	sub	r2,r3,r2
  804458:	e0bff915 	stw	r2,-28(fp)
  80445c:	e0bffe17 	ldw	r2,-8(fp)
  804460:	e0fff917 	ldw	r3,-28(fp)
  804464:	1880022e 	bgeu	r3,r2,804470 <f_read+0xcc>
  804468:	e0bff917 	ldw	r2,-28(fp)
  80446c:	e0bffe15 	stw	r2,-8(fp)
  804470:	0000fd06 	br	804868 <f_read+0x4c4>
  804474:	e0bffc17 	ldw	r2,-16(fp)
  804478:	10800217 	ldw	r2,8(r2)
  80447c:	10807fcc 	andi	r2,r2,511
  804480:	1000d01e 	bne	r2,zero,8047c4 <f_read+0x420>
  804484:	e0bffc17 	ldw	r2,-16(fp)
  804488:	10800217 	ldw	r2,8(r2)
  80448c:	1004d27a 	srli	r2,r2,9
  804490:	1007883a 	mov	r3,r2
  804494:	e0bffc17 	ldw	r2,-16(fp)
  804498:	10800017 	ldw	r2,0(r2)
  80449c:	10800083 	ldbu	r2,2(r2)
  8044a0:	10bfffc4 	addi	r2,r2,-1
  8044a4:	1884703a 	and	r2,r3,r2
  8044a8:	e0bffa05 	stb	r2,-24(fp)
  8044ac:	e0bffa03 	ldbu	r2,-24(fp)
  8044b0:	10002a1e 	bne	r2,zero,80455c <f_read+0x1b8>
  8044b4:	e0bffc17 	ldw	r2,-16(fp)
  8044b8:	10800217 	ldw	r2,8(r2)
  8044bc:	1000041e 	bne	r2,zero,8044d0 <f_read+0x12c>
  8044c0:	e0bffc17 	ldw	r2,-16(fp)
  8044c4:	10800417 	ldw	r2,16(r2)
  8044c8:	e0bff415 	stw	r2,-48(fp)
  8044cc:	00000806 	br	8044f0 <f_read+0x14c>
  8044d0:	e0bffc17 	ldw	r2,-16(fp)
  8044d4:	10c00017 	ldw	r3,0(r2)
  8044d8:	e0bffc17 	ldw	r2,-16(fp)
  8044dc:	10800517 	ldw	r2,20(r2)
  8044e0:	1809883a 	mov	r4,r3
  8044e4:	100b883a 	mov	r5,r2
  8044e8:	0801af80 	call	801af8 <get_fat>
  8044ec:	e0bff415 	stw	r2,-48(fp)
  8044f0:	e0bff417 	ldw	r2,-48(fp)
  8044f4:	108000a8 	cmpgeui	r2,r2,2
  8044f8:	1000091e 	bne	r2,zero,804520 <f_read+0x17c>
  8044fc:	e0bffc17 	ldw	r2,-16(fp)
  804500:	10c00183 	ldbu	r3,6(r2)
  804504:	00bfe004 	movi	r2,-128
  804508:	1884b03a 	or	r2,r3,r2
  80450c:	1007883a 	mov	r3,r2
  804510:	e0bffc17 	ldw	r2,-16(fp)
  804514:	10c00185 	stb	r3,6(r2)
  804518:	00800084 	movi	r2,2
  80451c:	0000d506 	br	804874 <f_read+0x4d0>
  804520:	e0bff417 	ldw	r2,-48(fp)
  804524:	10bfffd8 	cmpnei	r2,r2,-1
  804528:	1000091e 	bne	r2,zero,804550 <f_read+0x1ac>
  80452c:	e0bffc17 	ldw	r2,-16(fp)
  804530:	10c00183 	ldbu	r3,6(r2)
  804534:	00bfe004 	movi	r2,-128
  804538:	1884b03a 	or	r2,r3,r2
  80453c:	1007883a 	mov	r3,r2
  804540:	e0bffc17 	ldw	r2,-16(fp)
  804544:	10c00185 	stb	r3,6(r2)
  804548:	00800044 	movi	r2,1
  80454c:	0000c906 	br	804874 <f_read+0x4d0>
  804550:	e0bffc17 	ldw	r2,-16(fp)
  804554:	e0fff417 	ldw	r3,-48(fp)
  804558:	10c00515 	stw	r3,20(r2)
  80455c:	e0bffc17 	ldw	r2,-16(fp)
  804560:	10c00017 	ldw	r3,0(r2)
  804564:	e0bffc17 	ldw	r2,-16(fp)
  804568:	10800517 	ldw	r2,20(r2)
  80456c:	1809883a 	mov	r4,r3
  804570:	100b883a 	mov	r5,r2
  804574:	0801a8c0 	call	801a8c <clust2sect>
  804578:	e0bffb15 	stw	r2,-20(fp)
  80457c:	e0bffb17 	ldw	r2,-20(fp)
  804580:	1000091e 	bne	r2,zero,8045a8 <f_read+0x204>
  804584:	e0bffc17 	ldw	r2,-16(fp)
  804588:	10c00183 	ldbu	r3,6(r2)
  80458c:	00bfe004 	movi	r2,-128
  804590:	1884b03a 	or	r2,r3,r2
  804594:	1007883a 	mov	r3,r2
  804598:	e0bffc17 	ldw	r2,-16(fp)
  80459c:	10c00185 	stb	r3,6(r2)
  8045a0:	00800084 	movi	r2,2
  8045a4:	0000b306 	br	804874 <f_read+0x4d0>
  8045a8:	e0bffa03 	ldbu	r2,-24(fp)
  8045ac:	e0fffb17 	ldw	r3,-20(fp)
  8045b0:	1885883a 	add	r2,r3,r2
  8045b4:	e0bffb15 	stw	r2,-20(fp)
  8045b8:	e0bffe17 	ldw	r2,-8(fp)
  8045bc:	1004d27a 	srli	r2,r2,9
  8045c0:	e0bff615 	stw	r2,-40(fp)
  8045c4:	e0bff617 	ldw	r2,-40(fp)
  8045c8:	10004026 	beq	r2,zero,8046cc <f_read+0x328>
  8045cc:	e0fffa03 	ldbu	r3,-24(fp)
  8045d0:	e0bff617 	ldw	r2,-40(fp)
  8045d4:	1885883a 	add	r2,r3,r2
  8045d8:	e0fffc17 	ldw	r3,-16(fp)
  8045dc:	18c00017 	ldw	r3,0(r3)
  8045e0:	18c00083 	ldbu	r3,2(r3)
  8045e4:	18c03fcc 	andi	r3,r3,255
  8045e8:	1880072e 	bgeu	r3,r2,804608 <f_read+0x264>
  8045ec:	e0bffc17 	ldw	r2,-16(fp)
  8045f0:	10800017 	ldw	r2,0(r2)
  8045f4:	10800083 	ldbu	r2,2(r2)
  8045f8:	10c03fcc 	andi	r3,r2,255
  8045fc:	e0bffa03 	ldbu	r2,-24(fp)
  804600:	1885c83a 	sub	r2,r3,r2
  804604:	e0bff615 	stw	r2,-40(fp)
  804608:	e0bffc17 	ldw	r2,-16(fp)
  80460c:	10800017 	ldw	r2,0(r2)
  804610:	10800043 	ldbu	r2,1(r2)
  804614:	10c03fcc 	andi	r3,r2,255
  804618:	e0bff617 	ldw	r2,-40(fp)
  80461c:	10803fcc 	andi	r2,r2,255
  804620:	1809883a 	mov	r4,r3
  804624:	e17ff717 	ldw	r5,-36(fp)
  804628:	e1bffb17 	ldw	r6,-20(fp)
  80462c:	100f883a 	mov	r7,r2
  804630:	0800dec0 	call	800dec <ffs_DiskIORead>
  804634:	10000926 	beq	r2,zero,80465c <f_read+0x2b8>
  804638:	e0bffc17 	ldw	r2,-16(fp)
  80463c:	10c00183 	ldbu	r3,6(r2)
  804640:	00bfe004 	movi	r2,-128
  804644:	1884b03a 	or	r2,r3,r2
  804648:	1007883a 	mov	r3,r2
  80464c:	e0bffc17 	ldw	r2,-16(fp)
  804650:	10c00185 	stb	r3,6(r2)
  804654:	00800044 	movi	r2,1
  804658:	00008606 	br	804874 <f_read+0x4d0>
  80465c:	e0bffc17 	ldw	r2,-16(fp)
  804660:	10800183 	ldbu	r2,6(r2)
  804664:	10803fcc 	andi	r2,r2,255
  804668:	1080100c 	andi	r2,r2,64
  80466c:	10001326 	beq	r2,zero,8046bc <f_read+0x318>
  804670:	e0bffc17 	ldw	r2,-16(fp)
  804674:	10c00617 	ldw	r3,24(r2)
  804678:	e0bffb17 	ldw	r2,-20(fp)
  80467c:	1887c83a 	sub	r3,r3,r2
  804680:	e0bff617 	ldw	r2,-40(fp)
  804684:	18800d2e 	bgeu	r3,r2,8046bc <f_read+0x318>
  804688:	e0bffc17 	ldw	r2,-16(fp)
  80468c:	10c00617 	ldw	r3,24(r2)
  804690:	e0bffb17 	ldw	r2,-20(fp)
  804694:	1885c83a 	sub	r2,r3,r2
  804698:	1004927a 	slli	r2,r2,9
  80469c:	e0fff717 	ldw	r3,-36(fp)
  8046a0:	1887883a 	add	r3,r3,r2
  8046a4:	e0bffc17 	ldw	r2,-16(fp)
  8046a8:	10800904 	addi	r2,r2,36
  8046ac:	1809883a 	mov	r4,r3
  8046b0:	100b883a 	mov	r5,r2
  8046b4:	01808004 	movi	r6,512
  8046b8:	08015480 	call	801548 <mem_cpy>
  8046bc:	e0bff617 	ldw	r2,-40(fp)
  8046c0:	1004927a 	slli	r2,r2,9
  8046c4:	e0bff515 	stw	r2,-44(fp)
  8046c8:	00005306 	br	804818 <f_read+0x474>
  8046cc:	e0bffc17 	ldw	r2,-16(fp)
  8046d0:	10c00617 	ldw	r3,24(r2)
  8046d4:	e0bffb17 	ldw	r2,-20(fp)
  8046d8:	18803726 	beq	r3,r2,8047b8 <f_read+0x414>
  8046dc:	e0bffc17 	ldw	r2,-16(fp)
  8046e0:	10800183 	ldbu	r2,6(r2)
  8046e4:	10803fcc 	andi	r2,r2,255
  8046e8:	1080100c 	andi	r2,r2,64
  8046ec:	10001d26 	beq	r2,zero,804764 <f_read+0x3c0>
  8046f0:	e0bffc17 	ldw	r2,-16(fp)
  8046f4:	10800017 	ldw	r2,0(r2)
  8046f8:	10800043 	ldbu	r2,1(r2)
  8046fc:	11003fcc 	andi	r4,r2,255
  804700:	e0bffc17 	ldw	r2,-16(fp)
  804704:	10c00904 	addi	r3,r2,36
  804708:	e0bffc17 	ldw	r2,-16(fp)
  80470c:	10800617 	ldw	r2,24(r2)
  804710:	180b883a 	mov	r5,r3
  804714:	100d883a 	mov	r6,r2
  804718:	01c00044 	movi	r7,1
  80471c:	0800f080 	call	800f08 <ffs_DiskIOWrite>
  804720:	10000926 	beq	r2,zero,804748 <f_read+0x3a4>
  804724:	e0bffc17 	ldw	r2,-16(fp)
  804728:	10c00183 	ldbu	r3,6(r2)
  80472c:	00bfe004 	movi	r2,-128
  804730:	1884b03a 	or	r2,r3,r2
  804734:	1007883a 	mov	r3,r2
  804738:	e0bffc17 	ldw	r2,-16(fp)
  80473c:	10c00185 	stb	r3,6(r2)
  804740:	00800044 	movi	r2,1
  804744:	00004b06 	br	804874 <f_read+0x4d0>
  804748:	e0bffc17 	ldw	r2,-16(fp)
  80474c:	10c00183 	ldbu	r3,6(r2)
  804750:	00bfefc4 	movi	r2,-65
  804754:	1884703a 	and	r2,r3,r2
  804758:	1007883a 	mov	r3,r2
  80475c:	e0bffc17 	ldw	r2,-16(fp)
  804760:	10c00185 	stb	r3,6(r2)
  804764:	e0bffc17 	ldw	r2,-16(fp)
  804768:	10800017 	ldw	r2,0(r2)
  80476c:	10800043 	ldbu	r2,1(r2)
  804770:	10c03fcc 	andi	r3,r2,255
  804774:	e0bffc17 	ldw	r2,-16(fp)
  804778:	10800904 	addi	r2,r2,36
  80477c:	1809883a 	mov	r4,r3
  804780:	100b883a 	mov	r5,r2
  804784:	e1bffb17 	ldw	r6,-20(fp)
  804788:	01c00044 	movi	r7,1
  80478c:	0800dec0 	call	800dec <ffs_DiskIORead>
  804790:	10000926 	beq	r2,zero,8047b8 <f_read+0x414>
  804794:	e0bffc17 	ldw	r2,-16(fp)
  804798:	10c00183 	ldbu	r3,6(r2)
  80479c:	00bfe004 	movi	r2,-128
  8047a0:	1884b03a 	or	r2,r3,r2
  8047a4:	1007883a 	mov	r3,r2
  8047a8:	e0bffc17 	ldw	r2,-16(fp)
  8047ac:	10c00185 	stb	r3,6(r2)
  8047b0:	00800044 	movi	r2,1
  8047b4:	00002f06 	br	804874 <f_read+0x4d0>
  8047b8:	e0bffc17 	ldw	r2,-16(fp)
  8047bc:	e0fffb17 	ldw	r3,-20(fp)
  8047c0:	10c00615 	stw	r3,24(r2)
  8047c4:	e0bffc17 	ldw	r2,-16(fp)
  8047c8:	10800217 	ldw	r2,8(r2)
  8047cc:	10807fcc 	andi	r2,r2,511
  8047d0:	00c08004 	movi	r3,512
  8047d4:	1885c83a 	sub	r2,r3,r2
  8047d8:	e0bff515 	stw	r2,-44(fp)
  8047dc:	e0bff517 	ldw	r2,-44(fp)
  8047e0:	e0fffe17 	ldw	r3,-8(fp)
  8047e4:	1880022e 	bgeu	r3,r2,8047f0 <f_read+0x44c>
  8047e8:	e0bffe17 	ldw	r2,-8(fp)
  8047ec:	e0bff515 	stw	r2,-44(fp)
  8047f0:	e0bffc17 	ldw	r2,-16(fp)
  8047f4:	10800217 	ldw	r2,8(r2)
  8047f8:	10807fcc 	andi	r2,r2,511
  8047fc:	10800904 	addi	r2,r2,36
  804800:	e0fffc17 	ldw	r3,-16(fp)
  804804:	1885883a 	add	r2,r3,r2
  804808:	e13ff717 	ldw	r4,-36(fp)
  80480c:	100b883a 	mov	r5,r2
  804810:	e1bff517 	ldw	r6,-44(fp)
  804814:	08015480 	call	801548 <mem_cpy>
  804818:	e0fff717 	ldw	r3,-36(fp)
  80481c:	e0bff517 	ldw	r2,-44(fp)
  804820:	1885883a 	add	r2,r3,r2
  804824:	e0bff715 	stw	r2,-36(fp)
  804828:	e0bffc17 	ldw	r2,-16(fp)
  80482c:	10c00217 	ldw	r3,8(r2)
  804830:	e0bff517 	ldw	r2,-44(fp)
  804834:	1887883a 	add	r3,r3,r2
  804838:	e0bffc17 	ldw	r2,-16(fp)
  80483c:	10c00215 	stw	r3,8(r2)
  804840:	e0bfff17 	ldw	r2,-4(fp)
  804844:	10c00017 	ldw	r3,0(r2)
  804848:	e0bff517 	ldw	r2,-44(fp)
  80484c:	1887883a 	add	r3,r3,r2
  804850:	e0bfff17 	ldw	r2,-4(fp)
  804854:	10c00015 	stw	r3,0(r2)
  804858:	e0fffe17 	ldw	r3,-8(fp)
  80485c:	e0bff517 	ldw	r2,-44(fp)
  804860:	1885c83a 	sub	r2,r3,r2
  804864:	e0bffe15 	stw	r2,-8(fp)
  804868:	e0bffe17 	ldw	r2,-8(fp)
  80486c:	103f011e 	bne	r2,zero,804474 <__alt_data_end+0xff804474>
  804870:	0005883a 	mov	r2,zero
  804874:	e037883a 	mov	sp,fp
  804878:	dfc00117 	ldw	ra,4(sp)
  80487c:	df000017 	ldw	fp,0(sp)
  804880:	dec00204 	addi	sp,sp,8
  804884:	f800283a 	ret

00804888 <f_write>:
  804888:	defff304 	addi	sp,sp,-52
  80488c:	dfc00c15 	stw	ra,48(sp)
  804890:	df000b15 	stw	fp,44(sp)
  804894:	df000b04 	addi	fp,sp,44
  804898:	e13ffc15 	stw	r4,-16(fp)
  80489c:	e17ffd15 	stw	r5,-12(fp)
  8048a0:	e1bffe15 	stw	r6,-8(fp)
  8048a4:	e1ffff15 	stw	r7,-4(fp)
  8048a8:	e0bffd17 	ldw	r2,-12(fp)
  8048ac:	e0bff815 	stw	r2,-32(fp)
  8048b0:	e0bfff17 	ldw	r2,-4(fp)
  8048b4:	10000015 	stw	zero,0(r2)
  8048b8:	e0bffc17 	ldw	r2,-16(fp)
  8048bc:	10c00017 	ldw	r3,0(r2)
  8048c0:	e0bffc17 	ldw	r2,-16(fp)
  8048c4:	1080010b 	ldhu	r2,4(r2)
  8048c8:	10bfffcc 	andi	r2,r2,65535
  8048cc:	1809883a 	mov	r4,r3
  8048d0:	100b883a 	mov	r5,r2
  8048d4:	0803dfc0 	call	803dfc <validate>
  8048d8:	e0bff915 	stw	r2,-28(fp)
  8048dc:	e0bff917 	ldw	r2,-28(fp)
  8048e0:	10000226 	beq	r2,zero,8048ec <f_write+0x64>
  8048e4:	e0bff917 	ldw	r2,-28(fp)
  8048e8:	00014106 	br	804df0 <f_write+0x568>
  8048ec:	e0bffc17 	ldw	r2,-16(fp)
  8048f0:	10800183 	ldbu	r2,6(r2)
  8048f4:	10803fcc 	andi	r2,r2,255
  8048f8:	1080201c 	xori	r2,r2,128
  8048fc:	10bfe004 	addi	r2,r2,-128
  804900:	1000020e 	bge	r2,zero,80490c <f_write+0x84>
  804904:	00800084 	movi	r2,2
  804908:	00013906 	br	804df0 <f_write+0x568>
  80490c:	e0bffc17 	ldw	r2,-16(fp)
  804910:	10800183 	ldbu	r2,6(r2)
  804914:	10803fcc 	andi	r2,r2,255
  804918:	1080008c 	andi	r2,r2,2
  80491c:	1000021e 	bne	r2,zero,804928 <f_write+0xa0>
  804920:	008001c4 	movi	r2,7
  804924:	00013206 	br	804df0 <f_write+0x568>
  804928:	e0bffc17 	ldw	r2,-16(fp)
  80492c:	10c00317 	ldw	r3,12(r2)
  804930:	e0bffe17 	ldw	r2,-8(fp)
  804934:	1887883a 	add	r3,r3,r2
  804938:	e0bffc17 	ldw	r2,-16(fp)
  80493c:	10800317 	ldw	r2,12(r2)
  804940:	1880012e 	bgeu	r3,r2,804948 <f_write+0xc0>
  804944:	e03ffe15 	stw	zero,-8(fp)
  804948:	00011706 	br	804da8 <f_write+0x520>
  80494c:	e0bffc17 	ldw	r2,-16(fp)
  804950:	10800217 	ldw	r2,8(r2)
  804954:	10807fcc 	andi	r2,r2,511
  804958:	1000e41e 	bne	r2,zero,804cec <f_write+0x464>
  80495c:	e0bffc17 	ldw	r2,-16(fp)
  804960:	10800217 	ldw	r2,8(r2)
  804964:	1004d27a 	srli	r2,r2,9
  804968:	1007883a 	mov	r3,r2
  80496c:	e0bffc17 	ldw	r2,-16(fp)
  804970:	10800017 	ldw	r2,0(r2)
  804974:	10800083 	ldbu	r2,2(r2)
  804978:	10bfffc4 	addi	r2,r2,-1
  80497c:	1884703a 	and	r2,r3,r2
  804980:	e0bffa05 	stb	r2,-24(fp)
  804984:	e0bffa03 	ldbu	r2,-24(fp)
  804988:	1000381e 	bne	r2,zero,804a6c <f_write+0x1e4>
  80498c:	e0bffc17 	ldw	r2,-16(fp)
  804990:	10800217 	ldw	r2,8(r2)
  804994:	10000f1e 	bne	r2,zero,8049d4 <f_write+0x14c>
  804998:	e0bffc17 	ldw	r2,-16(fp)
  80499c:	10800417 	ldw	r2,16(r2)
  8049a0:	e0bff515 	stw	r2,-44(fp)
  8049a4:	e0bff517 	ldw	r2,-44(fp)
  8049a8:	1000121e 	bne	r2,zero,8049f4 <f_write+0x16c>
  8049ac:	e0bffc17 	ldw	r2,-16(fp)
  8049b0:	10800017 	ldw	r2,0(r2)
  8049b4:	1009883a 	mov	r4,r2
  8049b8:	000b883a 	mov	r5,zero
  8049bc:	08022000 	call	802200 <create_chain>
  8049c0:	e0bff515 	stw	r2,-44(fp)
  8049c4:	e0bffc17 	ldw	r2,-16(fp)
  8049c8:	e0fff517 	ldw	r3,-44(fp)
  8049cc:	10c00415 	stw	r3,16(r2)
  8049d0:	00000806 	br	8049f4 <f_write+0x16c>
  8049d4:	e0bffc17 	ldw	r2,-16(fp)
  8049d8:	10c00017 	ldw	r3,0(r2)
  8049dc:	e0bffc17 	ldw	r2,-16(fp)
  8049e0:	10800517 	ldw	r2,20(r2)
  8049e4:	1809883a 	mov	r4,r3
  8049e8:	100b883a 	mov	r5,r2
  8049ec:	08022000 	call	802200 <create_chain>
  8049f0:	e0bff515 	stw	r2,-44(fp)
  8049f4:	e0bff517 	ldw	r2,-44(fp)
  8049f8:	1000011e 	bne	r2,zero,804a00 <f_write+0x178>
  8049fc:	0000ec06 	br	804db0 <f_write+0x528>
  804a00:	e0bff517 	ldw	r2,-44(fp)
  804a04:	10800058 	cmpnei	r2,r2,1
  804a08:	1000091e 	bne	r2,zero,804a30 <f_write+0x1a8>
  804a0c:	e0bffc17 	ldw	r2,-16(fp)
  804a10:	10c00183 	ldbu	r3,6(r2)
  804a14:	00bfe004 	movi	r2,-128
  804a18:	1884b03a 	or	r2,r3,r2
  804a1c:	1007883a 	mov	r3,r2
  804a20:	e0bffc17 	ldw	r2,-16(fp)
  804a24:	10c00185 	stb	r3,6(r2)
  804a28:	00800084 	movi	r2,2
  804a2c:	0000f006 	br	804df0 <f_write+0x568>
  804a30:	e0bff517 	ldw	r2,-44(fp)
  804a34:	10bfffd8 	cmpnei	r2,r2,-1
  804a38:	1000091e 	bne	r2,zero,804a60 <f_write+0x1d8>
  804a3c:	e0bffc17 	ldw	r2,-16(fp)
  804a40:	10c00183 	ldbu	r3,6(r2)
  804a44:	00bfe004 	movi	r2,-128
  804a48:	1884b03a 	or	r2,r3,r2
  804a4c:	1007883a 	mov	r3,r2
  804a50:	e0bffc17 	ldw	r2,-16(fp)
  804a54:	10c00185 	stb	r3,6(r2)
  804a58:	00800044 	movi	r2,1
  804a5c:	0000e406 	br	804df0 <f_write+0x568>
  804a60:	e0bffc17 	ldw	r2,-16(fp)
  804a64:	e0fff517 	ldw	r3,-44(fp)
  804a68:	10c00515 	stw	r3,20(r2)
  804a6c:	e0bffc17 	ldw	r2,-16(fp)
  804a70:	10800183 	ldbu	r2,6(r2)
  804a74:	10803fcc 	andi	r2,r2,255
  804a78:	1080100c 	andi	r2,r2,64
  804a7c:	10001d26 	beq	r2,zero,804af4 <f_write+0x26c>
  804a80:	e0bffc17 	ldw	r2,-16(fp)
  804a84:	10800017 	ldw	r2,0(r2)
  804a88:	10800043 	ldbu	r2,1(r2)
  804a8c:	11003fcc 	andi	r4,r2,255
  804a90:	e0bffc17 	ldw	r2,-16(fp)
  804a94:	10c00904 	addi	r3,r2,36
  804a98:	e0bffc17 	ldw	r2,-16(fp)
  804a9c:	10800617 	ldw	r2,24(r2)
  804aa0:	180b883a 	mov	r5,r3
  804aa4:	100d883a 	mov	r6,r2
  804aa8:	01c00044 	movi	r7,1
  804aac:	0800f080 	call	800f08 <ffs_DiskIOWrite>
  804ab0:	10000926 	beq	r2,zero,804ad8 <f_write+0x250>
  804ab4:	e0bffc17 	ldw	r2,-16(fp)
  804ab8:	10c00183 	ldbu	r3,6(r2)
  804abc:	00bfe004 	movi	r2,-128
  804ac0:	1884b03a 	or	r2,r3,r2
  804ac4:	1007883a 	mov	r3,r2
  804ac8:	e0bffc17 	ldw	r2,-16(fp)
  804acc:	10c00185 	stb	r3,6(r2)
  804ad0:	00800044 	movi	r2,1
  804ad4:	0000c606 	br	804df0 <f_write+0x568>
  804ad8:	e0bffc17 	ldw	r2,-16(fp)
  804adc:	10c00183 	ldbu	r3,6(r2)
  804ae0:	00bfefc4 	movi	r2,-65
  804ae4:	1884703a 	and	r2,r3,r2
  804ae8:	1007883a 	mov	r3,r2
  804aec:	e0bffc17 	ldw	r2,-16(fp)
  804af0:	10c00185 	stb	r3,6(r2)
  804af4:	e0bffc17 	ldw	r2,-16(fp)
  804af8:	10c00017 	ldw	r3,0(r2)
  804afc:	e0bffc17 	ldw	r2,-16(fp)
  804b00:	10800517 	ldw	r2,20(r2)
  804b04:	1809883a 	mov	r4,r3
  804b08:	100b883a 	mov	r5,r2
  804b0c:	0801a8c0 	call	801a8c <clust2sect>
  804b10:	e0bffb15 	stw	r2,-20(fp)
  804b14:	e0bffb17 	ldw	r2,-20(fp)
  804b18:	1000091e 	bne	r2,zero,804b40 <f_write+0x2b8>
  804b1c:	e0bffc17 	ldw	r2,-16(fp)
  804b20:	10c00183 	ldbu	r3,6(r2)
  804b24:	00bfe004 	movi	r2,-128
  804b28:	1884b03a 	or	r2,r3,r2
  804b2c:	1007883a 	mov	r3,r2
  804b30:	e0bffc17 	ldw	r2,-16(fp)
  804b34:	10c00185 	stb	r3,6(r2)
  804b38:	00800084 	movi	r2,2
  804b3c:	0000ac06 	br	804df0 <f_write+0x568>
  804b40:	e0bffa03 	ldbu	r2,-24(fp)
  804b44:	e0fffb17 	ldw	r3,-20(fp)
  804b48:	1885883a 	add	r2,r3,r2
  804b4c:	e0bffb15 	stw	r2,-20(fp)
  804b50:	e0bffe17 	ldw	r2,-8(fp)
  804b54:	1004d27a 	srli	r2,r2,9
  804b58:	e0bff715 	stw	r2,-36(fp)
  804b5c:	e0bff717 	ldw	r2,-36(fp)
  804b60:	10004126 	beq	r2,zero,804c68 <f_write+0x3e0>
  804b64:	e0fffa03 	ldbu	r3,-24(fp)
  804b68:	e0bff717 	ldw	r2,-36(fp)
  804b6c:	1885883a 	add	r2,r3,r2
  804b70:	e0fffc17 	ldw	r3,-16(fp)
  804b74:	18c00017 	ldw	r3,0(r3)
  804b78:	18c00083 	ldbu	r3,2(r3)
  804b7c:	18c03fcc 	andi	r3,r3,255
  804b80:	1880072e 	bgeu	r3,r2,804ba0 <f_write+0x318>
  804b84:	e0bffc17 	ldw	r2,-16(fp)
  804b88:	10800017 	ldw	r2,0(r2)
  804b8c:	10800083 	ldbu	r2,2(r2)
  804b90:	10c03fcc 	andi	r3,r2,255
  804b94:	e0bffa03 	ldbu	r2,-24(fp)
  804b98:	1885c83a 	sub	r2,r3,r2
  804b9c:	e0bff715 	stw	r2,-36(fp)
  804ba0:	e0bffc17 	ldw	r2,-16(fp)
  804ba4:	10800017 	ldw	r2,0(r2)
  804ba8:	10800043 	ldbu	r2,1(r2)
  804bac:	10c03fcc 	andi	r3,r2,255
  804bb0:	e0bff717 	ldw	r2,-36(fp)
  804bb4:	10803fcc 	andi	r2,r2,255
  804bb8:	1809883a 	mov	r4,r3
  804bbc:	e17ff817 	ldw	r5,-32(fp)
  804bc0:	e1bffb17 	ldw	r6,-20(fp)
  804bc4:	100f883a 	mov	r7,r2
  804bc8:	0800f080 	call	800f08 <ffs_DiskIOWrite>
  804bcc:	10000926 	beq	r2,zero,804bf4 <f_write+0x36c>
  804bd0:	e0bffc17 	ldw	r2,-16(fp)
  804bd4:	10c00183 	ldbu	r3,6(r2)
  804bd8:	00bfe004 	movi	r2,-128
  804bdc:	1884b03a 	or	r2,r3,r2
  804be0:	1007883a 	mov	r3,r2
  804be4:	e0bffc17 	ldw	r2,-16(fp)
  804be8:	10c00185 	stb	r3,6(r2)
  804bec:	00800044 	movi	r2,1
  804bf0:	00007f06 	br	804df0 <f_write+0x568>
  804bf4:	e0bffc17 	ldw	r2,-16(fp)
  804bf8:	10c00617 	ldw	r3,24(r2)
  804bfc:	e0bffb17 	ldw	r2,-20(fp)
  804c00:	1887c83a 	sub	r3,r3,r2
  804c04:	e0bff717 	ldw	r2,-36(fp)
  804c08:	1880132e 	bgeu	r3,r2,804c58 <f_write+0x3d0>
  804c0c:	e0bffc17 	ldw	r2,-16(fp)
  804c10:	11000904 	addi	r4,r2,36
  804c14:	e0bffc17 	ldw	r2,-16(fp)
  804c18:	10c00617 	ldw	r3,24(r2)
  804c1c:	e0bffb17 	ldw	r2,-20(fp)
  804c20:	1885c83a 	sub	r2,r3,r2
  804c24:	1004927a 	slli	r2,r2,9
  804c28:	e0fff817 	ldw	r3,-32(fp)
  804c2c:	1885883a 	add	r2,r3,r2
  804c30:	100b883a 	mov	r5,r2
  804c34:	01808004 	movi	r6,512
  804c38:	08015480 	call	801548 <mem_cpy>
  804c3c:	e0bffc17 	ldw	r2,-16(fp)
  804c40:	10c00183 	ldbu	r3,6(r2)
  804c44:	00bfefc4 	movi	r2,-65
  804c48:	1884703a 	and	r2,r3,r2
  804c4c:	1007883a 	mov	r3,r2
  804c50:	e0bffc17 	ldw	r2,-16(fp)
  804c54:	10c00185 	stb	r3,6(r2)
  804c58:	e0bff717 	ldw	r2,-36(fp)
  804c5c:	1004927a 	slli	r2,r2,9
  804c60:	e0bff615 	stw	r2,-40(fp)
  804c64:	00003c06 	br	804d58 <f_write+0x4d0>
  804c68:	e0bffc17 	ldw	r2,-16(fp)
  804c6c:	10c00617 	ldw	r3,24(r2)
  804c70:	e0bffb17 	ldw	r2,-20(fp)
  804c74:	18801a26 	beq	r3,r2,804ce0 <f_write+0x458>
  804c78:	e0bffc17 	ldw	r2,-16(fp)
  804c7c:	10c00217 	ldw	r3,8(r2)
  804c80:	e0bffc17 	ldw	r2,-16(fp)
  804c84:	10800317 	ldw	r2,12(r2)
  804c88:	1880152e 	bgeu	r3,r2,804ce0 <f_write+0x458>
  804c8c:	e0bffc17 	ldw	r2,-16(fp)
  804c90:	10800017 	ldw	r2,0(r2)
  804c94:	10800043 	ldbu	r2,1(r2)
  804c98:	10c03fcc 	andi	r3,r2,255
  804c9c:	e0bffc17 	ldw	r2,-16(fp)
  804ca0:	10800904 	addi	r2,r2,36
  804ca4:	1809883a 	mov	r4,r3
  804ca8:	100b883a 	mov	r5,r2
  804cac:	e1bffb17 	ldw	r6,-20(fp)
  804cb0:	01c00044 	movi	r7,1
  804cb4:	0800dec0 	call	800dec <ffs_DiskIORead>
  804cb8:	10000926 	beq	r2,zero,804ce0 <f_write+0x458>
  804cbc:	e0bffc17 	ldw	r2,-16(fp)
  804cc0:	10c00183 	ldbu	r3,6(r2)
  804cc4:	00bfe004 	movi	r2,-128
  804cc8:	1884b03a 	or	r2,r3,r2
  804ccc:	1007883a 	mov	r3,r2
  804cd0:	e0bffc17 	ldw	r2,-16(fp)
  804cd4:	10c00185 	stb	r3,6(r2)
  804cd8:	00800044 	movi	r2,1
  804cdc:	00004406 	br	804df0 <f_write+0x568>
  804ce0:	e0bffc17 	ldw	r2,-16(fp)
  804ce4:	e0fffb17 	ldw	r3,-20(fp)
  804ce8:	10c00615 	stw	r3,24(r2)
  804cec:	e0bffc17 	ldw	r2,-16(fp)
  804cf0:	10800217 	ldw	r2,8(r2)
  804cf4:	10807fcc 	andi	r2,r2,511
  804cf8:	00c08004 	movi	r3,512
  804cfc:	1885c83a 	sub	r2,r3,r2
  804d00:	e0bff615 	stw	r2,-40(fp)
  804d04:	e0bff617 	ldw	r2,-40(fp)
  804d08:	e0fffe17 	ldw	r3,-8(fp)
  804d0c:	1880022e 	bgeu	r3,r2,804d18 <f_write+0x490>
  804d10:	e0bffe17 	ldw	r2,-8(fp)
  804d14:	e0bff615 	stw	r2,-40(fp)
  804d18:	e0bffc17 	ldw	r2,-16(fp)
  804d1c:	10800217 	ldw	r2,8(r2)
  804d20:	10807fcc 	andi	r2,r2,511
  804d24:	10800904 	addi	r2,r2,36
  804d28:	e0fffc17 	ldw	r3,-16(fp)
  804d2c:	1885883a 	add	r2,r3,r2
  804d30:	1009883a 	mov	r4,r2
  804d34:	e17ff817 	ldw	r5,-32(fp)
  804d38:	e1bff617 	ldw	r6,-40(fp)
  804d3c:	08015480 	call	801548 <mem_cpy>
  804d40:	e0bffc17 	ldw	r2,-16(fp)
  804d44:	10800183 	ldbu	r2,6(r2)
  804d48:	10801014 	ori	r2,r2,64
  804d4c:	1007883a 	mov	r3,r2
  804d50:	e0bffc17 	ldw	r2,-16(fp)
  804d54:	10c00185 	stb	r3,6(r2)
  804d58:	e0fff817 	ldw	r3,-32(fp)
  804d5c:	e0bff617 	ldw	r2,-40(fp)
  804d60:	1885883a 	add	r2,r3,r2
  804d64:	e0bff815 	stw	r2,-32(fp)
  804d68:	e0bffc17 	ldw	r2,-16(fp)
  804d6c:	10c00217 	ldw	r3,8(r2)
  804d70:	e0bff617 	ldw	r2,-40(fp)
  804d74:	1887883a 	add	r3,r3,r2
  804d78:	e0bffc17 	ldw	r2,-16(fp)
  804d7c:	10c00215 	stw	r3,8(r2)
  804d80:	e0bfff17 	ldw	r2,-4(fp)
  804d84:	10c00017 	ldw	r3,0(r2)
  804d88:	e0bff617 	ldw	r2,-40(fp)
  804d8c:	1887883a 	add	r3,r3,r2
  804d90:	e0bfff17 	ldw	r2,-4(fp)
  804d94:	10c00015 	stw	r3,0(r2)
  804d98:	e0fffe17 	ldw	r3,-8(fp)
  804d9c:	e0bff617 	ldw	r2,-40(fp)
  804da0:	1885c83a 	sub	r2,r3,r2
  804da4:	e0bffe15 	stw	r2,-8(fp)
  804da8:	e0bffe17 	ldw	r2,-8(fp)
  804dac:	103ee71e 	bne	r2,zero,80494c <__alt_data_end+0xff80494c>
  804db0:	e0bffc17 	ldw	r2,-16(fp)
  804db4:	10800217 	ldw	r2,8(r2)
  804db8:	e0fffc17 	ldw	r3,-16(fp)
  804dbc:	18c00317 	ldw	r3,12(r3)
  804dc0:	1880042e 	bgeu	r3,r2,804dd4 <f_write+0x54c>
  804dc4:	e0bffc17 	ldw	r2,-16(fp)
  804dc8:	10c00217 	ldw	r3,8(r2)
  804dcc:	e0bffc17 	ldw	r2,-16(fp)
  804dd0:	10c00315 	stw	r3,12(r2)
  804dd4:	e0bffc17 	ldw	r2,-16(fp)
  804dd8:	10800183 	ldbu	r2,6(r2)
  804ddc:	10800814 	ori	r2,r2,32
  804de0:	1007883a 	mov	r3,r2
  804de4:	e0bffc17 	ldw	r2,-16(fp)
  804de8:	10c00185 	stb	r3,6(r2)
  804dec:	0005883a 	mov	r2,zero
  804df0:	e037883a 	mov	sp,fp
  804df4:	dfc00117 	ldw	ra,4(sp)
  804df8:	df000017 	ldw	fp,0(sp)
  804dfc:	dec00204 	addi	sp,sp,8
  804e00:	f800283a 	ret

00804e04 <f_sync>:
  804e04:	defffa04 	addi	sp,sp,-24
  804e08:	dfc00515 	stw	ra,20(sp)
  804e0c:	df000415 	stw	fp,16(sp)
  804e10:	df000404 	addi	fp,sp,16
  804e14:	e13fff15 	stw	r4,-4(fp)
  804e18:	e0bfff17 	ldw	r2,-4(fp)
  804e1c:	10c00017 	ldw	r3,0(r2)
  804e20:	e0bfff17 	ldw	r2,-4(fp)
  804e24:	1080010b 	ldhu	r2,4(r2)
  804e28:	10bfffcc 	andi	r2,r2,65535
  804e2c:	1809883a 	mov	r4,r3
  804e30:	100b883a 	mov	r5,r2
  804e34:	0803dfc0 	call	803dfc <validate>
  804e38:	e0bffc15 	stw	r2,-16(fp)
  804e3c:	e0bffc17 	ldw	r2,-16(fp)
  804e40:	10008c1e 	bne	r2,zero,805074 <f_sync+0x270>
  804e44:	e0bfff17 	ldw	r2,-4(fp)
  804e48:	10800183 	ldbu	r2,6(r2)
  804e4c:	10803fcc 	andi	r2,r2,255
  804e50:	1080080c 	andi	r2,r2,32
  804e54:	10008726 	beq	r2,zero,805074 <f_sync+0x270>
  804e58:	e0bfff17 	ldw	r2,-4(fp)
  804e5c:	10800183 	ldbu	r2,6(r2)
  804e60:	10803fcc 	andi	r2,r2,255
  804e64:	1080100c 	andi	r2,r2,64
  804e68:	10001626 	beq	r2,zero,804ec4 <f_sync+0xc0>
  804e6c:	e0bfff17 	ldw	r2,-4(fp)
  804e70:	10800017 	ldw	r2,0(r2)
  804e74:	10800043 	ldbu	r2,1(r2)
  804e78:	11003fcc 	andi	r4,r2,255
  804e7c:	e0bfff17 	ldw	r2,-4(fp)
  804e80:	10c00904 	addi	r3,r2,36
  804e84:	e0bfff17 	ldw	r2,-4(fp)
  804e88:	10800617 	ldw	r2,24(r2)
  804e8c:	180b883a 	mov	r5,r3
  804e90:	100d883a 	mov	r6,r2
  804e94:	01c00044 	movi	r7,1
  804e98:	0800f080 	call	800f08 <ffs_DiskIOWrite>
  804e9c:	10000226 	beq	r2,zero,804ea8 <f_sync+0xa4>
  804ea0:	00800044 	movi	r2,1
  804ea4:	00007406 	br	805078 <f_sync+0x274>
  804ea8:	e0bfff17 	ldw	r2,-4(fp)
  804eac:	10c00183 	ldbu	r3,6(r2)
  804eb0:	00bfefc4 	movi	r2,-65
  804eb4:	1884703a 	and	r2,r3,r2
  804eb8:	1007883a 	mov	r3,r2
  804ebc:	e0bfff17 	ldw	r2,-4(fp)
  804ec0:	10c00185 	stb	r3,6(r2)
  804ec4:	e0bfff17 	ldw	r2,-4(fp)
  804ec8:	10c00017 	ldw	r3,0(r2)
  804ecc:	e0bfff17 	ldw	r2,-4(fp)
  804ed0:	10800717 	ldw	r2,28(r2)
  804ed4:	1809883a 	mov	r4,r3
  804ed8:	100b883a 	mov	r5,r2
  804edc:	08017140 	call	801714 <move_window>
  804ee0:	e0bffc15 	stw	r2,-16(fp)
  804ee4:	e0bffc17 	ldw	r2,-16(fp)
  804ee8:	1000621e 	bne	r2,zero,805074 <f_sync+0x270>
  804eec:	e0bfff17 	ldw	r2,-4(fp)
  804ef0:	10800817 	ldw	r2,32(r2)
  804ef4:	e0bffd15 	stw	r2,-12(fp)
  804ef8:	e0bffd17 	ldw	r2,-12(fp)
  804efc:	108002c4 	addi	r2,r2,11
  804f00:	e0fffd17 	ldw	r3,-12(fp)
  804f04:	18c002c4 	addi	r3,r3,11
  804f08:	18c00003 	ldbu	r3,0(r3)
  804f0c:	18c00814 	ori	r3,r3,32
  804f10:	10c00005 	stb	r3,0(r2)
  804f14:	e0bffd17 	ldw	r2,-12(fp)
  804f18:	10800704 	addi	r2,r2,28
  804f1c:	e0ffff17 	ldw	r3,-4(fp)
  804f20:	18c00317 	ldw	r3,12(r3)
  804f24:	10c00005 	stb	r3,0(r2)
  804f28:	e0bffd17 	ldw	r2,-12(fp)
  804f2c:	10800744 	addi	r2,r2,29
  804f30:	e0ffff17 	ldw	r3,-4(fp)
  804f34:	18c00317 	ldw	r3,12(r3)
  804f38:	18ffffcc 	andi	r3,r3,65535
  804f3c:	1806d23a 	srli	r3,r3,8
  804f40:	10c00005 	stb	r3,0(r2)
  804f44:	e0bffd17 	ldw	r2,-12(fp)
  804f48:	10800784 	addi	r2,r2,30
  804f4c:	e0ffff17 	ldw	r3,-4(fp)
  804f50:	18c00317 	ldw	r3,12(r3)
  804f54:	1806d43a 	srli	r3,r3,16
  804f58:	10c00005 	stb	r3,0(r2)
  804f5c:	e0bffd17 	ldw	r2,-12(fp)
  804f60:	108007c4 	addi	r2,r2,31
  804f64:	e0ffff17 	ldw	r3,-4(fp)
  804f68:	18c00317 	ldw	r3,12(r3)
  804f6c:	1806d63a 	srli	r3,r3,24
  804f70:	10c00005 	stb	r3,0(r2)
  804f74:	e0bffd17 	ldw	r2,-12(fp)
  804f78:	10800684 	addi	r2,r2,26
  804f7c:	e0ffff17 	ldw	r3,-4(fp)
  804f80:	18c00417 	ldw	r3,16(r3)
  804f84:	10c00005 	stb	r3,0(r2)
  804f88:	e0bffd17 	ldw	r2,-12(fp)
  804f8c:	108006c4 	addi	r2,r2,27
  804f90:	e0ffff17 	ldw	r3,-4(fp)
  804f94:	18c00417 	ldw	r3,16(r3)
  804f98:	18ffffcc 	andi	r3,r3,65535
  804f9c:	1806d23a 	srli	r3,r3,8
  804fa0:	10c00005 	stb	r3,0(r2)
  804fa4:	e0bffd17 	ldw	r2,-12(fp)
  804fa8:	10800504 	addi	r2,r2,20
  804fac:	e0ffff17 	ldw	r3,-4(fp)
  804fb0:	18c00417 	ldw	r3,16(r3)
  804fb4:	1806d43a 	srli	r3,r3,16
  804fb8:	10c00005 	stb	r3,0(r2)
  804fbc:	e0bffd17 	ldw	r2,-12(fp)
  804fc0:	10800544 	addi	r2,r2,21
  804fc4:	e0ffff17 	ldw	r3,-4(fp)
  804fc8:	18c00417 	ldw	r3,16(r3)
  804fcc:	1806d43a 	srli	r3,r3,16
  804fd0:	18ffffcc 	andi	r3,r3,65535
  804fd4:	1806d23a 	srli	r3,r3,8
  804fd8:	10c00005 	stb	r3,0(r2)
  804fdc:	080151c0 	call	80151c <get_fattime>
  804fe0:	e0bffe15 	stw	r2,-8(fp)
  804fe4:	e0bffd17 	ldw	r2,-12(fp)
  804fe8:	10800584 	addi	r2,r2,22
  804fec:	e0fffe17 	ldw	r3,-8(fp)
  804ff0:	10c00005 	stb	r3,0(r2)
  804ff4:	e0bffd17 	ldw	r2,-12(fp)
  804ff8:	108005c4 	addi	r2,r2,23
  804ffc:	e0fffe17 	ldw	r3,-8(fp)
  805000:	18ffffcc 	andi	r3,r3,65535
  805004:	1806d23a 	srli	r3,r3,8
  805008:	10c00005 	stb	r3,0(r2)
  80500c:	e0bffd17 	ldw	r2,-12(fp)
  805010:	10800604 	addi	r2,r2,24
  805014:	e0fffe17 	ldw	r3,-8(fp)
  805018:	1806d43a 	srli	r3,r3,16
  80501c:	10c00005 	stb	r3,0(r2)
  805020:	e0bffd17 	ldw	r2,-12(fp)
  805024:	10800644 	addi	r2,r2,25
  805028:	e0fffe17 	ldw	r3,-8(fp)
  80502c:	1806d63a 	srli	r3,r3,24
  805030:	10c00005 	stb	r3,0(r2)
  805034:	e0bfff17 	ldw	r2,-4(fp)
  805038:	10c00183 	ldbu	r3,6(r2)
  80503c:	00bff7c4 	movi	r2,-33
  805040:	1884703a 	and	r2,r3,r2
  805044:	1007883a 	mov	r3,r2
  805048:	e0bfff17 	ldw	r2,-4(fp)
  80504c:	10c00185 	stb	r3,6(r2)
  805050:	e0bfff17 	ldw	r2,-4(fp)
  805054:	10800017 	ldw	r2,0(r2)
  805058:	00c00044 	movi	r3,1
  80505c:	10c00105 	stb	r3,4(r2)
  805060:	e0bfff17 	ldw	r2,-4(fp)
  805064:	10800017 	ldw	r2,0(r2)
  805068:	1009883a 	mov	r4,r2
  80506c:	08018700 	call	801870 <sync>
  805070:	e0bffc15 	stw	r2,-16(fp)
  805074:	e0bffc17 	ldw	r2,-16(fp)
  805078:	e037883a 	mov	sp,fp
  80507c:	dfc00117 	ldw	ra,4(sp)
  805080:	df000017 	ldw	fp,0(sp)
  805084:	dec00204 	addi	sp,sp,8
  805088:	f800283a 	ret

0080508c <f_close>:
  80508c:	defffc04 	addi	sp,sp,-16
  805090:	dfc00315 	stw	ra,12(sp)
  805094:	df000215 	stw	fp,8(sp)
  805098:	df000204 	addi	fp,sp,8
  80509c:	e13fff15 	stw	r4,-4(fp)
  8050a0:	e13fff17 	ldw	r4,-4(fp)
  8050a4:	0804e040 	call	804e04 <f_sync>
  8050a8:	e0bffe15 	stw	r2,-8(fp)
  8050ac:	e0bffe17 	ldw	r2,-8(fp)
  8050b0:	1000021e 	bne	r2,zero,8050bc <f_close+0x30>
  8050b4:	e0bfff17 	ldw	r2,-4(fp)
  8050b8:	10000015 	stw	zero,0(r2)
  8050bc:	e0bffe17 	ldw	r2,-8(fp)
  8050c0:	e037883a 	mov	sp,fp
  8050c4:	dfc00117 	ldw	ra,4(sp)
  8050c8:	df000017 	ldw	fp,0(sp)
  8050cc:	dec00204 	addi	sp,sp,8
  8050d0:	f800283a 	ret

008050d4 <f_lseek>:
  8050d4:	defff604 	addi	sp,sp,-40
  8050d8:	dfc00915 	stw	ra,36(sp)
  8050dc:	df000815 	stw	fp,32(sp)
  8050e0:	dc000715 	stw	r16,28(sp)
  8050e4:	df000804 	addi	fp,sp,32
  8050e8:	e13ffd15 	stw	r4,-12(fp)
  8050ec:	e17ffe15 	stw	r5,-8(fp)
  8050f0:	e0bffd17 	ldw	r2,-12(fp)
  8050f4:	10c00017 	ldw	r3,0(r2)
  8050f8:	e0bffd17 	ldw	r2,-12(fp)
  8050fc:	1080010b 	ldhu	r2,4(r2)
  805100:	10bfffcc 	andi	r2,r2,65535
  805104:	1809883a 	mov	r4,r3
  805108:	100b883a 	mov	r5,r2
  80510c:	0803dfc0 	call	803dfc <validate>
  805110:	e0bffa15 	stw	r2,-24(fp)
  805114:	e0bffa17 	ldw	r2,-24(fp)
  805118:	10000226 	beq	r2,zero,805124 <f_lseek+0x50>
  80511c:	e0bffa17 	ldw	r2,-24(fp)
  805120:	00012106 	br	8055a8 <f_lseek+0x4d4>
  805124:	e0bffd17 	ldw	r2,-12(fp)
  805128:	10800183 	ldbu	r2,6(r2)
  80512c:	10803fcc 	andi	r2,r2,255
  805130:	1080201c 	xori	r2,r2,128
  805134:	10bfe004 	addi	r2,r2,-128
  805138:	1000020e 	bge	r2,zero,805144 <f_lseek+0x70>
  80513c:	00800084 	movi	r2,2
  805140:	00011906 	br	8055a8 <f_lseek+0x4d4>
  805144:	e0bffd17 	ldw	r2,-12(fp)
  805148:	10c00317 	ldw	r3,12(r2)
  80514c:	e0bffe17 	ldw	r2,-8(fp)
  805150:	1880082e 	bgeu	r3,r2,805174 <f_lseek+0xa0>
  805154:	e0bffd17 	ldw	r2,-12(fp)
  805158:	10800183 	ldbu	r2,6(r2)
  80515c:	10803fcc 	andi	r2,r2,255
  805160:	1080008c 	andi	r2,r2,2
  805164:	1000031e 	bne	r2,zero,805174 <f_lseek+0xa0>
  805168:	e0bffd17 	ldw	r2,-12(fp)
  80516c:	10800317 	ldw	r2,12(r2)
  805170:	e0bffe15 	stw	r2,-8(fp)
  805174:	e0bffd17 	ldw	r2,-12(fp)
  805178:	10800217 	ldw	r2,8(r2)
  80517c:	e0bffb15 	stw	r2,-20(fp)
  805180:	e03ff915 	stw	zero,-28(fp)
  805184:	e0bffd17 	ldw	r2,-12(fp)
  805188:	e0fff917 	ldw	r3,-28(fp)
  80518c:	10c00215 	stw	r3,8(r2)
  805190:	e0bffe17 	ldw	r2,-8(fp)
  805194:	1000b226 	beq	r2,zero,805460 <f_lseek+0x38c>
  805198:	e0bffd17 	ldw	r2,-12(fp)
  80519c:	10800017 	ldw	r2,0(r2)
  8051a0:	10800083 	ldbu	r2,2(r2)
  8051a4:	10803fcc 	andi	r2,r2,255
  8051a8:	1004927a 	slli	r2,r2,9
  8051ac:	e0bffc15 	stw	r2,-16(fp)
  8051b0:	e0bffb17 	ldw	r2,-20(fp)
  8051b4:	10001c26 	beq	r2,zero,805228 <f_lseek+0x154>
  8051b8:	e0bffe17 	ldw	r2,-8(fp)
  8051bc:	10bfffc4 	addi	r2,r2,-1
  8051c0:	1009883a 	mov	r4,r2
  8051c4:	e17ffc17 	ldw	r5,-16(fp)
  8051c8:	08097940 	call	809794 <__udivsi3>
  8051cc:	1021883a 	mov	r16,r2
  8051d0:	e0bffb17 	ldw	r2,-20(fp)
  8051d4:	10bfffc4 	addi	r2,r2,-1
  8051d8:	1009883a 	mov	r4,r2
  8051dc:	e17ffc17 	ldw	r5,-16(fp)
  8051e0:	08097940 	call	809794 <__udivsi3>
  8051e4:	80801036 	bltu	r16,r2,805228 <f_lseek+0x154>
  8051e8:	e0bffb17 	ldw	r2,-20(fp)
  8051ec:	10ffffc4 	addi	r3,r2,-1
  8051f0:	e0bffc17 	ldw	r2,-16(fp)
  8051f4:	0085c83a 	sub	r2,zero,r2
  8051f8:	1886703a 	and	r3,r3,r2
  8051fc:	e0bffd17 	ldw	r2,-12(fp)
  805200:	10c00215 	stw	r3,8(r2)
  805204:	e0bffd17 	ldw	r2,-12(fp)
  805208:	10800217 	ldw	r2,8(r2)
  80520c:	e0fffe17 	ldw	r3,-8(fp)
  805210:	1885c83a 	sub	r2,r3,r2
  805214:	e0bffe15 	stw	r2,-8(fp)
  805218:	e0bffd17 	ldw	r2,-12(fp)
  80521c:	10800517 	ldw	r2,20(r2)
  805220:	e0bff815 	stw	r2,-32(fp)
  805224:	00002906 	br	8052cc <f_lseek+0x1f8>
  805228:	e0bffd17 	ldw	r2,-12(fp)
  80522c:	10800417 	ldw	r2,16(r2)
  805230:	e0bff815 	stw	r2,-32(fp)
  805234:	e0bff817 	ldw	r2,-32(fp)
  805238:	1000211e 	bne	r2,zero,8052c0 <f_lseek+0x1ec>
  80523c:	e0bffd17 	ldw	r2,-12(fp)
  805240:	10800017 	ldw	r2,0(r2)
  805244:	1009883a 	mov	r4,r2
  805248:	000b883a 	mov	r5,zero
  80524c:	08022000 	call	802200 <create_chain>
  805250:	e0bff815 	stw	r2,-32(fp)
  805254:	e0bff817 	ldw	r2,-32(fp)
  805258:	10800058 	cmpnei	r2,r2,1
  80525c:	1000091e 	bne	r2,zero,805284 <f_lseek+0x1b0>
  805260:	e0bffd17 	ldw	r2,-12(fp)
  805264:	10c00183 	ldbu	r3,6(r2)
  805268:	00bfe004 	movi	r2,-128
  80526c:	1884b03a 	or	r2,r3,r2
  805270:	1007883a 	mov	r3,r2
  805274:	e0bffd17 	ldw	r2,-12(fp)
  805278:	10c00185 	stb	r3,6(r2)
  80527c:	00800084 	movi	r2,2
  805280:	0000c906 	br	8055a8 <f_lseek+0x4d4>
  805284:	e0bff817 	ldw	r2,-32(fp)
  805288:	10bfffd8 	cmpnei	r2,r2,-1
  80528c:	1000091e 	bne	r2,zero,8052b4 <f_lseek+0x1e0>
  805290:	e0bffd17 	ldw	r2,-12(fp)
  805294:	10c00183 	ldbu	r3,6(r2)
  805298:	00bfe004 	movi	r2,-128
  80529c:	1884b03a 	or	r2,r3,r2
  8052a0:	1007883a 	mov	r3,r2
  8052a4:	e0bffd17 	ldw	r2,-12(fp)
  8052a8:	10c00185 	stb	r3,6(r2)
  8052ac:	00800044 	movi	r2,1
  8052b0:	0000bd06 	br	8055a8 <f_lseek+0x4d4>
  8052b4:	e0bffd17 	ldw	r2,-12(fp)
  8052b8:	e0fff817 	ldw	r3,-32(fp)
  8052bc:	10c00415 	stw	r3,16(r2)
  8052c0:	e0bffd17 	ldw	r2,-12(fp)
  8052c4:	e0fff817 	ldw	r3,-32(fp)
  8052c8:	10c00515 	stw	r3,20(r2)
  8052cc:	e0bff817 	ldw	r2,-32(fp)
  8052d0:	10006326 	beq	r2,zero,805460 <f_lseek+0x38c>
  8052d4:	00004006 	br	8053d8 <f_lseek+0x304>
  8052d8:	e0bffd17 	ldw	r2,-12(fp)
  8052dc:	10800183 	ldbu	r2,6(r2)
  8052e0:	10803fcc 	andi	r2,r2,255
  8052e4:	1080008c 	andi	r2,r2,2
  8052e8:	10000b26 	beq	r2,zero,805318 <f_lseek+0x244>
  8052ec:	e0bffd17 	ldw	r2,-12(fp)
  8052f0:	10800017 	ldw	r2,0(r2)
  8052f4:	1009883a 	mov	r4,r2
  8052f8:	e17ff817 	ldw	r5,-32(fp)
  8052fc:	08022000 	call	802200 <create_chain>
  805300:	e0bff815 	stw	r2,-32(fp)
  805304:	e0bff817 	ldw	r2,-32(fp)
  805308:	1000091e 	bne	r2,zero,805330 <f_lseek+0x25c>
  80530c:	e0bffc17 	ldw	r2,-16(fp)
  805310:	e0bffe15 	stw	r2,-8(fp)
  805314:	00003306 	br	8053e4 <f_lseek+0x310>
  805318:	e0bffd17 	ldw	r2,-12(fp)
  80531c:	10800017 	ldw	r2,0(r2)
  805320:	1009883a 	mov	r4,r2
  805324:	e17ff817 	ldw	r5,-32(fp)
  805328:	0801af80 	call	801af8 <get_fat>
  80532c:	e0bff815 	stw	r2,-32(fp)
  805330:	e0bff817 	ldw	r2,-32(fp)
  805334:	10bfffd8 	cmpnei	r2,r2,-1
  805338:	1000091e 	bne	r2,zero,805360 <f_lseek+0x28c>
  80533c:	e0bffd17 	ldw	r2,-12(fp)
  805340:	10c00183 	ldbu	r3,6(r2)
  805344:	00bfe004 	movi	r2,-128
  805348:	1884b03a 	or	r2,r3,r2
  80534c:	1007883a 	mov	r3,r2
  805350:	e0bffd17 	ldw	r2,-12(fp)
  805354:	10c00185 	stb	r3,6(r2)
  805358:	00800044 	movi	r2,1
  80535c:	00009206 	br	8055a8 <f_lseek+0x4d4>
  805360:	e0bff817 	ldw	r2,-32(fp)
  805364:	108000b0 	cmpltui	r2,r2,2
  805368:	1000051e 	bne	r2,zero,805380 <f_lseek+0x2ac>
  80536c:	e0bffd17 	ldw	r2,-12(fp)
  805370:	10800017 	ldw	r2,0(r2)
  805374:	10800617 	ldw	r2,24(r2)
  805378:	e0fff817 	ldw	r3,-32(fp)
  80537c:	18800936 	bltu	r3,r2,8053a4 <f_lseek+0x2d0>
  805380:	e0bffd17 	ldw	r2,-12(fp)
  805384:	10c00183 	ldbu	r3,6(r2)
  805388:	00bfe004 	movi	r2,-128
  80538c:	1884b03a 	or	r2,r3,r2
  805390:	1007883a 	mov	r3,r2
  805394:	e0bffd17 	ldw	r2,-12(fp)
  805398:	10c00185 	stb	r3,6(r2)
  80539c:	00800084 	movi	r2,2
  8053a0:	00008106 	br	8055a8 <f_lseek+0x4d4>
  8053a4:	e0bffd17 	ldw	r2,-12(fp)
  8053a8:	e0fff817 	ldw	r3,-32(fp)
  8053ac:	10c00515 	stw	r3,20(r2)
  8053b0:	e0bffd17 	ldw	r2,-12(fp)
  8053b4:	10c00217 	ldw	r3,8(r2)
  8053b8:	e0bffc17 	ldw	r2,-16(fp)
  8053bc:	1887883a 	add	r3,r3,r2
  8053c0:	e0bffd17 	ldw	r2,-12(fp)
  8053c4:	10c00215 	stw	r3,8(r2)
  8053c8:	e0fffe17 	ldw	r3,-8(fp)
  8053cc:	e0bffc17 	ldw	r2,-16(fp)
  8053d0:	1885c83a 	sub	r2,r3,r2
  8053d4:	e0bffe15 	stw	r2,-8(fp)
  8053d8:	e0bffe17 	ldw	r2,-8(fp)
  8053dc:	e0fffc17 	ldw	r3,-16(fp)
  8053e0:	18bfbd36 	bltu	r3,r2,8052d8 <__alt_data_end+0xff8052d8>
  8053e4:	e0bffd17 	ldw	r2,-12(fp)
  8053e8:	10c00217 	ldw	r3,8(r2)
  8053ec:	e0bffe17 	ldw	r2,-8(fp)
  8053f0:	1887883a 	add	r3,r3,r2
  8053f4:	e0bffd17 	ldw	r2,-12(fp)
  8053f8:	10c00215 	stw	r3,8(r2)
  8053fc:	e0bffe17 	ldw	r2,-8(fp)
  805400:	10807fcc 	andi	r2,r2,511
  805404:	10001626 	beq	r2,zero,805460 <f_lseek+0x38c>
  805408:	e0bffd17 	ldw	r2,-12(fp)
  80540c:	10800017 	ldw	r2,0(r2)
  805410:	1009883a 	mov	r4,r2
  805414:	e17ff817 	ldw	r5,-32(fp)
  805418:	0801a8c0 	call	801a8c <clust2sect>
  80541c:	e0bff915 	stw	r2,-28(fp)
  805420:	e0bff917 	ldw	r2,-28(fp)
  805424:	1000091e 	bne	r2,zero,80544c <f_lseek+0x378>
  805428:	e0bffd17 	ldw	r2,-12(fp)
  80542c:	10c00183 	ldbu	r3,6(r2)
  805430:	00bfe004 	movi	r2,-128
  805434:	1884b03a 	or	r2,r3,r2
  805438:	1007883a 	mov	r3,r2
  80543c:	e0bffd17 	ldw	r2,-12(fp)
  805440:	10c00185 	stb	r3,6(r2)
  805444:	00800084 	movi	r2,2
  805448:	00005706 	br	8055a8 <f_lseek+0x4d4>
  80544c:	e0bffe17 	ldw	r2,-8(fp)
  805450:	1004d27a 	srli	r2,r2,9
  805454:	e0fff917 	ldw	r3,-28(fp)
  805458:	1885883a 	add	r2,r3,r2
  80545c:	e0bff915 	stw	r2,-28(fp)
  805460:	e0bffd17 	ldw	r2,-12(fp)
  805464:	10800217 	ldw	r2,8(r2)
  805468:	10807fcc 	andi	r2,r2,511
  80546c:	10003e26 	beq	r2,zero,805568 <f_lseek+0x494>
  805470:	e0bffd17 	ldw	r2,-12(fp)
  805474:	10c00617 	ldw	r3,24(r2)
  805478:	e0bff917 	ldw	r2,-28(fp)
  80547c:	18803a26 	beq	r3,r2,805568 <f_lseek+0x494>
  805480:	e0bffd17 	ldw	r2,-12(fp)
  805484:	10800183 	ldbu	r2,6(r2)
  805488:	10803fcc 	andi	r2,r2,255
  80548c:	1080100c 	andi	r2,r2,64
  805490:	10001d26 	beq	r2,zero,805508 <f_lseek+0x434>
  805494:	e0bffd17 	ldw	r2,-12(fp)
  805498:	10800017 	ldw	r2,0(r2)
  80549c:	10800043 	ldbu	r2,1(r2)
  8054a0:	11003fcc 	andi	r4,r2,255
  8054a4:	e0bffd17 	ldw	r2,-12(fp)
  8054a8:	10c00904 	addi	r3,r2,36
  8054ac:	e0bffd17 	ldw	r2,-12(fp)
  8054b0:	10800617 	ldw	r2,24(r2)
  8054b4:	180b883a 	mov	r5,r3
  8054b8:	100d883a 	mov	r6,r2
  8054bc:	01c00044 	movi	r7,1
  8054c0:	0800f080 	call	800f08 <ffs_DiskIOWrite>
  8054c4:	10000926 	beq	r2,zero,8054ec <f_lseek+0x418>
  8054c8:	e0bffd17 	ldw	r2,-12(fp)
  8054cc:	10c00183 	ldbu	r3,6(r2)
  8054d0:	00bfe004 	movi	r2,-128
  8054d4:	1884b03a 	or	r2,r3,r2
  8054d8:	1007883a 	mov	r3,r2
  8054dc:	e0bffd17 	ldw	r2,-12(fp)
  8054e0:	10c00185 	stb	r3,6(r2)
  8054e4:	00800044 	movi	r2,1
  8054e8:	00002f06 	br	8055a8 <f_lseek+0x4d4>
  8054ec:	e0bffd17 	ldw	r2,-12(fp)
  8054f0:	10c00183 	ldbu	r3,6(r2)
  8054f4:	00bfefc4 	movi	r2,-65
  8054f8:	1884703a 	and	r2,r3,r2
  8054fc:	1007883a 	mov	r3,r2
  805500:	e0bffd17 	ldw	r2,-12(fp)
  805504:	10c00185 	stb	r3,6(r2)
  805508:	e0bffd17 	ldw	r2,-12(fp)
  80550c:	10800017 	ldw	r2,0(r2)
  805510:	10800043 	ldbu	r2,1(r2)
  805514:	10c03fcc 	andi	r3,r2,255
  805518:	e0bffd17 	ldw	r2,-12(fp)
  80551c:	10800904 	addi	r2,r2,36
  805520:	1809883a 	mov	r4,r3
  805524:	100b883a 	mov	r5,r2
  805528:	e1bff917 	ldw	r6,-28(fp)
  80552c:	01c00044 	movi	r7,1
  805530:	0800dec0 	call	800dec <ffs_DiskIORead>
  805534:	10000926 	beq	r2,zero,80555c <f_lseek+0x488>
  805538:	e0bffd17 	ldw	r2,-12(fp)
  80553c:	10c00183 	ldbu	r3,6(r2)
  805540:	00bfe004 	movi	r2,-128
  805544:	1884b03a 	or	r2,r3,r2
  805548:	1007883a 	mov	r3,r2
  80554c:	e0bffd17 	ldw	r2,-12(fp)
  805550:	10c00185 	stb	r3,6(r2)
  805554:	00800044 	movi	r2,1
  805558:	00001306 	br	8055a8 <f_lseek+0x4d4>
  80555c:	e0bffd17 	ldw	r2,-12(fp)
  805560:	e0fff917 	ldw	r3,-28(fp)
  805564:	10c00615 	stw	r3,24(r2)
  805568:	e0bffd17 	ldw	r2,-12(fp)
  80556c:	10800217 	ldw	r2,8(r2)
  805570:	e0fffd17 	ldw	r3,-12(fp)
  805574:	18c00317 	ldw	r3,12(r3)
  805578:	18800a2e 	bgeu	r3,r2,8055a4 <f_lseek+0x4d0>
  80557c:	e0bffd17 	ldw	r2,-12(fp)
  805580:	10c00217 	ldw	r3,8(r2)
  805584:	e0bffd17 	ldw	r2,-12(fp)
  805588:	10c00315 	stw	r3,12(r2)
  80558c:	e0bffd17 	ldw	r2,-12(fp)
  805590:	10800183 	ldbu	r2,6(r2)
  805594:	10800814 	ori	r2,r2,32
  805598:	1007883a 	mov	r3,r2
  80559c:	e0bffd17 	ldw	r2,-12(fp)
  8055a0:	10c00185 	stb	r3,6(r2)
  8055a4:	e0bffa17 	ldw	r2,-24(fp)
  8055a8:	e6ffff04 	addi	sp,fp,-4
  8055ac:	dfc00217 	ldw	ra,8(sp)
  8055b0:	df000117 	ldw	fp,4(sp)
  8055b4:	dc000017 	ldw	r16,0(sp)
  8055b8:	dec00304 	addi	sp,sp,12
  8055bc:	f800283a 	ret

008055c0 <f_opendir>:
  8055c0:	defff804 	addi	sp,sp,-32
  8055c4:	dfc00715 	stw	ra,28(sp)
  8055c8:	df000615 	stw	fp,24(sp)
  8055cc:	df000604 	addi	fp,sp,24
  8055d0:	e13ffe15 	stw	r4,-8(fp)
  8055d4:	e17fff15 	stw	r5,-4(fp)
  8055d8:	e0bffe17 	ldw	r2,-8(fp)
  8055dc:	e0ffff04 	addi	r3,fp,-4
  8055e0:	1809883a 	mov	r4,r3
  8055e4:	100b883a 	mov	r5,r2
  8055e8:	000d883a 	mov	r6,zero
  8055ec:	08034c00 	call	8034c0 <chk_mounted>
  8055f0:	e0bffa15 	stw	r2,-24(fp)
  8055f4:	e0bffa17 	ldw	r2,-24(fp)
  8055f8:	1000471e 	bne	r2,zero,805718 <f_opendir+0x158>
  8055fc:	e0bffe17 	ldw	r2,-8(fp)
  805600:	e0fffb04 	addi	r3,fp,-20
  805604:	10c00615 	stw	r3,24(r2)
  805608:	e0bfff17 	ldw	r2,-4(fp)
  80560c:	e13ffe17 	ldw	r4,-8(fp)
  805610:	100b883a 	mov	r5,r2
  805614:	080317c0 	call	80317c <follow_path>
  805618:	e0bffa15 	stw	r2,-24(fp)
  80561c:	e0bffa17 	ldw	r2,-24(fp)
  805620:	1000381e 	bne	r2,zero,805704 <f_opendir+0x144>
  805624:	e0bffe17 	ldw	r2,-8(fp)
  805628:	10800517 	ldw	r2,20(r2)
  80562c:	10002a26 	beq	r2,zero,8056d8 <f_opendir+0x118>
  805630:	e0bffe17 	ldw	r2,-8(fp)
  805634:	10800517 	ldw	r2,20(r2)
  805638:	108002c4 	addi	r2,r2,11
  80563c:	10800003 	ldbu	r2,0(r2)
  805640:	10803fcc 	andi	r2,r2,255
  805644:	1080040c 	andi	r2,r2,16
  805648:	10002126 	beq	r2,zero,8056d0 <f_opendir+0x110>
  80564c:	e0bffe17 	ldw	r2,-8(fp)
  805650:	10800517 	ldw	r2,20(r2)
  805654:	10800544 	addi	r2,r2,21
  805658:	10800003 	ldbu	r2,0(r2)
  80565c:	10803fcc 	andi	r2,r2,255
  805660:	1004923a 	slli	r2,r2,8
  805664:	1007883a 	mov	r3,r2
  805668:	e0bffe17 	ldw	r2,-8(fp)
  80566c:	10800517 	ldw	r2,20(r2)
  805670:	10800504 	addi	r2,r2,20
  805674:	10800003 	ldbu	r2,0(r2)
  805678:	10803fcc 	andi	r2,r2,255
  80567c:	1884b03a 	or	r2,r3,r2
  805680:	10bfffcc 	andi	r2,r2,65535
  805684:	1006943a 	slli	r3,r2,16
  805688:	e0bffe17 	ldw	r2,-8(fp)
  80568c:	10800517 	ldw	r2,20(r2)
  805690:	108006c4 	addi	r2,r2,27
  805694:	10800003 	ldbu	r2,0(r2)
  805698:	10803fcc 	andi	r2,r2,255
  80569c:	1004923a 	slli	r2,r2,8
  8056a0:	1009883a 	mov	r4,r2
  8056a4:	e0bffe17 	ldw	r2,-8(fp)
  8056a8:	10800517 	ldw	r2,20(r2)
  8056ac:	10800684 	addi	r2,r2,26
  8056b0:	10800003 	ldbu	r2,0(r2)
  8056b4:	10803fcc 	andi	r2,r2,255
  8056b8:	2084b03a 	or	r2,r4,r2
  8056bc:	10bfffcc 	andi	r2,r2,65535
  8056c0:	1886b03a 	or	r3,r3,r2
  8056c4:	e0bffe17 	ldw	r2,-8(fp)
  8056c8:	10c00215 	stw	r3,8(r2)
  8056cc:	00000206 	br	8056d8 <f_opendir+0x118>
  8056d0:	00800144 	movi	r2,5
  8056d4:	e0bffa15 	stw	r2,-24(fp)
  8056d8:	e0bffa17 	ldw	r2,-24(fp)
  8056dc:	1000091e 	bne	r2,zero,805704 <f_opendir+0x144>
  8056e0:	e0bffe17 	ldw	r2,-8(fp)
  8056e4:	10800017 	ldw	r2,0(r2)
  8056e8:	10c0018b 	ldhu	r3,6(r2)
  8056ec:	e0bffe17 	ldw	r2,-8(fp)
  8056f0:	10c0010d 	sth	r3,4(r2)
  8056f4:	e13ffe17 	ldw	r4,-8(fp)
  8056f8:	000b883a 	mov	r5,zero
  8056fc:	08023e40 	call	8023e4 <dir_sdi>
  805700:	e0bffa15 	stw	r2,-24(fp)
  805704:	e0bffa17 	ldw	r2,-24(fp)
  805708:	10800118 	cmpnei	r2,r2,4
  80570c:	1000021e 	bne	r2,zero,805718 <f_opendir+0x158>
  805710:	00800144 	movi	r2,5
  805714:	e0bffa15 	stw	r2,-24(fp)
  805718:	e0bffa17 	ldw	r2,-24(fp)
  80571c:	e037883a 	mov	sp,fp
  805720:	dfc00117 	ldw	ra,4(sp)
  805724:	df000017 	ldw	fp,0(sp)
  805728:	dec00204 	addi	sp,sp,8
  80572c:	f800283a 	ret

00805730 <f_readdir>:
  805730:	defff804 	addi	sp,sp,-32
  805734:	dfc00715 	stw	ra,28(sp)
  805738:	df000615 	stw	fp,24(sp)
  80573c:	df000604 	addi	fp,sp,24
  805740:	e13ffe15 	stw	r4,-8(fp)
  805744:	e17fff15 	stw	r5,-4(fp)
  805748:	e0bffe17 	ldw	r2,-8(fp)
  80574c:	10c00017 	ldw	r3,0(r2)
  805750:	e0bffe17 	ldw	r2,-8(fp)
  805754:	1080010b 	ldhu	r2,4(r2)
  805758:	10bfffcc 	andi	r2,r2,65535
  80575c:	1809883a 	mov	r4,r3
  805760:	100b883a 	mov	r5,r2
  805764:	0803dfc0 	call	803dfc <validate>
  805768:	e0bffa15 	stw	r2,-24(fp)
  80576c:	e0bffa17 	ldw	r2,-24(fp)
  805770:	1000221e 	bne	r2,zero,8057fc <f_readdir+0xcc>
  805774:	e0bfff17 	ldw	r2,-4(fp)
  805778:	1000051e 	bne	r2,zero,805790 <f_readdir+0x60>
  80577c:	e13ffe17 	ldw	r4,-8(fp)
  805780:	000b883a 	mov	r5,zero
  805784:	08023e40 	call	8023e4 <dir_sdi>
  805788:	e0bffa15 	stw	r2,-24(fp)
  80578c:	00001b06 	br	8057fc <f_readdir+0xcc>
  805790:	e0bffe17 	ldw	r2,-8(fp)
  805794:	e0fffb04 	addi	r3,fp,-20
  805798:	10c00615 	stw	r3,24(r2)
  80579c:	e13ffe17 	ldw	r4,-8(fp)
  8057a0:	08029ac0 	call	8029ac <dir_read>
  8057a4:	e0bffa15 	stw	r2,-24(fp)
  8057a8:	e0bffa17 	ldw	r2,-24(fp)
  8057ac:	10800118 	cmpnei	r2,r2,4
  8057b0:	1000031e 	bne	r2,zero,8057c0 <f_readdir+0x90>
  8057b4:	e0bffe17 	ldw	r2,-8(fp)
  8057b8:	10000415 	stw	zero,16(r2)
  8057bc:	e03ffa15 	stw	zero,-24(fp)
  8057c0:	e0bffa17 	ldw	r2,-24(fp)
  8057c4:	10000d1e 	bne	r2,zero,8057fc <f_readdir+0xcc>
  8057c8:	e13ffe17 	ldw	r4,-8(fp)
  8057cc:	e17fff17 	ldw	r5,-4(fp)
  8057d0:	0802f4c0 	call	802f4c <get_fileinfo>
  8057d4:	e13ffe17 	ldw	r4,-8(fp)
  8057d8:	000b883a 	mov	r5,zero
  8057dc:	08025d00 	call	8025d0 <dir_next>
  8057e0:	e0bffa15 	stw	r2,-24(fp)
  8057e4:	e0bffa17 	ldw	r2,-24(fp)
  8057e8:	10800118 	cmpnei	r2,r2,4
  8057ec:	1000031e 	bne	r2,zero,8057fc <f_readdir+0xcc>
  8057f0:	e0bffe17 	ldw	r2,-8(fp)
  8057f4:	10000415 	stw	zero,16(r2)
  8057f8:	e03ffa15 	stw	zero,-24(fp)
  8057fc:	e0bffa17 	ldw	r2,-24(fp)
  805800:	e037883a 	mov	sp,fp
  805804:	dfc00117 	ldw	ra,4(sp)
  805808:	df000017 	ldw	fp,0(sp)
  80580c:	dec00204 	addi	sp,sp,8
  805810:	f800283a 	ret

00805814 <f_stat>:
  805814:	defff104 	addi	sp,sp,-60
  805818:	dfc00e15 	stw	ra,56(sp)
  80581c:	df000d15 	stw	fp,52(sp)
  805820:	df000d04 	addi	fp,sp,52
  805824:	e13ffe15 	stw	r4,-8(fp)
  805828:	e17fff15 	stw	r5,-4(fp)
  80582c:	e0fffe04 	addi	r3,fp,-8
  805830:	e0bff404 	addi	r2,fp,-48
  805834:	1809883a 	mov	r4,r3
  805838:	100b883a 	mov	r5,r2
  80583c:	000d883a 	mov	r6,zero
  805840:	08034c00 	call	8034c0 <chk_mounted>
  805844:	e0bff315 	stw	r2,-52(fp)
  805848:	e0bff317 	ldw	r2,-52(fp)
  80584c:	1000131e 	bne	r2,zero,80589c <f_stat+0x88>
  805850:	e0bffb04 	addi	r2,fp,-20
  805854:	e0bffa15 	stw	r2,-24(fp)
  805858:	e0bffe17 	ldw	r2,-8(fp)
  80585c:	e0fff404 	addi	r3,fp,-48
  805860:	1809883a 	mov	r4,r3
  805864:	100b883a 	mov	r5,r2
  805868:	080317c0 	call	80317c <follow_path>
  80586c:	e0bff315 	stw	r2,-52(fp)
  805870:	e0bff317 	ldw	r2,-52(fp)
  805874:	1000091e 	bne	r2,zero,80589c <f_stat+0x88>
  805878:	e0bff917 	ldw	r2,-28(fp)
  80587c:	10000526 	beq	r2,zero,805894 <f_stat+0x80>
  805880:	e0bff404 	addi	r2,fp,-48
  805884:	1009883a 	mov	r4,r2
  805888:	e17fff17 	ldw	r5,-4(fp)
  80588c:	0802f4c0 	call	802f4c <get_fileinfo>
  805890:	00000206 	br	80589c <f_stat+0x88>
  805894:	00800184 	movi	r2,6
  805898:	e0bff315 	stw	r2,-52(fp)
  80589c:	e0bff317 	ldw	r2,-52(fp)
  8058a0:	e037883a 	mov	sp,fp
  8058a4:	dfc00117 	ldw	ra,4(sp)
  8058a8:	df000017 	ldw	fp,0(sp)
  8058ac:	dec00204 	addi	sp,sp,8
  8058b0:	f800283a 	ret

008058b4 <f_getfree>:
  8058b4:	defff304 	addi	sp,sp,-52
  8058b8:	dfc00c15 	stw	ra,48(sp)
  8058bc:	df000b15 	stw	fp,44(sp)
  8058c0:	df000b04 	addi	fp,sp,44
  8058c4:	e13ffd15 	stw	r4,-12(fp)
  8058c8:	e17ffe15 	stw	r5,-8(fp)
  8058cc:	e1bfff15 	stw	r6,-4(fp)
  8058d0:	e0bffd04 	addi	r2,fp,-12
  8058d4:	1009883a 	mov	r4,r2
  8058d8:	e17fff17 	ldw	r5,-4(fp)
  8058dc:	000d883a 	mov	r6,zero
  8058e0:	08034c00 	call	8034c0 <chk_mounted>
  8058e4:	e0bff515 	stw	r2,-44(fp)
  8058e8:	e0bff517 	ldw	r2,-44(fp)
  8058ec:	1000a61e 	bne	r2,zero,805b88 <f_getfree+0x2d4>
  8058f0:	e0bfff17 	ldw	r2,-4(fp)
  8058f4:	10800017 	ldw	r2,0(r2)
  8058f8:	10800417 	ldw	r2,16(r2)
  8058fc:	e0ffff17 	ldw	r3,-4(fp)
  805900:	18c00017 	ldw	r3,0(r3)
  805904:	18c00617 	ldw	r3,24(r3)
  805908:	18ffff84 	addi	r3,r3,-2
  80590c:	18800636 	bltu	r3,r2,805928 <f_getfree+0x74>
  805910:	e0bfff17 	ldw	r2,-4(fp)
  805914:	10800017 	ldw	r2,0(r2)
  805918:	10c00417 	ldw	r3,16(r2)
  80591c:	e0bffe17 	ldw	r2,-8(fp)
  805920:	10c00015 	stw	r3,0(r2)
  805924:	00009806 	br	805b88 <f_getfree+0x2d4>
  805928:	e0bfff17 	ldw	r2,-4(fp)
  80592c:	10800017 	ldw	r2,0(r2)
  805930:	10800003 	ldbu	r2,0(r2)
  805934:	e0bffb05 	stb	r2,-20(fp)
  805938:	e03ff615 	stw	zero,-40(fp)
  80593c:	e0bffb03 	ldbu	r2,-20(fp)
  805940:	10800058 	cmpnei	r2,r2,1
  805944:	1000231e 	bne	r2,zero,8059d4 <f_getfree+0x120>
  805948:	00800084 	movi	r2,2
  80594c:	e0bff715 	stw	r2,-36(fp)
  805950:	e0bfff17 	ldw	r2,-4(fp)
  805954:	10800017 	ldw	r2,0(r2)
  805958:	1009883a 	mov	r4,r2
  80595c:	e17ff717 	ldw	r5,-36(fp)
  805960:	0801af80 	call	801af8 <get_fat>
  805964:	e0bffc15 	stw	r2,-16(fp)
  805968:	e0bffc17 	ldw	r2,-16(fp)
  80596c:	10bfffd8 	cmpnei	r2,r2,-1
  805970:	1000031e 	bne	r2,zero,805980 <f_getfree+0xcc>
  805974:	00800044 	movi	r2,1
  805978:	e0bff515 	stw	r2,-44(fp)
  80597c:	00001406 	br	8059d0 <f_getfree+0x11c>
  805980:	e0bffc17 	ldw	r2,-16(fp)
  805984:	10800058 	cmpnei	r2,r2,1
  805988:	1000031e 	bne	r2,zero,805998 <f_getfree+0xe4>
  80598c:	00800084 	movi	r2,2
  805990:	e0bff515 	stw	r2,-44(fp)
  805994:	00000e06 	br	8059d0 <f_getfree+0x11c>
  805998:	e0bffc17 	ldw	r2,-16(fp)
  80599c:	1000031e 	bne	r2,zero,8059ac <f_getfree+0xf8>
  8059a0:	e0bff617 	ldw	r2,-40(fp)
  8059a4:	10800044 	addi	r2,r2,1
  8059a8:	e0bff615 	stw	r2,-40(fp)
  8059ac:	e0bff717 	ldw	r2,-36(fp)
  8059b0:	10800044 	addi	r2,r2,1
  8059b4:	e0bff715 	stw	r2,-36(fp)
  8059b8:	e0bfff17 	ldw	r2,-4(fp)
  8059bc:	10800017 	ldw	r2,0(r2)
  8059c0:	10800617 	ldw	r2,24(r2)
  8059c4:	e0fff717 	ldw	r3,-36(fp)
  8059c8:	18bfe136 	bltu	r3,r2,805950 <__alt_data_end+0xff805950>
  8059cc:	00006006 	br	805b50 <f_getfree+0x29c>
  8059d0:	00005f06 	br	805b50 <f_getfree+0x29c>
  8059d4:	e0bfff17 	ldw	r2,-4(fp)
  8059d8:	10800017 	ldw	r2,0(r2)
  8059dc:	10800617 	ldw	r2,24(r2)
  8059e0:	e0bff715 	stw	r2,-36(fp)
  8059e4:	e0bfff17 	ldw	r2,-4(fp)
  8059e8:	10800017 	ldw	r2,0(r2)
  8059ec:	10800817 	ldw	r2,32(r2)
  8059f0:	e0bff815 	stw	r2,-32(fp)
  8059f4:	e03ff915 	stw	zero,-28(fp)
  8059f8:	e03ffa15 	stw	zero,-24(fp)
  8059fc:	e0bff917 	ldw	r2,-28(fp)
  805a00:	1000111e 	bne	r2,zero,805a48 <f_getfree+0x194>
  805a04:	e0bfff17 	ldw	r2,-4(fp)
  805a08:	11000017 	ldw	r4,0(r2)
  805a0c:	e0bff817 	ldw	r2,-32(fp)
  805a10:	10c00044 	addi	r3,r2,1
  805a14:	e0fff815 	stw	r3,-32(fp)
  805a18:	100b883a 	mov	r5,r2
  805a1c:	08017140 	call	801714 <move_window>
  805a20:	e0bff515 	stw	r2,-44(fp)
  805a24:	e0bff517 	ldw	r2,-44(fp)
  805a28:	10000126 	beq	r2,zero,805a30 <f_getfree+0x17c>
  805a2c:	00004806 	br	805b50 <f_getfree+0x29c>
  805a30:	e0bfff17 	ldw	r2,-4(fp)
  805a34:	10800017 	ldw	r2,0(r2)
  805a38:	10800c04 	addi	r2,r2,48
  805a3c:	e0bffa15 	stw	r2,-24(fp)
  805a40:	00808004 	movi	r2,512
  805a44:	e0bff915 	stw	r2,-28(fp)
  805a48:	e0bffb03 	ldbu	r2,-20(fp)
  805a4c:	10800098 	cmpnei	r2,r2,2
  805a50:	1000181e 	bne	r2,zero,805ab4 <f_getfree+0x200>
  805a54:	e0bffa17 	ldw	r2,-24(fp)
  805a58:	10800044 	addi	r2,r2,1
  805a5c:	10800003 	ldbu	r2,0(r2)
  805a60:	10803fcc 	andi	r2,r2,255
  805a64:	1004923a 	slli	r2,r2,8
  805a68:	1007883a 	mov	r3,r2
  805a6c:	e0bffa17 	ldw	r2,-24(fp)
  805a70:	10800003 	ldbu	r2,0(r2)
  805a74:	10803fcc 	andi	r2,r2,255
  805a78:	1884b03a 	or	r2,r3,r2
  805a7c:	10bfffcc 	andi	r2,r2,65535
  805a80:	10a0001c 	xori	r2,r2,32768
  805a84:	10a00004 	addi	r2,r2,-32768
  805a88:	1000031e 	bne	r2,zero,805a98 <f_getfree+0x1e4>
  805a8c:	e0bff617 	ldw	r2,-40(fp)
  805a90:	10800044 	addi	r2,r2,1
  805a94:	e0bff615 	stw	r2,-40(fp)
  805a98:	e0bffa17 	ldw	r2,-24(fp)
  805a9c:	10800084 	addi	r2,r2,2
  805aa0:	e0bffa15 	stw	r2,-24(fp)
  805aa4:	e0bff917 	ldw	r2,-28(fp)
  805aa8:	10bfff84 	addi	r2,r2,-2
  805aac:	e0bff915 	stw	r2,-28(fp)
  805ab0:	00002206 	br	805b3c <f_getfree+0x288>
  805ab4:	e0bffa17 	ldw	r2,-24(fp)
  805ab8:	108000c4 	addi	r2,r2,3
  805abc:	10800003 	ldbu	r2,0(r2)
  805ac0:	10803fcc 	andi	r2,r2,255
  805ac4:	1006963a 	slli	r3,r2,24
  805ac8:	e0bffa17 	ldw	r2,-24(fp)
  805acc:	10800084 	addi	r2,r2,2
  805ad0:	10800003 	ldbu	r2,0(r2)
  805ad4:	10803fcc 	andi	r2,r2,255
  805ad8:	1004943a 	slli	r2,r2,16
  805adc:	1884b03a 	or	r2,r3,r2
  805ae0:	e0fffa17 	ldw	r3,-24(fp)
  805ae4:	18c00044 	addi	r3,r3,1
  805ae8:	18c00003 	ldbu	r3,0(r3)
  805aec:	18c03fcc 	andi	r3,r3,255
  805af0:	1806923a 	slli	r3,r3,8
  805af4:	10c6b03a 	or	r3,r2,r3
  805af8:	e0bffa17 	ldw	r2,-24(fp)
  805afc:	10800003 	ldbu	r2,0(r2)
  805b00:	10803fcc 	andi	r2,r2,255
  805b04:	1886b03a 	or	r3,r3,r2
  805b08:	00840034 	movhi	r2,4096
  805b0c:	10bfffc4 	addi	r2,r2,-1
  805b10:	1884703a 	and	r2,r3,r2
  805b14:	1000031e 	bne	r2,zero,805b24 <f_getfree+0x270>
  805b18:	e0bff617 	ldw	r2,-40(fp)
  805b1c:	10800044 	addi	r2,r2,1
  805b20:	e0bff615 	stw	r2,-40(fp)
  805b24:	e0bffa17 	ldw	r2,-24(fp)
  805b28:	10800104 	addi	r2,r2,4
  805b2c:	e0bffa15 	stw	r2,-24(fp)
  805b30:	e0bff917 	ldw	r2,-28(fp)
  805b34:	10bfff04 	addi	r2,r2,-4
  805b38:	e0bff915 	stw	r2,-28(fp)
  805b3c:	e0bff717 	ldw	r2,-36(fp)
  805b40:	10bfffc4 	addi	r2,r2,-1
  805b44:	e0bff715 	stw	r2,-36(fp)
  805b48:	e0bff717 	ldw	r2,-36(fp)
  805b4c:	103fab1e 	bne	r2,zero,8059fc <__alt_data_end+0xff8059fc>
  805b50:	e0bfff17 	ldw	r2,-4(fp)
  805b54:	10800017 	ldw	r2,0(r2)
  805b58:	e0fff617 	ldw	r3,-40(fp)
  805b5c:	10c00415 	stw	r3,16(r2)
  805b60:	e0bffb03 	ldbu	r2,-20(fp)
  805b64:	108000d8 	cmpnei	r2,r2,3
  805b68:	1000041e 	bne	r2,zero,805b7c <f_getfree+0x2c8>
  805b6c:	e0bfff17 	ldw	r2,-4(fp)
  805b70:	10800017 	ldw	r2,0(r2)
  805b74:	00c00044 	movi	r3,1
  805b78:	10c00145 	stb	r3,5(r2)
  805b7c:	e0bffe17 	ldw	r2,-8(fp)
  805b80:	e0fff617 	ldw	r3,-40(fp)
  805b84:	10c00015 	stw	r3,0(r2)
  805b88:	e0bff517 	ldw	r2,-44(fp)
  805b8c:	e037883a 	mov	sp,fp
  805b90:	dfc00117 	ldw	ra,4(sp)
  805b94:	df000017 	ldw	fp,0(sp)
  805b98:	dec00204 	addi	sp,sp,8
  805b9c:	f800283a 	ret

00805ba0 <f_truncate>:
  805ba0:	defffb04 	addi	sp,sp,-20
  805ba4:	dfc00415 	stw	ra,16(sp)
  805ba8:	df000315 	stw	fp,12(sp)
  805bac:	df000304 	addi	fp,sp,12
  805bb0:	e13fff15 	stw	r4,-4(fp)
  805bb4:	e0bfff17 	ldw	r2,-4(fp)
  805bb8:	10c00017 	ldw	r3,0(r2)
  805bbc:	e0bfff17 	ldw	r2,-4(fp)
  805bc0:	1080010b 	ldhu	r2,4(r2)
  805bc4:	10bfffcc 	andi	r2,r2,65535
  805bc8:	1809883a 	mov	r4,r3
  805bcc:	100b883a 	mov	r5,r2
  805bd0:	0803dfc0 	call	803dfc <validate>
  805bd4:	e0bffd15 	stw	r2,-12(fp)
  805bd8:	e0bffd17 	ldw	r2,-12(fp)
  805bdc:	1000101e 	bne	r2,zero,805c20 <f_truncate+0x80>
  805be0:	e0bfff17 	ldw	r2,-4(fp)
  805be4:	10800183 	ldbu	r2,6(r2)
  805be8:	10803fcc 	andi	r2,r2,255
  805bec:	1080201c 	xori	r2,r2,128
  805bf0:	10bfe004 	addi	r2,r2,-128
  805bf4:	1000030e 	bge	r2,zero,805c04 <f_truncate+0x64>
  805bf8:	00800084 	movi	r2,2
  805bfc:	e0bffd15 	stw	r2,-12(fp)
  805c00:	00000706 	br	805c20 <f_truncate+0x80>
  805c04:	e0bfff17 	ldw	r2,-4(fp)
  805c08:	10800183 	ldbu	r2,6(r2)
  805c0c:	10803fcc 	andi	r2,r2,255
  805c10:	1080008c 	andi	r2,r2,2
  805c14:	1000021e 	bne	r2,zero,805c20 <f_truncate+0x80>
  805c18:	008001c4 	movi	r2,7
  805c1c:	e0bffd15 	stw	r2,-12(fp)
  805c20:	e0bffd17 	ldw	r2,-12(fp)
  805c24:	1000521e 	bne	r2,zero,805d70 <f_truncate+0x1d0>
  805c28:	e0bfff17 	ldw	r2,-4(fp)
  805c2c:	10800317 	ldw	r2,12(r2)
  805c30:	e0ffff17 	ldw	r3,-4(fp)
  805c34:	18c00217 	ldw	r3,8(r3)
  805c38:	1880442e 	bgeu	r3,r2,805d4c <f_truncate+0x1ac>
  805c3c:	e0bfff17 	ldw	r2,-4(fp)
  805c40:	10c00217 	ldw	r3,8(r2)
  805c44:	e0bfff17 	ldw	r2,-4(fp)
  805c48:	10c00315 	stw	r3,12(r2)
  805c4c:	e0bfff17 	ldw	r2,-4(fp)
  805c50:	10800183 	ldbu	r2,6(r2)
  805c54:	10800814 	ori	r2,r2,32
  805c58:	1007883a 	mov	r3,r2
  805c5c:	e0bfff17 	ldw	r2,-4(fp)
  805c60:	10c00185 	stb	r3,6(r2)
  805c64:	e0bfff17 	ldw	r2,-4(fp)
  805c68:	10800217 	ldw	r2,8(r2)
  805c6c:	10000b1e 	bne	r2,zero,805c9c <f_truncate+0xfc>
  805c70:	e0bfff17 	ldw	r2,-4(fp)
